///////////////////////////////////////////////////////////////////////////////
//
// IAR C/C++ Compiler V10.30.1.6000 for 8051              31/Oct/2019  10:27:35
// Copyright 2004-2018 IAR Systems AB.
// PC-locked license - IAR Embedded Workbench for 8051
//
//    Core               =  plain
//    Code model         =  banked
//    Data model         =  large
//    Calling convention =  xdata reentrant
//    Constant location  =  data_rom
//    Dptr setup         =  1,16
//                          
//    Source file        =  
//        C:\Users\hhhho\Desktop\Z-Stack1.2.2a-spp-v001-AD
//        -END\Components\stack\zdo\ZDApp.c
//    Command line       =  
//        -f C:\Users\hhhho\AppData\Local\Temp\EW3871.tmp
//        ("C:\Users\hhhho\Desktop\Z-Stack1.2.2a-spp-v001-AD
//        -END\Components\stack\zdo\ZDApp.c" -D SECURE=1 -D xNV_INIT -D
//        xNV_RESTORE -D xPOWER_SAVING -D NWK_AUTO_POLL -D ZTOOL_P1 -D
//        LCD_SUPPORTED=FALSE -D MULTICAST_ENABLED=FALSE -D
//        FEATURE_SYSTEM_STATS -lC
//        "C:\Users\hhhho\Desktop\Z-Stack1.2.2a-spp-v001-AD
//        -END\Projects\zstack\Prj\SampleApp\CC2530DB\EndDeviceEB\List" -lA
//        "C:\Users\hhhho\Desktop\Z-Stack1.2.2a-spp-v001-AD
//        -END\Projects\zstack\Prj\SampleApp\CC2530DB\EndDeviceEB\List"
//        --diag_suppress Pe001,Pa010 -o
//        "C:\Users\hhhho\Desktop\Z-Stack1.2.2a-spp-v001-AD
//        -END\Projects\zstack\Prj\SampleApp\CC2530DB\EndDeviceEB\Obj" -e
//        --debug --core=plain --dptr=16,1 --data_model=large
//        --code_model=banked --calling_convention=xdata_reentrant
//        --place_constants=data_rom --nr_virtual_regs 16 -f
//        "C:\Users\hhhho\Desktop\Z-Stack1.2.2a-spp-v001-AD
//        -END\Projects\zstack\Prj\SampleApp\CC2530DB\..\..\..\Tools\CC2530DB\f8wEndev.cfg"
//        (-DCPU32MHZ -DROOT=__near_func -DMAC_CFG_TX_DATA_MAX=3
//        -DMAC_CFG_TX_MAX=6 -DMAC_CFG_RX_MAX=3) -f
//        "C:\Users\hhhho\Desktop\Z-Stack1.2.2a-spp-v001-AD
//        -END\Projects\zstack\Prj\SampleApp\CC2530DB\..\..\..\Tools\CC2530DB\f8wConfig.cfg"
//        (-DZIGBEEPRO -DSECURE=1 -DZG_SECURE_DYNAMIC=0 -DREFLECTOR
//        -DDEFAULT_CHANLIST=0x00000800 -DZDAPP_CONFIG_PAN_ID=0xFFFF
//        -DNWK_START_DELAY=100 -DEXTENDED_JOINING_RANDOM_MASK=0x007F
//        -DBEACON_REQUEST_DELAY=100 -DBEACON_REQ_DELAY_MASK=0x00FF
//        -DLINK_STATUS_JITTER_MASK=0x007F -DROUTE_EXPIRY_TIME=30
//        -DAPSC_ACK_WAIT_DURATION_POLLED=3000 -DNWK_INDIRECT_MSG_TIMEOUT=7
//        -DMAX_RREQ_ENTRIES=8 -DAPSC_MAX_FRAME_RETRIES=3
//        -DNWK_MAX_DATA_RETRIES=2 -DMAX_POLL_FAILURE_RETRIES=2 -DMAX_BCAST=9
//        -DAPS_MAX_GROUPS=16 -DMAX_RTG_ENTRIES=40 -DNWK_MAX_BINDING_ENTRIES=4
//        -DMAX_BINDING_CLUSTER_IDS=4 "-DDEFAULT_KEY={0x01, 0x03, 0x05, 0x07,
//        0x09, 0x0B, 0x0D, 0x0F, 0x00, 0x02, 0x04, 0x06, 0x08, 0x0A, 0x0C,
//        0x0D}" -DMAC_MAX_FRAME_SIZE=116 -DZDNWKMGR_MIN_TRANSMISSIONS=20
//        "-DCONST=const __code" -DGENERIC=__generic -DRFD_RCVC_ALWAYS_ON=FALSE
//        -DPOLL_RATE=1000 -DQUEUED_POLL_RATE=100 -DRESPONSE_POLL_RATE=100
//        -DREJOIN_POLL_RATE=440 -DREJOIN_BACKOFF=900000 -DREJOIN_SCAN=900000)
//        -f "C:\Users\hhhho\Desktop\Z-Stack1.2.2a-spp-v001-AD
//        -END\Projects\zstack\Prj\SampleApp\CC2530DB\..\..\..\Tools\CC2530DB\f8wZCL.cfg"
//        -I "C:\Users\hhhho\Desktop\Z-Stack1.2.2a-spp-v001-AD
//        -END\Projects\zstack\Prj\SampleApp\CC2530DB\" -I
//        "C:\Users\hhhho\Desktop\Z-Stack1.2.2a-spp-v001-AD
//        -END\Projects\zstack\Prj\SampleApp\CC2530DB\..\Source\" -I
//        "C:\Users\hhhho\Desktop\Z-Stack1.2.2a-spp-v001-AD
//        -END\Projects\zstack\Prj\SampleApp\CC2530DB\..\..\Source\" -I
//        "C:\Users\hhhho\Desktop\Z-Stack1.2.2a-spp-v001-AD
//        -END\Projects\zstack\Prj\SampleApp\CC2530DB\..\..\..\ZMain\TI2530DB\"
//        -I "C:\Users\hhhho\Desktop\Z-Stack1.2.2a-spp-v001-AD
//        -END\Projects\zstack\Prj\SampleApp\CC2530DB\..\..\..\..\..\Components\hal\include\"
//        -I "C:\Users\hhhho\Desktop\Z-Stack1.2.2a-spp-v001-AD
//        -END\Projects\zstack\Prj\SampleApp\CC2530DB\..\..\..\..\..\Components\hal\target\CC2530EB\"
//        -I "C:\Users\hhhho\Desktop\Z-Stack1.2.2a-spp-v001-AD
//        -END\Projects\zstack\Prj\SampleApp\CC2530DB\..\..\..\..\..\Components\mac\include\"
//        -I "C:\Users\hhhho\Desktop\Z-Stack1.2.2a-spp-v001-AD
//        -END\Projects\zstack\Prj\SampleApp\CC2530DB\..\..\..\..\..\Components\mac\high_level\"
//        -I "C:\Users\hhhho\Desktop\Z-Stack1.2.2a-spp-v001-AD
//        -END\Projects\zstack\Prj\SampleApp\CC2530DB\..\..\..\..\..\Components\mac\low_level\srf04\"
//        -I "C:\Users\hhhho\Desktop\Z-Stack1.2.2a-spp-v001-AD
//        -END\Projects\zstack\Prj\SampleApp\CC2530DB\..\..\..\..\..\Components\mac\low_level\srf04\single_chip\"
//        -I "C:\Users\hhhho\Desktop\Z-Stack1.2.2a-spp-v001-AD
//        -END\Projects\zstack\Prj\SampleApp\CC2530DB\..\..\..\..\..\Components\mt\"
//        -I "C:\Users\hhhho\Desktop\Z-Stack1.2.2a-spp-v001-AD
//        -END\Projects\zstack\Prj\SampleApp\CC2530DB\..\..\..\..\..\Components\osal\include\"
//        -I "C:\Users\hhhho\Desktop\Z-Stack1.2.2a-spp-v001-AD
//        -END\Projects\zstack\Prj\SampleApp\CC2530DB\..\..\..\..\..\Components\services\saddr\"
//        -I "C:\Users\hhhho\Desktop\Z-Stack1.2.2a-spp-v001-AD
//        -END\Projects\zstack\Prj\SampleApp\CC2530DB\..\..\..\..\..\Components\services\sdata\"
//        -I "C:\Users\hhhho\Desktop\Z-Stack1.2.2a-spp-v001-AD
//        -END\Projects\zstack\Prj\SampleApp\CC2530DB\..\..\..\..\..\Components\stack\af\"
//        -I "C:\Users\hhhho\Desktop\Z-Stack1.2.2a-spp-v001-AD
//        -END\Projects\zstack\Prj\SampleApp\CC2530DB\..\..\..\..\..\Components\stack\nwk\"
//        -I "C:\Users\hhhho\Desktop\Z-Stack1.2.2a-spp-v001-AD
//        -END\Projects\zstack\Prj\SampleApp\CC2530DB\..\..\..\..\..\Components\stack\sapi\"
//        -I "C:\Users\hhhho\Desktop\Z-Stack1.2.2a-spp-v001-AD
//        -END\Projects\zstack\Prj\SampleApp\CC2530DB\..\..\..\..\..\Components\stack\sec\"
//        -I "C:\Users\hhhho\Desktop\Z-Stack1.2.2a-spp-v001-AD
//        -END\Projects\zstack\Prj\SampleApp\CC2530DB\..\..\..\..\..\Components\stack\sys\"
//        -I "C:\Users\hhhho\Desktop\Z-Stack1.2.2a-spp-v001-AD
//        -END\Projects\zstack\Prj\SampleApp\CC2530DB\..\..\..\..\..\Components\stack\zcl\"
//        -I "C:\Users\hhhho\Desktop\Z-Stack1.2.2a-spp-v001-AD
//        -END\Projects\zstack\Prj\SampleApp\CC2530DB\..\..\..\..\..\Components\stack\zdo\"
//        -I "C:\Users\hhhho\Desktop\Z-Stack1.2.2a-spp-v001-AD
//        -END\Projects\zstack\Prj\SampleApp\CC2530DB\..\..\..\..\..\Components\zmac\"
//        -I "C:\Users\hhhho\Desktop\Z-Stack1.2.2a-spp-v001-AD
//        -END\Projects\zstack\Prj\SampleApp\CC2530DB\..\..\..\..\..\Components\zmac\f8w\"
//        -Ohz --require_prototypes)
//    Locale             =  Chinese (Simplified)_CHN.936
//    List file          =  
//        C:\Users\hhhho\Desktop\Z-Stack1.2.2a-spp-v001-AD
//        -END\Projects\zstack\Prj\SampleApp\CC2530DB\EndDeviceEB\List\ZDApp.s51
//
///////////////////////////////////////////////////////////////////////////////

        NAME ZDApp

        RTMODEL "__SystemLibrary", "CLib"
        RTMODEL "__calling_convention", "xdata_reentrant"
        RTMODEL "__code_model", "banked"
        RTMODEL "__core", "plain"
        RTMODEL "__data_model", "large"
        RTMODEL "__dptr_size", "16"
        RTMODEL "__extended_stack", "disabled"
        RTMODEL "__location_for_constants", "data"
        RTMODEL "__number_of_dptrs", "1"
        RTMODEL "__register_banks", "*"
        RTMODEL "__rt_version", "1"

        RSEG DOVERLAY:DATA:NOROOT(0)
        RSEG IOVERLAY:IDATA:NOROOT(0)
        RSEG ISTACK:IDATA:NOROOT(0)
        RSEG PSTACK:XDATA:NOROOT(0)
        RSEG XSTACK:XDATA:NOROOT(0)

        EXTERN ?V0
        EXTERN ?V1
        EXTERN ?V2
        EXTERN ?V4
        EXTERN ?V5
        EXTERN ?V3
        EXTERN ?V6
        EXTERN ?V8
        EXTERN ?V9
        EXTERN ?V10
        EXTERN ?V7
        EXTERN ?ALLOC_XSTACK8
        EXTERN ?BANKED_ENTER_XDATA
        EXTERN ?BANKED_LEAVE_XDATA
        EXTERN ?BDISPATCH
        EXTERN ?BRET
        EXTERN ?CALL_IND
        EXTERN ?DEALLOC_XSTACK8
        EXTERN ?L_ADD_TO_X
        EXTERN ?L_ADD_X
        EXTERN ?L_MOV_TO_X
        EXTERN ?L_MOV_X
        EXTERN ?L_SHL
        EXTERN ?PUSH_XSTACK8_X_FOUR
        EXTERN ?PUSH_XSTACK8_X_TWO
        EXTERN ?PUSH_XSTACK_I_FOUR
        EXTERN ?PUSH_XSTACK_I_ONE
        EXTERN ?PUSH_XSTACK_I_THREE
        EXTERN ?PUSH_XSTACK_I_TWO
        EXTERN ?S_DIV_MOD
        EXTERN ?US_SWITCH_SPARSE
        EXTERN ?XLOAD_R0123
        EXTERN ?XLOAD_R2345
        EXTERN ?XSP
        EXTERN ?XSTACK_DISP0_8
        EXTERN ?XSTACK_DISP100_8
        EXTERN ?XSTACK_DISP101_8
        EXTERN ?XSTACK_DISP102_8
        EXTERN ?XSTORE_R0123
        EXTERN __INIT_XDATA_I
        EXTERN __INIT_XDATA_Z

        PUBLIC `??AddrMgrWriteNVRequest::?relay`
        FUNCTION `??AddrMgrWriteNVRequest::?relay`,0203H
        PUBLIC `??ZDAppCheckForHoldKey::?relay`
        FUNCTION `??ZDAppCheckForHoldKey::?relay`,0203H
        PUBLIC `??ZDAppDetermineDeviceType::?relay`
        FUNCTION `??ZDAppDetermineDeviceType::?relay`,0203H
        PUBLIC `??ZDApp_AgeOutPendingBindEntry::?relay`
        FUNCTION `??ZDApp_AgeOutPendingBindEntry::?relay`,0203H
        PUBLIC `??ZDApp_AnnounceNewAddress::?relay`
        FUNCTION `??ZDApp_AnnounceNewAddress::?relay`,0203H
        PUBLIC `??ZDApp_ChangeMatchDescRespPermission::?relay`
        FUNCTION `??ZDApp_ChangeMatchDescRespPermission::?relay`,0203H
        PUBLIC `??ZDApp_ChangeState::?relay`
        FUNCTION `??ZDApp_ChangeState::?relay`,0203H
        PUBLIC `??ZDApp_CoordStartPANIDConflictCB::?relay`
        FUNCTION `??ZDApp_CoordStartPANIDConflictCB::?relay`,0203H
        PUBLIC `??ZDApp_DeviceAuthEvt::?relay`
        FUNCTION `??ZDApp_DeviceAuthEvt::?relay`,0203H
        PUBLIC `??ZDApp_DeviceConfigured::?relay`
        FUNCTION `??ZDApp_DeviceConfigured::?relay`,0203H
        PUBLIC `??ZDApp_ForceConcentratorChange::?relay`
        FUNCTION `??ZDApp_ForceConcentratorChange::?relay`,0203H
        PUBLIC `??ZDApp_GetEmptyPendingBindReq::?relay`
        FUNCTION `??ZDApp_GetEmptyPendingBindReq::?relay`,0203H
        PUBLIC `??ZDApp_InMsgCB::?relay`
        FUNCTION `??ZDApp_InMsgCB::?relay`,0203H
        PUBLIC `??ZDApp_Init::?relay`
        FUNCTION `??ZDApp_Init::?relay`,0203H
        PUBLIC `??ZDApp_InitPendingBind::?relay`
        FUNCTION `??ZDApp_InitPendingBind::?relay`,0203H
        PUBLIC `??ZDApp_InitUserDesc::?relay`
        FUNCTION `??ZDApp_InitUserDesc::?relay`,0203H
        PUBLIC `??ZDApp_InitZdoCBFunc::?relay`
        FUNCTION `??ZDApp_InitZdoCBFunc::?relay`,0203H
        PUBLIC `??ZDApp_JoinReq::?relay`
        FUNCTION `??ZDApp_JoinReq::?relay`,0203H
        PUBLIC `??ZDApp_LeaveCtrlBypass::?relay`
        FUNCTION `??ZDApp_LeaveCtrlBypass::?relay`,0203H
        PUBLIC `??ZDApp_LeaveCtrlInit::?relay`
        FUNCTION `??ZDApp_LeaveCtrlInit::?relay`,0203H
        PUBLIC `??ZDApp_LeaveCtrlReset::?relay`
        FUNCTION `??ZDApp_LeaveCtrlReset::?relay`,0203H
        PUBLIC `??ZDApp_LeaveCtrlSet::?relay`
        FUNCTION `??ZDApp_LeaveCtrlSet::?relay`,0203H
        PUBLIC `??ZDApp_LeaveCtrlStartup::?relay`
        FUNCTION `??ZDApp_LeaveCtrlStartup::?relay`,0203H
        PUBLIC `??ZDApp_LeaveReset::?relay`
        FUNCTION `??ZDApp_LeaveReset::?relay`,0203H
        PUBLIC `??ZDApp_LeaveUpdate::?relay`
        FUNCTION `??ZDApp_LeaveUpdate::?relay`,0203H
        PUBLIC `??ZDApp_NVUpdate::?relay`
        FUNCTION `??ZDApp_NVUpdate::?relay`,0203H
        PUBLIC `??ZDApp_NetworkDiscoveryReq::?relay`
        FUNCTION `??ZDApp_NetworkDiscoveryReq::?relay`,0203H
        PUBLIC `??ZDApp_NetworkInit::?relay`
        FUNCTION `??ZDApp_NetworkInit::?relay`,0203H
        PUBLIC `??ZDApp_NetworkStartEvt::?relay`
        FUNCTION `??ZDApp_NetworkStartEvt::?relay`,0203H
        PUBLIC `??ZDApp_NodeProfileSync::?relay`
        FUNCTION `??ZDApp_NodeProfileSync::?relay`,0203H
        PUBLIC `??ZDApp_NwkDescListProcessing::?relay`
        FUNCTION `??ZDApp_NwkDescListProcessing::?relay`,0203H
        PUBLIC `??ZDApp_NwkStateUpdateCB::?relay`
        FUNCTION `??ZDApp_NwkStateUpdateCB::?relay`,0203H
        PUBLIC `??ZDApp_ProcessMsgCBs::?relay`
        FUNCTION `??ZDApp_ProcessMsgCBs::?relay`,0203H
        PUBLIC `??ZDApp_ProcessNetworkJoin::?relay`
        FUNCTION `??ZDApp_ProcessNetworkJoin::?relay`,0203H
        PUBLIC `??ZDApp_ProcessOSALMsg::?relay`
        FUNCTION `??ZDApp_ProcessOSALMsg::?relay`,0203H
        PUBLIC `??ZDApp_ProcessPendingBindReq::?relay`
        FUNCTION `??ZDApp_ProcessPendingBindReq::?relay`,0203H
        PUBLIC `??ZDApp_ProcessSecEvent::?relay`
        FUNCTION `??ZDApp_ProcessSecEvent::?relay`,0203H
        PUBLIC `??ZDApp_ProcessSecMsg::?relay`
        FUNCTION `??ZDApp_ProcessSecMsg::?relay`,0203H
        PUBLIC `??ZDApp_ReadNetworkRestoreState::?relay`
        FUNCTION `??ZDApp_ReadNetworkRestoreState::?relay`,0203H
        PUBLIC `??ZDApp_RegisterCBs::?relay`
        FUNCTION `??ZDApp_RegisterCBs::?relay`,0203H
        PUBLIC `??ZDApp_ResetNwkKey::?relay`
        FUNCTION `??ZDApp_ResetNwkKey::?relay`,0203H
        PUBLIC `??ZDApp_ResetTimerCancel::?relay`
        FUNCTION `??ZDApp_ResetTimerCancel::?relay`,0203H
        PUBLIC `??ZDApp_ResetTimerStart::?relay`
        FUNCTION `??ZDApp_ResetTimerStart::?relay`,0203H
        PUBLIC `??ZDApp_RestoreNwkKey::?relay`
        FUNCTION `??ZDApp_RestoreNwkKey::?relay`,0203H
        PUBLIC `??ZDApp_SaveNetworkStateEvt::?relay`
        FUNCTION `??ZDApp_SaveNetworkStateEvt::?relay`,0203H
        PUBLIC `??ZDApp_SaveNwkKey::?relay`
        FUNCTION `??ZDApp_SaveNwkKey::?relay`,0203H
        PUBLIC `??ZDApp_SecInit::?relay`
        FUNCTION `??ZDApp_SecInit::?relay`,0203H
        PUBLIC `??ZDApp_SendEventMsg::?relay`
        FUNCTION `??ZDApp_SendEventMsg::?relay`,0203H
        PUBLIC `??ZDApp_SendMsg::?relay`
        FUNCTION `??ZDApp_SendMsg::?relay`,0203H
        PUBLIC `??ZDApp_SendParentAnnce::?relay`
        FUNCTION `??ZDApp_SendParentAnnce::?relay`,0203H
        PUBLIC `??ZDApp_SetParentAnnceTimer::?relay`
        FUNCTION `??ZDApp_SetParentAnnceTimer::?relay`,0203H
        PUBLIC `??ZDApp_SetPendingBindDefault::?relay`
        FUNCTION `??ZDApp_SetPendingBindDefault::?relay`,0203H
        PUBLIC `??ZDApp_SetRejoinBackoffDuration::?relay`
        FUNCTION `??ZDApp_SetRejoinBackoffDuration::?relay`,0203H
        PUBLIC `??ZDApp_SetRejoinScanDuration::?relay`
        FUNCTION `??ZDApp_SetRejoinScanDuration::?relay`,0203H
        PUBLIC `??ZDApp_StartJoiningCycle::?relay`
        FUNCTION `??ZDApp_StartJoiningCycle::?relay`,0203H
        PUBLIC `??ZDApp_StopJoiningCycle::?relay`
        FUNCTION `??ZDApp_StopJoiningCycle::?relay`,0203H
        PUBLIC `??ZDApp_event_loop::?relay`
        FUNCTION `??ZDApp_event_loop::?relay`,0203H
        PUBLIC `??ZDOInitDevice::?relay`
        FUNCTION `??ZDOInitDevice::?relay`,0203H
        PUBLIC `??ZDO_AddrChangeIndicationCB::?relay`
        FUNCTION `??ZDO_AddrChangeIndicationCB::?relay`,0203H
        PUBLIC `??ZDO_ConcentratorIndicationCB::?relay`
        FUNCTION `??ZDO_ConcentratorIndicationCB::?relay`,0203H
        PUBLIC `??ZDO_DeregisterForZdoCB::?relay`
        FUNCTION `??ZDO_DeregisterForZdoCB::?relay`,0203H
        PUBLIC `??ZDO_JoinConfirmCB::?relay`
        FUNCTION `??ZDO_JoinConfirmCB::?relay`,0203H
        PUBLIC `??ZDO_JoinIndicationCB::?relay`
        FUNCTION `??ZDO_JoinIndicationCB::?relay`,0203H
        PUBLIC `??ZDO_LeaveCnf::?relay`
        FUNCTION `??ZDO_LeaveCnf::?relay`,0203H
        PUBLIC `??ZDO_LeaveInd::?relay`
        FUNCTION `??ZDO_LeaveInd::?relay`,0203H
        PUBLIC `??ZDO_ManytoOneFailureIndicationCB::?relay`
        FUNCTION `??ZDO_ManytoOneFailureIndicationCB::?relay`,0203H
        PUBLIC `??ZDO_NetworkDiscoveryConfirmCB::?relay`
        FUNCTION `??ZDO_NetworkDiscoveryConfirmCB::?relay`,0203H
        PUBLIC `??ZDO_NetworkFormationConfirmCB::?relay`
        FUNCTION `??ZDO_NetworkFormationConfirmCB::?relay`,0203H
        PUBLIC `??ZDO_NetworkStatusCB::?relay`
        FUNCTION `??ZDO_NetworkStatusCB::?relay`,0203H
        PUBLIC `??ZDO_PermitJoinCB::?relay`
        FUNCTION `??ZDO_PermitJoinCB::?relay`,0203H
        PUBLIC `??ZDO_PollConfirmCB::?relay`
        FUNCTION `??ZDO_PollConfirmCB::?relay`,0203H
        PUBLIC `??ZDO_RegisterForZdoCB::?relay`
        FUNCTION `??ZDO_RegisterForZdoCB::?relay`,0203H
        PUBLIC `??ZDO_SrcRtgIndCB::?relay`
        FUNCTION `??ZDO_SrcRtgIndCB::?relay`,0203H
        PUBLIC `??ZDO_StartRouterConfirmCB::?relay`
        FUNCTION `??ZDO_StartRouterConfirmCB::?relay`,0203H
        PUBLIC `??ZDO_SyncIndicationCB::?relay`
        FUNCTION `??ZDO_SyncIndicationCB::?relay`,0203H
        PUBLIC `??ZDO_UpdateDeviceIndication::?relay`
        FUNCTION `??ZDO_UpdateDeviceIndication::?relay`,0203H
        PUBLIC `??ZDO_beaconNotifyIndCB::?relay`
        FUNCTION `??ZDO_beaconNotifyIndCB::?relay`,0203H
        PUBLIC AddrMgrWriteNVRequest
        FUNCTION AddrMgrWriteNVRequest,0203H
        ARGFRAME XSTACK, 0, STACK
        PUBLIC MatchRsps
        PUBLIC ZDAppCheckForHoldKey
        FUNCTION ZDAppCheckForHoldKey,0203H
        ARGFRAME XSTACK, 0, STACK
        PUBLIC ZDAppDetermineDeviceType
        FUNCTION ZDAppDetermineDeviceType,021203H
        ARGFRAME XSTACK, 12, STACK
        ARGFRAME IOVERLAY, 0, STATIC
        ARGFRAME DOVERLAY, 0, STATIC
        LOCFRAME ISTACK, 2, STACK
        PUBLIC ZDAppNwkAddr
        PUBLIC ZDAppPendingBindReq
        PUBLIC ZDAppTaskID
        PUBLIC ZDApp_AgeOutPendingBindEntry
        FUNCTION ZDApp_AgeOutPendingBindEntry,0a1203H
        ARGFRAME XSTACK, 14, STACK
        ARGFRAME IOVERLAY, 0, STATIC
        ARGFRAME DOVERLAY, 0, STATIC
        LOCFRAME XSTACK, 31, STACK
        PUBLIC ZDApp_AnnounceNewAddress
        FUNCTION ZDApp_AnnounceNewAddress,0a1203H
        ARGFRAME XSTACK, 14, STACK
        ARGFRAME IOVERLAY, 0, STATIC
        ARGFRAME DOVERLAY, 0, STATIC
        LOCFRAME XSTACK, 19, STACK
        PUBLIC ZDApp_AutoFindMode_epDesc
        PUBLIC ZDApp_ChangeMatchDescRespPermission
        FUNCTION ZDApp_ChangeMatchDescRespPermission,021203H
        ARGFRAME XSTACK, 0, STACK
        LOCFRAME XSTACK, 9, STACK
        PUBLIC ZDApp_ChangeState
        FUNCTION ZDApp_ChangeState,021203H
        ARGFRAME XSTACK, 17, STACK
        ARGFRAME IOVERLAY, 0, STATIC
        ARGFRAME DOVERLAY, 0, STATIC
        LOCFRAME XSTACK, 9, STACK
        PUBLIC ZDApp_CoordStartPANIDConflictCB
        FUNCTION ZDApp_CoordStartPANIDConflictCB,0203H
        ARGFRAME XSTACK, 0, STACK
        PUBLIC ZDApp_DeviceAuthEvt
        FUNCTION ZDApp_DeviceAuthEvt,021203H
        ARGFRAME XSTACK, 9, STACK
        ARGFRAME IOVERLAY, 0, STATIC
        ARGFRAME DOVERLAY, 0, STATIC
        LOCFRAME ISTACK, 2, STACK
        PUBLIC ZDApp_DeviceConfigured
        FUNCTION ZDApp_DeviceConfigured,0a1203H
        ARGFRAME XSTACK, 0, STACK
        LOCFRAME XSTACK, 16, STACK
        PUBLIC ZDApp_ForceConcentratorChange
        FUNCTION ZDApp_ForceConcentratorChange,0a1203H
        ARGFRAME XSTACK, 0, STACK
        LOCFRAME XSTACK, 14, STACK
        PUBLIC ZDApp_GetEmptyPendingBindReq
        FUNCTION ZDApp_GetEmptyPendingBindReq,0203H
        ARGFRAME XSTACK, 0, STACK
        LOCFRAME ISTACK, 2, STACK
        PUBLIC ZDApp_InMsgCB
        FUNCTION ZDApp_InMsgCB,0a1203H
        ARGFRAME XSTACK, 0, STACK
        LOCFRAME XSTACK, 14, STACK
        PUBLIC ZDApp_Init
        FUNCTION ZDApp_Init,021203H
        ARGFRAME XSTACK, 0, STACK
        LOCFRAME XSTACK, 9, STACK
        PUBLIC ZDApp_InitPendingBind
        FUNCTION ZDApp_InitPendingBind,021203H
        ARGFRAME XSTACK, 9, STACK
        ARGFRAME IOVERLAY, 0, STATIC
        ARGFRAME DOVERLAY, 0, STATIC
        LOCFRAME XSTACK, 9, STACK
        PUBLIC ZDApp_InitUserDesc
        FUNCTION ZDApp_InitUserDesc,0a1203H
        ARGFRAME XSTACK, 0, STACK
        LOCFRAME XSTACK, 31, STACK
        PUBLIC ZDApp_InitZdoCBFunc
        FUNCTION ZDApp_InitZdoCBFunc,0203H
        ARGFRAME XSTACK, 9, STACK
        ARGFRAME IOVERLAY, 0, STATIC
        ARGFRAME DOVERLAY, 0, STATIC
        LOCFRAME ISTACK, 2, STACK
        PUBLIC ZDApp_JoinReq
        FUNCTION ZDApp_JoinReq,0a1203H
        ARGFRAME XSTACK, 4, STACK
        LOCFRAME XSTACK, 16, STACK
        PUBLIC ZDApp_LeaveCtrl
        PUBLIC ZDApp_LeaveCtrlBypass
        FUNCTION ZDApp_LeaveCtrlBypass,0203H
        ARGFRAME XSTACK, 0, STACK
        LOCFRAME ISTACK, 2, STACK
        PUBLIC ZDApp_LeaveCtrlInit
        FUNCTION ZDApp_LeaveCtrlInit,0a1203H
        ARGFRAME XSTACK, 12, STACK
        ARGFRAME IOVERLAY, 0, STATIC
        ARGFRAME DOVERLAY, 0, STATIC
        LOCFRAME XSTACK, 14, STACK
        PUBLIC ZDApp_LeaveCtrlReset
        FUNCTION ZDApp_LeaveCtrlReset,0a1203H
        ARGFRAME XSTACK, 0, STACK
        ARGFRAME IOVERLAY, 0, STATIC
        ARGFRAME DOVERLAY, 0, STATIC
        LOCFRAME XSTACK, 14, STACK
        PUBLIC ZDApp_LeaveCtrlSet
        FUNCTION ZDApp_LeaveCtrlSet,0a1203H
        ARGFRAME XSTACK, 10, STACK
        ARGFRAME IOVERLAY, 0, STATIC
        ARGFRAME DOVERLAY, 0, STATIC
        LOCFRAME XSTACK, 14, STACK
        PUBLIC ZDApp_LeaveCtrlStartup
        FUNCTION ZDApp_LeaveCtrlStartup,021203H
        ARGFRAME XSTACK, 0, STACK
        LOCFRAME ISTACK, 2, STACK
        PUBLIC ZDApp_LeaveReset
        FUNCTION ZDApp_LeaveReset,0a1203H
        ARGFRAME XSTACK, 14, STACK
        ARGFRAME IOVERLAY, 0, STATIC
        ARGFRAME DOVERLAY, 0, STATIC
        LOCFRAME XSTACK, 10, STACK
        PUBLIC ZDApp_LeaveUpdate
        FUNCTION ZDApp_LeaveUpdate,0a1203H
        ARGFRAME XSTACK, 14, STACK
        ARGFRAME IOVERLAY, 0, STATIC
        ARGFRAME DOVERLAY, 0, STATIC
        LOCFRAME XSTACK, 27, STACK
        PUBLIC ZDApp_NVUpdate
        FUNCTION ZDApp_NVUpdate,0203H
        ARGFRAME XSTACK, 0, STACK
        PUBLIC ZDApp_NetworkDiscoveryReq
        FUNCTION ZDApp_NetworkDiscoveryReq,0a1203H
        ARGFRAME XSTACK, 0, STACK
        LOCFRAME XSTACK, 12, STACK
        PUBLIC ZDApp_NetworkInit
        FUNCTION ZDApp_NetworkInit,0a1203H
        ARGFRAME XSTACK, 15, STACK
        ARGFRAME IOVERLAY, 0, STATIC
        ARGFRAME DOVERLAY, 0, STATIC
        LOCFRAME XSTACK, 16, STACK
        PUBLIC ZDApp_NetworkStartEvt
        FUNCTION ZDApp_NetworkStartEvt,021203H
        ARGFRAME XSTACK, 0, STACK
        LOCFRAME ISTACK, 2, STACK
        PUBLIC ZDApp_NewDeviceList
        PUBLIC ZDApp_NodeProfileSync
        FUNCTION ZDApp_NodeProfileSync,021203H
        ARGFRAME XSTACK, 15, STACK
        ARGFRAME IOVERLAY, 0, STATIC
        ARGFRAME DOVERLAY, 0, STATIC
        LOCFRAME XSTACK, 9, STACK
        PUBLIC ZDApp_NwkDescListProcessing
        FUNCTION ZDApp_NwkDescListProcessing,0a1203H
        ARGFRAME XSTACK, 15, STACK
        ARGFRAME IOVERLAY, 0, STATIC
        ARGFRAME DOVERLAY, 0, STATIC
        LOCFRAME XSTACK, 14, STACK
        PUBLIC ZDApp_NwkStateUpdateCB
        FUNCTION ZDApp_NwkStateUpdateCB,021203H
        ARGFRAME XSTACK, 0, STACK
        LOCFRAME ISTACK, 2, STACK
        PUBLIC ZDApp_ProcessMsgCBs
        FUNCTION ZDApp_ProcessMsgCBs,0a1203H
        ARGFRAME XSTACK, 15, STACK
        ARGFRAME IOVERLAY, 0, STATIC
        ARGFRAME DOVERLAY, 0, STATIC
        LOCFRAME XSTACK, 35, STACK
        PUBLIC ZDApp_ProcessNetworkJoin
        FUNCTION ZDApp_ProcessNetworkJoin,0a1203H
        ARGFRAME XSTACK, 15, STACK
        ARGFRAME IOVERLAY, 0, STATIC
        ARGFRAME DOVERLAY, 0, STATIC
        LOCFRAME XSTACK, 14, STACK
        PUBLIC ZDApp_ProcessOSALMsg
        FUNCTION ZDApp_ProcessOSALMsg,0a1203H
        ARGFRAME XSTACK, 14, STACK
        ARGFRAME IOVERLAY, 0, STATIC
        ARGFRAME DOVERLAY, 0, STATIC
        LOCFRAME XSTACK, 19, STACK
        PUBLIC ZDApp_ProcessPendingBindReq
        FUNCTION ZDApp_ProcessPendingBindReq,0a1203H
        ARGFRAME XSTACK, 35, STACK
        ARGFRAME IOVERLAY, 0, STATIC
        ARGFRAME DOVERLAY, 0, STATIC
        LOCFRAME XSTACK, 21, STACK
        PUBLIC ZDApp_ProcessSecEvent
        FUNCTION ZDApp_ProcessSecEvent,021203H
        ARGFRAME XSTACK, 14, STACK
        ARGFRAME IOVERLAY, 0, STATIC
        ARGFRAME DOVERLAY, 0, STATIC
        LOCFRAME XSTACK, 9, STACK
        PUBLIC ZDApp_ProcessSecMsg
        FUNCTION ZDApp_ProcessSecMsg,021203H
        ARGFRAME XSTACK, 15, STACK
        ARGFRAME IOVERLAY, 0, STATIC
        ARGFRAME DOVERLAY, 0, STATIC
        LOCFRAME ISTACK, 2, STACK
        PUBLIC ZDApp_ReadNetworkRestoreState
        FUNCTION ZDApp_ReadNetworkRestoreState,021203H
        ARGFRAME XSTACK, 0, STACK
        LOCFRAME XSTACK, 9, STACK
        PUBLIC ZDApp_RegisterCBs
        FUNCTION ZDApp_RegisterCBs,021203H
        ARGFRAME XSTACK, 9, STACK
        ARGFRAME IOVERLAY, 0, STATIC
        ARGFRAME DOVERLAY, 0, STATIC
        LOCFRAME ISTACK, 2, STACK
        PUBLIC ZDApp_ResetNwkKey
        FUNCTION ZDApp_ResetNwkKey,0a1203H
        ARGFRAME XSTACK, 14, STACK
        ARGFRAME IOVERLAY, 0, STATIC
        ARGFRAME DOVERLAY, 0, STATIC
        LOCFRAME XSTACK, 35, STACK
        PUBLIC ZDApp_ResetTimerCancel
        FUNCTION ZDApp_ResetTimerCancel,021203H
        ARGFRAME XSTACK, 0, STACK
        ARGFRAME IOVERLAY, 0, STATIC
        ARGFRAME DOVERLAY, 0, STATIC
        LOCFRAME ISTACK, 2, STACK
        PUBLIC ZDApp_ResetTimerStart
        FUNCTION ZDApp_ResetTimerStart,0a1203H
        ARGFRAME XSTACK, 14, STACK
        ARGFRAME IOVERLAY, 0, STATIC
        ARGFRAME DOVERLAY, 0, STATIC
        LOCFRAME XSTACK, 16, STACK
        PUBLIC ZDApp_RestoreNwkKey
        FUNCTION ZDApp_RestoreNwkKey,0a1203H
        ARGFRAME XSTACK, 15, STACK
        ARGFRAME IOVERLAY, 0, STATIC
        ARGFRAME DOVERLAY, 0, STATIC
        LOCFRAME XSTACK, 53, STACK
        PUBLIC ZDApp_SaveNetworkStateEvt
        FUNCTION ZDApp_SaveNetworkStateEvt,0203H
        ARGFRAME XSTACK, 0, STACK
        PUBLIC ZDApp_SaveNwkKey
        FUNCTION ZDApp_SaveNwkKey,0a1203H
        ARGFRAME XSTACK, 9, STACK
        ARGFRAME IOVERLAY, 0, STATIC
        ARGFRAME DOVERLAY, 0, STATIC
        LOCFRAME XSTACK, 35, STACK
        PUBLIC ZDApp_SavedPollRate
        PUBLIC ZDApp_SecInit
        FUNCTION ZDApp_SecInit,0a1203H
        ARGFRAME XSTACK, 12, STACK
        ARGFRAME IOVERLAY, 0, STATIC
        ARGFRAME DOVERLAY, 0, STATIC
        LOCFRAME XSTACK, 25, STACK
        PUBLIC ZDApp_SendEventMsg
        FUNCTION ZDApp_SendEventMsg,021203H
        ARGFRAME XSTACK, 0, STACK
        LOCFRAME XSTACK, 9, STACK
        PUBLIC ZDApp_SendMsg
        FUNCTION ZDApp_SendMsg,0a1203H
        ARGFRAME XSTACK, 17, STACK
        ARGFRAME IOVERLAY, 0, STATIC
        ARGFRAME DOVERLAY, 0, STATIC
        LOCFRAME ISTACK, 1, STACK
        LOCFRAME XSTACK, 22, STACK
        PUBLIC ZDApp_SendParentAnnce
        FUNCTION ZDApp_SendParentAnnce,0a1203H
        ARGFRAME XSTACK, 0, STACK
        LOCFRAME XSTACK, 27, STACK
        PUBLIC ZDApp_SetParentAnnceTimer
        FUNCTION ZDApp_SetParentAnnceTimer,0a1203H
        ARGFRAME XSTACK, 0, STACK
        ARGFRAME IOVERLAY, 0, STATIC
        ARGFRAME DOVERLAY, 0, STATIC
        LOCFRAME XSTACK, 16, STACK
        PUBLIC ZDApp_SetPendingBindDefault
        FUNCTION ZDApp_SetPendingBindDefault,021203H
        ARGFRAME XSTACK, 26, STACK
        ARGFRAME IOVERLAY, 0, STATIC
        ARGFRAME DOVERLAY, 0, STATIC
        LOCFRAME XSTACK, 9, STACK
        PUBLIC ZDApp_SetRejoinBackoffDuration
        FUNCTION ZDApp_SetRejoinBackoffDuration,080203H
        ARGFRAME XSTACK, 0, STACK
        LOCFRAME XSTACK, 12, STACK
        PUBLIC ZDApp_SetRejoinScanDuration
        FUNCTION ZDApp_SetRejoinScanDuration,080203H
        ARGFRAME XSTACK, 0, STACK
        LOCFRAME XSTACK, 12, STACK
        PUBLIC ZDApp_StartJoiningCycle
        FUNCTION ZDApp_StartJoiningCycle,021203H
        ARGFRAME XSTACK, 14, STACK
        ARGFRAME IOVERLAY, 0, STATIC
        ARGFRAME DOVERLAY, 0, STATIC
        LOCFRAME ISTACK, 2, STACK
        PUBLIC ZDApp_StopJoiningCycle
        FUNCTION ZDApp_StopJoiningCycle,0203H
        ARGFRAME XSTACK, 14, STACK
        ARGFRAME IOVERLAY, 0, STATIC
        ARGFRAME DOVERLAY, 0, STATIC
        LOCFRAME ISTACK, 2, STACK
        PUBLIC ZDApp_epDesc
        PUBLIC ZDApp_event_loop
        FUNCTION ZDApp_event_loop,0a1203H
        ARGFRAME XSTACK, 0, STACK
        LOCFRAME XSTACK, 18, STACK
        PUBLIC ZDOInitDevice
        FUNCTION ZDOInitDevice,0a1203H
        ARGFRAME XSTACK, 9, STACK
        ARGFRAME IOVERLAY, 0, STATIC
        ARGFRAME DOVERLAY, 0, STATIC
        LOCFRAME XSTACK, 12, STACK
        PUBLIC ZDO_AddrChangeIndicationCB
        FUNCTION ZDO_AddrChangeIndicationCB,0a1203H
        ARGFRAME XSTACK, 0, STACK
        LOCFRAME XSTACK, 14, STACK
        PUBLIC ZDO_ConcentratorIndicationCB
        FUNCTION ZDO_ConcentratorIndicationCB,0203H
        ARGFRAME XSTACK, 0, STACK
        LOCFRAME ISTACK, 1, STACK
        LOCFRAME XSTACK, 14, STACK
        PUBLIC ZDO_DeregisterForZdoCB
        FUNCTION ZDO_DeregisterForZdoCB,0203H
        ARGFRAME XSTACK, 0, STACK
        LOCFRAME ISTACK, 2, STACK
        PUBLIC ZDO_JoinConfirmCB
        FUNCTION ZDO_JoinConfirmCB,0a1203H
        ARGFRAME XSTACK, 0, STACK
        LOCFRAME ISTACK, 1, STACK
        LOCFRAME XSTACK, 17, STACK
        PUBLIC ZDO_JoinIndicationCB
        FUNCTION ZDO_JoinIndicationCB,0a1203H
        ARGFRAME XSTACK, 1, STACK
        LOCFRAME XSTACK, 20, STACK
        PUBLIC ZDO_LeaveCnf
        FUNCTION ZDO_LeaveCnf,0a1203H
        ARGFRAME XSTACK, 0, STACK
        LOCFRAME XSTACK, 10, STACK
        PUBLIC ZDO_LeaveInd
        FUNCTION ZDO_LeaveInd,0a1203H
        ARGFRAME XSTACK, 0, STACK
        LOCFRAME XSTACK, 14, STACK
        PUBLIC ZDO_ManytoOneFailureIndicationCB
        FUNCTION ZDO_ManytoOneFailureIndicationCB,021203H
        ARGFRAME XSTACK, 0, STACK
        LOCFRAME ISTACK, 2, STACK
        PUBLIC ZDO_NetworkDiscoveryConfirmCB
        FUNCTION ZDO_NetworkDiscoveryConfirmCB,021203H
        ARGFRAME XSTACK, 0, STACK
        LOCFRAME ISTACK, 3, STACK
        LOCFRAME XSTACK, 3, STACK
        PUBLIC ZDO_NetworkFormationConfirmCB
        FUNCTION ZDO_NetworkFormationConfirmCB,021203H
        ARGFRAME XSTACK, 0, STACK
        LOCFRAME XSTACK, 9, STACK
        PUBLIC ZDO_NetworkStatusCB
        FUNCTION ZDO_NetworkStatusCB,021203H
        ARGFRAME XSTACK, 0, STACK
        LOCFRAME ISTACK, 2, STACK
        PUBLIC ZDO_PermitJoinCB
        FUNCTION ZDO_PermitJoinCB,0203H
        ARGFRAME XSTACK, 0, STACK
        LOCFRAME ISTACK, 3, STACK
        LOCFRAME XSTACK, 1, STACK
        PUBLIC ZDO_PollConfirmCB
        FUNCTION ZDO_PollConfirmCB,0203H
        ARGFRAME XSTACK, 0, STACK
        PUBLIC ZDO_RegisterForZdoCB
        FUNCTION ZDO_RegisterForZdoCB,0203H
        ARGFRAME XSTACK, 0, STACK
        LOCFRAME ISTACK, 2, STACK
        PUBLIC ZDO_SrcRtgIndCB
        FUNCTION ZDO_SrcRtgIndCB,0203H
        ARGFRAME XSTACK, 0, STACK
        LOCFRAME ISTACK, 1, STACK
        LOCFRAME XSTACK, 14, STACK
        PUBLIC ZDO_StartRouterConfirmCB
        FUNCTION ZDO_StartRouterConfirmCB,021203H
        ARGFRAME XSTACK, 0, STACK
        LOCFRAME XSTACK, 9, STACK
        PUBLIC ZDO_SyncIndicationCB
        FUNCTION ZDO_SyncIndicationCB,0a1203H
        ARGFRAME XSTACK, 0, STACK
        LOCFRAME XSTACK, 12, STACK
        PUBLIC ZDO_UpdateDeviceIndication
        FUNCTION ZDO_UpdateDeviceIndication,0203H
        ARGFRAME XSTACK, 0, STACK
        PUBLIC ZDO_UseExtendedPANID
        PUBLIC ZDO_beaconNotifyIndCB
        FUNCTION ZDO_beaconNotifyIndCB,0a1203H
        ARGFRAME XSTACK, 0, STACK
        LOCFRAME ISTACK, 1, STACK
        LOCFRAME XSTACK, 18, STACK
        PUBWEAK __Constant_0
        PUBWEAK __Constant_258
        PUBWEAK __Constant_2710
        PUBWEAK __Constant_3e8
        PUBWEAK __Constant_4e2
        PUBWEAK __Constant_64
        PUBLIC _tmpRejoinState
        PUBLIC continueJoining
        PUBLIC devStartMode
        PUBLIC devState
        PUBLIC nwkStatus
        PUBLIC prevDevState
        PUBLIC retryCnt
        PUBLIC runtimeChannel
        PUBLIC zdappMgmtNwkDiscReqInProgress
        PUBLIC zdappMgmtNwkDiscRspAddr
        PUBLIC zdappMgmtNwkDiscRspTransSeq
        PUBLIC zdappMgmtNwkDiscStartIndex
        PUBLIC zdappMgmtSavedNwkState
        PUBLIC zdoCBFunc
        PUBLIC zdoDiscCounter
        
          CFI Names cfiNames0
          CFI StackFrame CFA_SP SP IDATA
          CFI StackFrame CFA_PSP16 PSP16 XDATA
          CFI StackFrame CFA_XSP16 XSP16 XDATA
          CFI StaticOverlayFrame CFA_IOVERLAY IOVERLAY
          CFI StaticOverlayFrame CFA_DOVERLAY DOVERLAY
          CFI Resource `PSW.CY`:1, `B.BR0`:1, `B.BR1`:1, `B.BR2`:1, `B.BR3`:1
          CFI Resource `B.BR4`:1, `B.BR5`:1, `B.BR6`:1, `B.BR7`:1, `VB.BR8`:1
          CFI Resource `VB.BR9`:1, `VB.BR10`:1, `VB.BR11`:1, `VB.BR12`:1
          CFI Resource `VB.BR13`:1, `VB.BR14`:1, `VB.BR15`:1, VB:8, B:8, A:8
          CFI Resource PSW:8, DPL0:8, DPH0:8, R0:8, R1:8, R2:8, R3:8, R4:8, R5:8
          CFI Resource R6:8, R7:8, V0:8, V1:8, V2:8, V3:8, V4:8, V5:8, V6:8, V7:8
          CFI Resource V8:8, V9:8, V10:8, V11:8, V12:8, V13:8, V14:8, V15:8, SP:8
          CFI Resource PSPH:8, PSPL:8, PSP16:16, XSPH:8, XSPL:8, XSP16:16
          CFI VirtualResource ?RET:24
          CFI Resource ?BRET_EXT:8
          CFI VirtualResource ?RET_HIGH:8, ?RET_LOW:8
          CFI ResourceParts PSP16 PSPH, PSPL
          CFI ResourceParts XSP16 XSPH, XSPL
          CFI ResourceParts ?RET ?BRET_EXT, ?RET_HIGH, ?RET_LOW
          CFI EndNames cfiNames0
        
          CFI Common cfiCommon0 Using cfiNames0
          CFI CodeAlign 1
          CFI DataAlign -1
          CFI ReturnAddress ?RET CODE
          CFI CFA_DOVERLAY Used
          CFI CFA_IOVERLAY Used
          CFI CFA_SP SP+-3
          CFI CFA_PSP16 PSP16+0
          CFI CFA_XSP16 XSP16+0
          CFI `PSW.CY` SameValue
          CFI `B.BR0` SameValue
          CFI `B.BR1` SameValue
          CFI `B.BR2` SameValue
          CFI `B.BR3` SameValue
          CFI `B.BR4` SameValue
          CFI `B.BR5` SameValue
          CFI `B.BR6` SameValue
          CFI `B.BR7` SameValue
          CFI `VB.BR8` SameValue
          CFI `VB.BR9` SameValue
          CFI `VB.BR10` SameValue
          CFI `VB.BR11` SameValue
          CFI `VB.BR12` SameValue
          CFI `VB.BR13` SameValue
          CFI `VB.BR14` SameValue
          CFI `VB.BR15` SameValue
          CFI VB SameValue
          CFI B Undefined
          CFI A Undefined
          CFI PSW SameValue
          CFI DPL0 SameValue
          CFI DPH0 SameValue
          CFI R0 Undefined
          CFI R1 Undefined
          CFI R2 Undefined
          CFI R3 Undefined
          CFI R4 Undefined
          CFI R5 Undefined
          CFI R6 SameValue
          CFI R7 SameValue
          CFI V0 SameValue
          CFI V1 SameValue
          CFI V2 SameValue
          CFI V3 SameValue
          CFI V4 SameValue
          CFI V5 SameValue
          CFI V6 SameValue
          CFI V7 SameValue
          CFI V8 SameValue
          CFI V9 SameValue
          CFI V10 SameValue
          CFI V11 SameValue
          CFI V12 SameValue
          CFI V13 SameValue
          CFI V14 SameValue
          CFI V15 SameValue
          CFI PSPH Undefined
          CFI PSPL Undefined
          CFI XSPH Undefined
          CFI XSPL Undefined
          CFI ?RET Concat
          CFI ?BRET_EXT Frame(CFA_SP, 3)
          CFI ?RET_HIGH Frame(CFA_SP, 2)
          CFI ?RET_LOW Frame(CFA_SP, 1)
          CFI EndCommon cfiCommon0
        
        
          CFI Common cfiCommon1 Using cfiNames0
          CFI CodeAlign 1
          CFI DataAlign -1
          CFI ReturnAddress ?RET CODE
          CFI CFA_DOVERLAY Used
          CFI CFA_IOVERLAY Used
          CFI CFA_SP SP+-2
          CFI CFA_PSP16 PSP16+0
          CFI CFA_XSP16 XSP16+0
          CFI `PSW.CY` SameValue
          CFI `B.BR0` SameValue
          CFI `B.BR1` SameValue
          CFI `B.BR2` SameValue
          CFI `B.BR3` SameValue
          CFI `B.BR4` SameValue
          CFI `B.BR5` SameValue
          CFI `B.BR6` SameValue
          CFI `B.BR7` SameValue
          CFI `VB.BR8` SameValue
          CFI `VB.BR9` SameValue
          CFI `VB.BR10` SameValue
          CFI `VB.BR11` SameValue
          CFI `VB.BR12` SameValue
          CFI `VB.BR13` SameValue
          CFI `VB.BR14` SameValue
          CFI `VB.BR15` SameValue
          CFI VB SameValue
          CFI B SameValue
          CFI A SameValue
          CFI PSW SameValue
          CFI DPL0 SameValue
          CFI DPH0 SameValue
          CFI R0 SameValue
          CFI R1 SameValue
          CFI R2 SameValue
          CFI R3 SameValue
          CFI R4 SameValue
          CFI R5 SameValue
          CFI R6 SameValue
          CFI R7 SameValue
          CFI V0 SameValue
          CFI V1 SameValue
          CFI V2 SameValue
          CFI V3 SameValue
          CFI V4 SameValue
          CFI V5 SameValue
          CFI V6 SameValue
          CFI V7 SameValue
          CFI V8 SameValue
          CFI V9 SameValue
          CFI V10 SameValue
          CFI V11 SameValue
          CFI V12 SameValue
          CFI V13 SameValue
          CFI V14 SameValue
          CFI V15 SameValue
          CFI PSPH Undefined
          CFI PSPL Undefined
          CFI XSPH Undefined
          CFI XSPL Undefined
          CFI ?RET Concat
          CFI ?BRET_EXT SameValue
          CFI ?RET_HIGH Frame(CFA_SP, 2)
          CFI ?RET_LOW Frame(CFA_SP, 1)
          CFI EndCommon cfiCommon1
        
APSME_BindRequest   SYMBOL "APSME_BindRequest"
`??APSME_BindRequest::?relay` SYMBOL "?relay", APSME_BindRequest
APSME_HoldDataRequests SYMBOL "APSME_HoldDataRequests"
`??APSME_HoldDataRequests::?relay` SYMBOL "?relay", APSME_HoldDataRequests
AddrMgrEntryLookupExt SYMBOL "AddrMgrEntryLookupExt"
`??AddrMgrEntryLookupExt::?relay` SYMBOL "?relay", AddrMgrEntryLookupExt
AddrMgrEntryRelease SYMBOL "AddrMgrEntryRelease"
`??AddrMgrEntryRelease::?relay` SYMBOL "?relay", AddrMgrEntryRelease
AddrMgrExtAddrSet   SYMBOL "AddrMgrExtAddrSet"
`??AddrMgrExtAddrSet::?relay` SYMBOL "?relay", AddrMgrExtAddrSet
AssocMakeListOfRfdChild SYMBOL "AssocMakeListOfRfdChild"
`??AssocMakeListOfRfdChild::?relay` SYMBOL "?relay", AssocMakeListOfRfdChild
NLME_GetCoordExtAddr SYMBOL "NLME_GetCoordExtAddr"
`??NLME_GetCoordExtAddr::?relay` SYMBOL "?relay", NLME_GetCoordExtAddr
NLME_GetCoordShortAddr SYMBOL "NLME_GetCoordShortAddr"
`??NLME_GetCoordShortAddr::?relay` SYMBOL "?relay", NLME_GetCoordShortAddr
NLME_GetEnergyThreshold SYMBOL "NLME_GetEnergyThreshold"
`??NLME_GetEnergyThreshold::?relay` SYMBOL "?relay", NLME_GetEnergyThreshold
NLME_GetExtAddr     SYMBOL "NLME_GetExtAddr"
`??NLME_GetExtAddr::?relay` SYMBOL "?relay", NLME_GetExtAddr
NLME_GetShortAddr   SYMBOL "NLME_GetShortAddr"
`??NLME_GetShortAddr::?relay` SYMBOL "?relay", NLME_GetShortAddr
NLME_JoinRequest    SYMBOL "NLME_JoinRequest"
`??NLME_JoinRequest::?relay` SYMBOL "?relay", NLME_JoinRequest
NLME_LeaveRsp       SYMBOL "NLME_LeaveRsp"
`??NLME_LeaveRsp::?relay` SYMBOL "?relay", NLME_LeaveRsp
NLME_NetworkDiscoveryRequest SYMBOL "NLME_NetworkDiscoveryRequest"
`??NLME_NetworkDiscoveryRequest::?relay` SYMBOL "?relay", NLME_NetworkDiscoveryRequest
NLME_NwkDiscTerm    SYMBOL "NLME_NwkDiscTerm"
`??NLME_NwkDiscTerm::?relay` SYMBOL "?relay", NLME_NwkDiscTerm
NLME_ReJoinRequest  SYMBOL "NLME_ReJoinRequest"
`??NLME_ReJoinRequest::?relay` SYMBOL "?relay", NLME_ReJoinRequest
NLME_ReJoinRequestUnsecure SYMBOL "NLME_ReJoinRequestUnsecure"
`??NLME_ReJoinRequestUnsecure::?relay` SYMBOL "?relay", NLME_ReJoinRequestUnsecure
NLME_SendEndDevTimeoutReq SYMBOL "NLME_SendEndDevTimeoutReq"
`??NLME_SendEndDevTimeoutReq::?relay` SYMBOL "?relay", NLME_SendEndDevTimeoutReq
NLME_SetBroadcastFilter SYMBOL "NLME_SetBroadcastFilter"
`??NLME_SetBroadcastFilter::?relay` SYMBOL "?relay", NLME_SetBroadcastFilter
NLME_SetEnergyThreshold SYMBOL "NLME_SetEnergyThreshold"
`??NLME_SetEnergyThreshold::?relay` SYMBOL "?relay", NLME_SetEnergyThreshold
NLME_SetPollRate    SYMBOL "NLME_SetPollRate"
`??NLME_SetPollRate::?relay` SYMBOL "?relay", NLME_SetPollRate
NLME_SetQueuedPollRate SYMBOL "NLME_SetQueuedPollRate"
`??NLME_SetQueuedPollRate::?relay` SYMBOL "?relay", NLME_SetQueuedPollRate
NLME_SetResponseRate SYMBOL "NLME_SetResponseRate"
`??NLME_SetResponseRate::?relay` SYMBOL "?relay", NLME_SetResponseRate
RTG_MTORouteReq     SYMBOL "RTG_MTORouteReq"
`??RTG_MTORouteReq::?relay` SYMBOL "?relay", RTG_MTORouteReq
RTG_RemoveRtgEntry  SYMBOL "RTG_RemoveRtgEntry"
`??RTG_RemoveRtgEntry::?relay` SYMBOL "?relay", RTG_RemoveRtgEntry
SSP_ReadNwkActiveKey SYMBOL "SSP_ReadNwkActiveKey"
`??SSP_ReadNwkActiveKey::?relay` SYMBOL "?relay", SSP_ReadNwkActiveKey
SSP_SwitchNwkKey    SYMBOL "SSP_SwitchNwkKey"
`??SSP_SwitchNwkKey::?relay` SYMBOL "?relay", SSP_SwitchNwkKey
SSP_UpdateNwkKey    SYMBOL "SSP_UpdateNwkKey"
`??SSP_UpdateNwkKey::?relay` SYMBOL "?relay", SSP_UpdateNwkKey
ZDConfig_InitDescriptors SYMBOL "ZDConfig_InitDescriptors"
`??ZDConfig_InitDescriptors::?relay` SYMBOL "?relay", ZDConfig_InitDescriptors
ZDO_Init            SYMBOL "ZDO_Init"
`??ZDO_Init::?relay` SYMBOL "?relay", ZDO_Init
ZDO_ParseAddrRsp    SYMBOL "ZDO_ParseAddrRsp"
`??ZDO_ParseAddrRsp::?relay` SYMBOL "?relay", ZDO_ParseAddrRsp
ZDO_ParseBindUnbindReq SYMBOL "ZDO_ParseBindUnbindReq"
`??ZDO_ParseBindUnbindReq::?relay` SYMBOL "?relay", ZDO_ParseBindUnbindReq
ZDO_ProcessBindUnbindReq SYMBOL "ZDO_ProcessBindUnbindReq"
`??ZDO_ProcessBindUnbindReq::?relay` SYMBOL "?relay", ZDO_ProcessBindUnbindReq
ZDO_RegisterForZDOMsg SYMBOL "ZDO_RegisterForZDOMsg"
`??ZDO_RegisterForZDOMsg::?relay` SYMBOL "?relay", ZDO_RegisterForZDOMsg
ZDO_StartDevice     SYMBOL "ZDO_StartDevice"
`??ZDO_StartDevice::?relay` SYMBOL "?relay", ZDO_StartDevice
ZDO_UpdateAddrManager SYMBOL "ZDO_UpdateAddrManager"
`??ZDO_UpdateAddrManager::?relay` SYMBOL "?relay", ZDO_UpdateAddrManager
ZDO_UpdateNwkStatus SYMBOL "ZDO_UpdateNwkStatus"
`??ZDO_UpdateNwkStatus::?relay` SYMBOL "?relay", ZDO_UpdateNwkStatus
ZDP_DeviceAnnce     SYMBOL "ZDP_DeviceAnnce"
`??ZDP_DeviceAnnce::?relay` SYMBOL "?relay", ZDP_DeviceAnnce
ZDP_GenericRsp      SYMBOL "ZDP_GenericRsp"
`??ZDP_GenericRsp::?relay` SYMBOL "?relay", ZDP_GenericRsp
ZDP_IncomingData    SYMBOL "ZDP_IncomingData"
`??ZDP_IncomingData::?relay` SYMBOL "?relay", ZDP_IncomingData
ZDP_ParentAnnce     SYMBOL "ZDP_ParentAnnce"
`??ZDP_ParentAnnce::?relay` SYMBOL "?relay", ZDP_ParentAnnce
ZDP_SendData        SYMBOL "ZDP_SendData"
`??ZDP_SendData::?relay` SYMBOL "?relay", ZDP_SendData
ZDSecMgrAddrClear   SYMBOL "ZDSecMgrAddrClear"
`??ZDSecMgrAddrClear::?relay` SYMBOL "?relay", ZDSecMgrAddrClear
ZDSecMgrDeviceRemoveByExtAddr SYMBOL "ZDSecMgrDeviceRemoveByExtAddr"
`??ZDSecMgrDeviceRemoveByExtAddr::?relay` SYMBOL "?relay", ZDSecMgrDeviceRemoveByExtAddr
ZDSecMgrInit        SYMBOL "ZDSecMgrInit"
`??ZDSecMgrInit::?relay` SYMBOL "?relay", ZDSecMgrInit
ZDSecMgrReadKeyFromNv SYMBOL "ZDSecMgrReadKeyFromNv"
`??ZDSecMgrReadKeyFromNv::?relay` SYMBOL "?relay", ZDSecMgrReadKeyFromNv
ZDSecMgrSaveTCLinkKey SYMBOL "ZDSecMgrSaveTCLinkKey"
`??ZDSecMgrSaveTCLinkKey::?relay` SYMBOL "?relay", ZDSecMgrSaveTCLinkKey
ZDSecMgrSwitchKeyInd SYMBOL "ZDSecMgrSwitchKeyInd"
`??ZDSecMgrSwitchKeyInd::?relay` SYMBOL "?relay", ZDSecMgrSwitchKeyInd
ZDSecMgrTransportKeyInd SYMBOL "ZDSecMgrTransportKeyInd"
`??ZDSecMgrTransportKeyInd::?relay` SYMBOL "?relay", ZDSecMgrTransportKeyInd
ZMacSetReq          SYMBOL "ZMacSetReq"
`??ZMacSetReq::?relay` SYMBOL "?relay", ZMacSetReq
afRegister          SYMBOL "afRegister"
`??afRegister::?relay` SYMBOL "?relay", afRegister
afSetMatch          SYMBOL "afSetMatch"
`??afSetMatch::?relay` SYMBOL "?relay", afSetMatch
nwkNeighborFindEmptySlot SYMBOL "nwkNeighborFindEmptySlot"
`??nwkNeighborFindEmptySlot::?relay` SYMBOL "?relay", nwkNeighborFindEmptySlot
nwkNeighborInitTable SYMBOL "nwkNeighborInitTable"
`??nwkNeighborInitTable::?relay` SYMBOL "?relay", nwkNeighborInitTable
nwkNeighborRemove   SYMBOL "nwkNeighborRemove"
`??nwkNeighborRemove::?relay` SYMBOL "?relay", nwkNeighborRemove
nwk_ExtPANIDValid   SYMBOL "nwk_ExtPANIDValid"
`??nwk_ExtPANIDValid::?relay` SYMBOL "?relay", nwk_ExtPANIDValid
nwk_desc_list_free  SYMBOL "nwk_desc_list_free"
`??nwk_desc_list_free::?relay` SYMBOL "?relay", nwk_desc_list_free
nwk_getNwkDescList  SYMBOL "nwk_getNwkDescList"
`??nwk_getNwkDescList::?relay` SYMBOL "?relay", nwk_getNwkDescList
osal_clear_event    SYMBOL "osal_clear_event"
`??osal_clear_event::?relay` SYMBOL "?relay", osal_clear_event
osal_get_timeoutEx  SYMBOL "osal_get_timeoutEx"
`??osal_get_timeoutEx::?relay` SYMBOL "?relay", osal_get_timeoutEx
osal_mem_alloc      SYMBOL "osal_mem_alloc"
`??osal_mem_alloc::?relay` SYMBOL "?relay", osal_mem_alloc
osal_mem_free       SYMBOL "osal_mem_free"
`??osal_mem_free::?relay` SYMBOL "?relay", osal_mem_free
osal_memcmp         SYMBOL "osal_memcmp"
`??osal_memcmp::?relay` SYMBOL "?relay", osal_memcmp
osal_memcpy         SYMBOL "osal_memcpy"
`??osal_memcpy::?relay` SYMBOL "?relay", osal_memcpy
osal_memset         SYMBOL "osal_memset"
`??osal_memset::?relay` SYMBOL "?relay", osal_memset
osal_msg_allocate   SYMBOL "osal_msg_allocate"
`??osal_msg_allocate::?relay` SYMBOL "?relay", osal_msg_allocate
osal_msg_deallocate SYMBOL "osal_msg_deallocate"
`??osal_msg_deallocate::?relay` SYMBOL "?relay", osal_msg_deallocate
osal_msg_receive    SYMBOL "osal_msg_receive"
`??osal_msg_receive::?relay` SYMBOL "?relay", osal_msg_receive
osal_msg_send       SYMBOL "osal_msg_send"
`??osal_msg_send::?relay` SYMBOL "?relay", osal_msg_send
osal_nv_item_init   SYMBOL "osal_nv_item_init"
`??osal_nv_item_init::?relay` SYMBOL "?relay", osal_nv_item_init
osal_nv_read        SYMBOL "osal_nv_read"
`??osal_nv_read::?relay` SYMBOL "?relay", osal_nv_read
osal_nv_write       SYMBOL "osal_nv_write"
`??osal_nv_write::?relay` SYMBOL "?relay", osal_nv_write
osal_pwrmgr_device  SYMBOL "osal_pwrmgr_device"
`??osal_pwrmgr_device::?relay` SYMBOL "?relay", osal_pwrmgr_device
osal_rand           SYMBOL "osal_rand"
`??osal_rand::?relay` SYMBOL "?relay", osal_rand
osal_set_event      SYMBOL "osal_set_event"
`??osal_set_event::?relay` SYMBOL "?relay", osal_set_event
osal_start_timerEx  SYMBOL "osal_start_timerEx"
`??osal_start_timerEx::?relay` SYMBOL "?relay", osal_start_timerEx
osal_stop_timerEx   SYMBOL "osal_stop_timerEx"
`??osal_stop_timerEx::?relay` SYMBOL "?relay", osal_stop_timerEx
sAddrExtCmp         SYMBOL "sAddrExtCmp"
`??sAddrExtCmp::?relay` SYMBOL "?relay", sAddrExtCmp
sAddrExtCpy         SYMBOL "sAddrExtCpy"
`??sAddrExtCpy::?relay` SYMBOL "?relay", sAddrExtCpy
zgInitItems         SYMBOL "zgInitItems"
`??zgInitItems::?relay` SYMBOL "?relay", zgInitItems
zgReadStartupOptions SYMBOL "zgReadStartupOptions"
`??zgReadStartupOptions::?relay` SYMBOL "?relay", zgReadStartupOptions
zgWriteStartupOptions SYMBOL "zgWriteStartupOptions"
`??zgWriteStartupOptions::?relay` SYMBOL "?relay", zgWriteStartupOptions
AddrMgrWriteNVRequest SYMBOL "AddrMgrWriteNVRequest"
`??AddrMgrWriteNVRequest::?relay` SYMBOL "?relay", AddrMgrWriteNVRequest
ZDAppCheckForHoldKey SYMBOL "ZDAppCheckForHoldKey"
`??ZDAppCheckForHoldKey::?relay` SYMBOL "?relay", ZDAppCheckForHoldKey
ZDAppDetermineDeviceType SYMBOL "ZDAppDetermineDeviceType"
`??ZDAppDetermineDeviceType::?relay` SYMBOL "?relay", ZDAppDetermineDeviceType
ZDApp_AgeOutPendingBindEntry SYMBOL "ZDApp_AgeOutPendingBindEntry"
`??ZDApp_AgeOutPendingBindEntry::?relay` SYMBOL "?relay", ZDApp_AgeOutPendingBindEntry
ZDApp_AnnounceNewAddress SYMBOL "ZDApp_AnnounceNewAddress"
`??ZDApp_AnnounceNewAddress::?relay` SYMBOL "?relay", ZDApp_AnnounceNewAddress
ZDApp_ChangeMatchDescRespPermission SYMBOL "ZDApp_ChangeMatchDescRespPermission"
`??ZDApp_ChangeMatchDescRespPermission::?relay` SYMBOL "?relay", ZDApp_ChangeMatchDescRespPermission
ZDApp_ChangeState   SYMBOL "ZDApp_ChangeState"
`??ZDApp_ChangeState::?relay` SYMBOL "?relay", ZDApp_ChangeState
ZDApp_CoordStartPANIDConflictCB SYMBOL "ZDApp_CoordStartPANIDConflictCB"
`??ZDApp_CoordStartPANIDConflictCB::?relay` SYMBOL "?relay", ZDApp_CoordStartPANIDConflictCB
ZDApp_DeviceAuthEvt SYMBOL "ZDApp_DeviceAuthEvt"
`??ZDApp_DeviceAuthEvt::?relay` SYMBOL "?relay", ZDApp_DeviceAuthEvt
ZDApp_DeviceConfigured SYMBOL "ZDApp_DeviceConfigured"
`??ZDApp_DeviceConfigured::?relay` SYMBOL "?relay", ZDApp_DeviceConfigured
ZDApp_ForceConcentratorChange SYMBOL "ZDApp_ForceConcentratorChange"
`??ZDApp_ForceConcentratorChange::?relay` SYMBOL "?relay", ZDApp_ForceConcentratorChange
ZDApp_GetEmptyPendingBindReq SYMBOL "ZDApp_GetEmptyPendingBindReq"
`??ZDApp_GetEmptyPendingBindReq::?relay` SYMBOL "?relay", ZDApp_GetEmptyPendingBindReq
ZDApp_InMsgCB       SYMBOL "ZDApp_InMsgCB"
`??ZDApp_InMsgCB::?relay` SYMBOL "?relay", ZDApp_InMsgCB
ZDApp_Init          SYMBOL "ZDApp_Init"
`??ZDApp_Init::?relay` SYMBOL "?relay", ZDApp_Init
ZDApp_InitPendingBind SYMBOL "ZDApp_InitPendingBind"
`??ZDApp_InitPendingBind::?relay` SYMBOL "?relay", ZDApp_InitPendingBind
ZDApp_InitUserDesc  SYMBOL "ZDApp_InitUserDesc"
`??ZDApp_InitUserDesc::?relay` SYMBOL "?relay", ZDApp_InitUserDesc
ZDApp_InitZdoCBFunc SYMBOL "ZDApp_InitZdoCBFunc"
`??ZDApp_InitZdoCBFunc::?relay` SYMBOL "?relay", ZDApp_InitZdoCBFunc
ZDApp_JoinReq       SYMBOL "ZDApp_JoinReq"
`??ZDApp_JoinReq::?relay` SYMBOL "?relay", ZDApp_JoinReq
ZDApp_LeaveCtrlBypass SYMBOL "ZDApp_LeaveCtrlBypass"
`??ZDApp_LeaveCtrlBypass::?relay` SYMBOL "?relay", ZDApp_LeaveCtrlBypass
ZDApp_LeaveCtrlInit SYMBOL "ZDApp_LeaveCtrlInit"
`??ZDApp_LeaveCtrlInit::?relay` SYMBOL "?relay", ZDApp_LeaveCtrlInit
ZDApp_LeaveCtrlReset SYMBOL "ZDApp_LeaveCtrlReset"
`??ZDApp_LeaveCtrlReset::?relay` SYMBOL "?relay", ZDApp_LeaveCtrlReset
ZDApp_LeaveCtrlSet  SYMBOL "ZDApp_LeaveCtrlSet"
`??ZDApp_LeaveCtrlSet::?relay` SYMBOL "?relay", ZDApp_LeaveCtrlSet
ZDApp_LeaveCtrlStartup SYMBOL "ZDApp_LeaveCtrlStartup"
`??ZDApp_LeaveCtrlStartup::?relay` SYMBOL "?relay", ZDApp_LeaveCtrlStartup
ZDApp_LeaveReset    SYMBOL "ZDApp_LeaveReset"
`??ZDApp_LeaveReset::?relay` SYMBOL "?relay", ZDApp_LeaveReset
ZDApp_LeaveUpdate   SYMBOL "ZDApp_LeaveUpdate"
`??ZDApp_LeaveUpdate::?relay` SYMBOL "?relay", ZDApp_LeaveUpdate
ZDApp_NVUpdate      SYMBOL "ZDApp_NVUpdate"
`??ZDApp_NVUpdate::?relay` SYMBOL "?relay", ZDApp_NVUpdate
ZDApp_NetworkDiscoveryReq SYMBOL "ZDApp_NetworkDiscoveryReq"
`??ZDApp_NetworkDiscoveryReq::?relay` SYMBOL "?relay", ZDApp_NetworkDiscoveryReq
ZDApp_NetworkInit   SYMBOL "ZDApp_NetworkInit"
`??ZDApp_NetworkInit::?relay` SYMBOL "?relay", ZDApp_NetworkInit
ZDApp_NetworkStartEvt SYMBOL "ZDApp_NetworkStartEvt"
`??ZDApp_NetworkStartEvt::?relay` SYMBOL "?relay", ZDApp_NetworkStartEvt
ZDApp_NodeProfileSync SYMBOL "ZDApp_NodeProfileSync"
`??ZDApp_NodeProfileSync::?relay` SYMBOL "?relay", ZDApp_NodeProfileSync
ZDApp_NwkDescListProcessing SYMBOL "ZDApp_NwkDescListProcessing"
`??ZDApp_NwkDescListProcessing::?relay` SYMBOL "?relay", ZDApp_NwkDescListProcessing
ZDApp_NwkStateUpdateCB SYMBOL "ZDApp_NwkStateUpdateCB"
`??ZDApp_NwkStateUpdateCB::?relay` SYMBOL "?relay", ZDApp_NwkStateUpdateCB
ZDApp_ProcessMsgCBs SYMBOL "ZDApp_ProcessMsgCBs"
`??ZDApp_ProcessMsgCBs::?relay` SYMBOL "?relay", ZDApp_ProcessMsgCBs
ZDApp_ProcessNetworkJoin SYMBOL "ZDApp_ProcessNetworkJoin"
`??ZDApp_ProcessNetworkJoin::?relay` SYMBOL "?relay", ZDApp_ProcessNetworkJoin
ZDApp_ProcessOSALMsg SYMBOL "ZDApp_ProcessOSALMsg"
`??ZDApp_ProcessOSALMsg::?relay` SYMBOL "?relay", ZDApp_ProcessOSALMsg
ZDApp_ProcessPendingBindReq SYMBOL "ZDApp_ProcessPendingBindReq"
`??ZDApp_ProcessPendingBindReq::?relay` SYMBOL "?relay", ZDApp_ProcessPendingBindReq
ZDApp_ProcessSecEvent SYMBOL "ZDApp_ProcessSecEvent"
`??ZDApp_ProcessSecEvent::?relay` SYMBOL "?relay", ZDApp_ProcessSecEvent
ZDApp_ProcessSecMsg SYMBOL "ZDApp_ProcessSecMsg"
`??ZDApp_ProcessSecMsg::?relay` SYMBOL "?relay", ZDApp_ProcessSecMsg
ZDApp_ReadNetworkRestoreState SYMBOL "ZDApp_ReadNetworkRestoreState"
`??ZDApp_ReadNetworkRestoreState::?relay` SYMBOL "?relay", ZDApp_ReadNetworkRestoreState
ZDApp_RegisterCBs   SYMBOL "ZDApp_RegisterCBs"
`??ZDApp_RegisterCBs::?relay` SYMBOL "?relay", ZDApp_RegisterCBs
ZDApp_ResetNwkKey   SYMBOL "ZDApp_ResetNwkKey"
`??ZDApp_ResetNwkKey::?relay` SYMBOL "?relay", ZDApp_ResetNwkKey
ZDApp_ResetTimerCancel SYMBOL "ZDApp_ResetTimerCancel"
`??ZDApp_ResetTimerCancel::?relay` SYMBOL "?relay", ZDApp_ResetTimerCancel
ZDApp_ResetTimerStart SYMBOL "ZDApp_ResetTimerStart"
`??ZDApp_ResetTimerStart::?relay` SYMBOL "?relay", ZDApp_ResetTimerStart
ZDApp_RestoreNwkKey SYMBOL "ZDApp_RestoreNwkKey"
`??ZDApp_RestoreNwkKey::?relay` SYMBOL "?relay", ZDApp_RestoreNwkKey
ZDApp_SaveNetworkStateEvt SYMBOL "ZDApp_SaveNetworkStateEvt"
`??ZDApp_SaveNetworkStateEvt::?relay` SYMBOL "?relay", ZDApp_SaveNetworkStateEvt
ZDApp_SaveNwkKey    SYMBOL "ZDApp_SaveNwkKey"
`??ZDApp_SaveNwkKey::?relay` SYMBOL "?relay", ZDApp_SaveNwkKey
ZDApp_SecInit       SYMBOL "ZDApp_SecInit"
`??ZDApp_SecInit::?relay` SYMBOL "?relay", ZDApp_SecInit
ZDApp_SendEventMsg  SYMBOL "ZDApp_SendEventMsg"
`??ZDApp_SendEventMsg::?relay` SYMBOL "?relay", ZDApp_SendEventMsg
ZDApp_SendMsg       SYMBOL "ZDApp_SendMsg"
`??ZDApp_SendMsg::?relay` SYMBOL "?relay", ZDApp_SendMsg
ZDApp_SendParentAnnce SYMBOL "ZDApp_SendParentAnnce"
`??ZDApp_SendParentAnnce::?relay` SYMBOL "?relay", ZDApp_SendParentAnnce
ZDApp_SetParentAnnceTimer SYMBOL "ZDApp_SetParentAnnceTimer"
`??ZDApp_SetParentAnnceTimer::?relay` SYMBOL "?relay", ZDApp_SetParentAnnceTimer
ZDApp_SetPendingBindDefault SYMBOL "ZDApp_SetPendingBindDefault"
`??ZDApp_SetPendingBindDefault::?relay` SYMBOL "?relay", ZDApp_SetPendingBindDefault
ZDApp_SetRejoinBackoffDuration SYMBOL "ZDApp_SetRejoinBackoffDuration"
`??ZDApp_SetRejoinBackoffDuration::?relay` SYMBOL "?relay", ZDApp_SetRejoinBackoffDuration
ZDApp_SetRejoinScanDuration SYMBOL "ZDApp_SetRejoinScanDuration"
`??ZDApp_SetRejoinScanDuration::?relay` SYMBOL "?relay", ZDApp_SetRejoinScanDuration
ZDApp_StartJoiningCycle SYMBOL "ZDApp_StartJoiningCycle"
`??ZDApp_StartJoiningCycle::?relay` SYMBOL "?relay", ZDApp_StartJoiningCycle
ZDApp_StopJoiningCycle SYMBOL "ZDApp_StopJoiningCycle"
`??ZDApp_StopJoiningCycle::?relay` SYMBOL "?relay", ZDApp_StopJoiningCycle
ZDApp_event_loop    SYMBOL "ZDApp_event_loop"
`??ZDApp_event_loop::?relay` SYMBOL "?relay", ZDApp_event_loop
ZDOInitDevice       SYMBOL "ZDOInitDevice"
`??ZDOInitDevice::?relay` SYMBOL "?relay", ZDOInitDevice
ZDO_AddrChangeIndicationCB SYMBOL "ZDO_AddrChangeIndicationCB"
`??ZDO_AddrChangeIndicationCB::?relay` SYMBOL "?relay", ZDO_AddrChangeIndicationCB
ZDO_ConcentratorIndicationCB SYMBOL "ZDO_ConcentratorIndicationCB"
`??ZDO_ConcentratorIndicationCB::?relay` SYMBOL "?relay", ZDO_ConcentratorIndicationCB
ZDO_DeregisterForZdoCB SYMBOL "ZDO_DeregisterForZdoCB"
`??ZDO_DeregisterForZdoCB::?relay` SYMBOL "?relay", ZDO_DeregisterForZdoCB
ZDO_JoinConfirmCB   SYMBOL "ZDO_JoinConfirmCB"
`??ZDO_JoinConfirmCB::?relay` SYMBOL "?relay", ZDO_JoinConfirmCB
ZDO_JoinIndicationCB SYMBOL "ZDO_JoinIndicationCB"
`??ZDO_JoinIndicationCB::?relay` SYMBOL "?relay", ZDO_JoinIndicationCB
ZDO_LeaveCnf        SYMBOL "ZDO_LeaveCnf"
`??ZDO_LeaveCnf::?relay` SYMBOL "?relay", ZDO_LeaveCnf
ZDO_LeaveInd        SYMBOL "ZDO_LeaveInd"
`??ZDO_LeaveInd::?relay` SYMBOL "?relay", ZDO_LeaveInd
ZDO_ManytoOneFailureIndicationCB SYMBOL "ZDO_ManytoOneFailureIndicationCB"
`??ZDO_ManytoOneFailureIndicationCB::?relay` SYMBOL "?relay", ZDO_ManytoOneFailureIndicationCB
ZDO_NetworkDiscoveryConfirmCB SYMBOL "ZDO_NetworkDiscoveryConfirmCB"
`??ZDO_NetworkDiscoveryConfirmCB::?relay` SYMBOL "?relay", ZDO_NetworkDiscoveryConfirmCB
ZDO_NetworkFormationConfirmCB SYMBOL "ZDO_NetworkFormationConfirmCB"
`??ZDO_NetworkFormationConfirmCB::?relay` SYMBOL "?relay", ZDO_NetworkFormationConfirmCB
ZDO_NetworkStatusCB SYMBOL "ZDO_NetworkStatusCB"
`??ZDO_NetworkStatusCB::?relay` SYMBOL "?relay", ZDO_NetworkStatusCB
ZDO_PermitJoinCB    SYMBOL "ZDO_PermitJoinCB"
`??ZDO_PermitJoinCB::?relay` SYMBOL "?relay", ZDO_PermitJoinCB
ZDO_PollConfirmCB   SYMBOL "ZDO_PollConfirmCB"
`??ZDO_PollConfirmCB::?relay` SYMBOL "?relay", ZDO_PollConfirmCB
ZDO_RegisterForZdoCB SYMBOL "ZDO_RegisterForZdoCB"
`??ZDO_RegisterForZdoCB::?relay` SYMBOL "?relay", ZDO_RegisterForZdoCB
ZDO_SrcRtgIndCB     SYMBOL "ZDO_SrcRtgIndCB"
`??ZDO_SrcRtgIndCB::?relay` SYMBOL "?relay", ZDO_SrcRtgIndCB
ZDO_StartRouterConfirmCB SYMBOL "ZDO_StartRouterConfirmCB"
`??ZDO_StartRouterConfirmCB::?relay` SYMBOL "?relay", ZDO_StartRouterConfirmCB
ZDO_SyncIndicationCB SYMBOL "ZDO_SyncIndicationCB"
`??ZDO_SyncIndicationCB::?relay` SYMBOL "?relay", ZDO_SyncIndicationCB
ZDO_UpdateDeviceIndication SYMBOL "ZDO_UpdateDeviceIndication"
`??ZDO_UpdateDeviceIndication::?relay` SYMBOL "?relay", ZDO_UpdateDeviceIndication
ZDO_beaconNotifyIndCB SYMBOL "ZDO_beaconNotifyIndCB"
`??ZDO_beaconNotifyIndCB::?relay` SYMBOL "?relay", ZDO_beaconNotifyIndCB

        EXTERN `??APSME_BindRequest::?relay`
        FUNCTION `??APSME_BindRequest::?relay`,00H
        EXTERN `??APSME_HoldDataRequests::?relay`
        FUNCTION `??APSME_HoldDataRequests::?relay`,00H
        EXTERN `??AddrMgrEntryLookupExt::?relay`
        FUNCTION `??AddrMgrEntryLookupExt::?relay`,00H
        EXTERN `??AddrMgrEntryRelease::?relay`
        FUNCTION `??AddrMgrEntryRelease::?relay`,00H
        EXTERN `??AddrMgrExtAddrSet::?relay`
        FUNCTION `??AddrMgrExtAddrSet::?relay`,00H
        EXTERN `??AssocMakeListOfRfdChild::?relay`
        FUNCTION `??AssocMakeListOfRfdChild::?relay`,00H
        EXTERN `??NLME_GetCoordExtAddr::?relay`
        FUNCTION `??NLME_GetCoordExtAddr::?relay`,00H
        EXTERN `??NLME_GetCoordShortAddr::?relay`
        FUNCTION `??NLME_GetCoordShortAddr::?relay`,00H
        EXTERN `??NLME_GetEnergyThreshold::?relay`
        FUNCTION `??NLME_GetEnergyThreshold::?relay`,00H
        EXTERN `??NLME_GetExtAddr::?relay`
        FUNCTION `??NLME_GetExtAddr::?relay`,00H
        EXTERN `??NLME_GetShortAddr::?relay`
        FUNCTION `??NLME_GetShortAddr::?relay`,00H
        EXTERN `??NLME_JoinRequest::?relay`
        FUNCTION `??NLME_JoinRequest::?relay`,00H
        EXTERN `??NLME_LeaveRsp::?relay`
        FUNCTION `??NLME_LeaveRsp::?relay`,00H
        EXTERN `??NLME_NetworkDiscoveryRequest::?relay`
        FUNCTION `??NLME_NetworkDiscoveryRequest::?relay`,00H
        EXTERN `??NLME_NwkDiscTerm::?relay`
        FUNCTION `??NLME_NwkDiscTerm::?relay`,00H
        EXTERN `??NLME_ReJoinRequest::?relay`
        FUNCTION `??NLME_ReJoinRequest::?relay`,00H
        EXTERN `??NLME_ReJoinRequestUnsecure::?relay`
        FUNCTION `??NLME_ReJoinRequestUnsecure::?relay`,00H
        EXTERN `??NLME_SendEndDevTimeoutReq::?relay`
        FUNCTION `??NLME_SendEndDevTimeoutReq::?relay`,00H
        EXTERN `??NLME_SetBroadcastFilter::?relay`
        FUNCTION `??NLME_SetBroadcastFilter::?relay`,00H
        EXTERN `??NLME_SetEnergyThreshold::?relay`
        FUNCTION `??NLME_SetEnergyThreshold::?relay`,00H
        EXTERN `??NLME_SetPollRate::?relay`
        FUNCTION `??NLME_SetPollRate::?relay`,00H
        EXTERN `??NLME_SetQueuedPollRate::?relay`
        FUNCTION `??NLME_SetQueuedPollRate::?relay`,00H
        EXTERN `??NLME_SetResponseRate::?relay`
        FUNCTION `??NLME_SetResponseRate::?relay`,00H
        EXTERN `??RTG_MTORouteReq::?relay`
        FUNCTION `??RTG_MTORouteReq::?relay`,00H
        EXTERN `??RTG_RemoveRtgEntry::?relay`
        FUNCTION `??RTG_RemoveRtgEntry::?relay`,00H
        EXTERN `??SSP_ReadNwkActiveKey::?relay`
        FUNCTION `??SSP_ReadNwkActiveKey::?relay`,00H
        EXTERN `??SSP_SwitchNwkKey::?relay`
        FUNCTION `??SSP_SwitchNwkKey::?relay`,00H
        EXTERN `??SSP_UpdateNwkKey::?relay`
        FUNCTION `??SSP_UpdateNwkKey::?relay`,00H
        EXTERN `??ZDConfig_InitDescriptors::?relay`
        FUNCTION `??ZDConfig_InitDescriptors::?relay`,00H
        EXTERN `??ZDO_Init::?relay`
        FUNCTION `??ZDO_Init::?relay`,00H
        EXTERN `??ZDO_ParseAddrRsp::?relay`
        FUNCTION `??ZDO_ParseAddrRsp::?relay`,00H
        EXTERN `??ZDO_ParseBindUnbindReq::?relay`
        FUNCTION `??ZDO_ParseBindUnbindReq::?relay`,00H
        EXTERN `??ZDO_ProcessBindUnbindReq::?relay`
        FUNCTION `??ZDO_ProcessBindUnbindReq::?relay`,00H
        EXTERN `??ZDO_RegisterForZDOMsg::?relay`
        FUNCTION `??ZDO_RegisterForZDOMsg::?relay`,00H
        EXTERN `??ZDO_StartDevice::?relay`
        FUNCTION `??ZDO_StartDevice::?relay`,00H
        EXTERN `??ZDO_UpdateAddrManager::?relay`
        FUNCTION `??ZDO_UpdateAddrManager::?relay`,00H
        EXTERN `??ZDO_UpdateNwkStatus::?relay`
        FUNCTION `??ZDO_UpdateNwkStatus::?relay`,00H
        EXTERN `??ZDP_DeviceAnnce::?relay`
        FUNCTION `??ZDP_DeviceAnnce::?relay`,00H
        EXTERN `??ZDP_GenericRsp::?relay`
        FUNCTION `??ZDP_GenericRsp::?relay`,00H
        EXTERN `??ZDP_IncomingData::?relay`
        FUNCTION `??ZDP_IncomingData::?relay`,00H
        EXTERN `??ZDP_ParentAnnce::?relay`
        FUNCTION `??ZDP_ParentAnnce::?relay`,00H
        EXTERN `??ZDP_SendData::?relay`
        FUNCTION `??ZDP_SendData::?relay`,00H
        EXTERN `??ZDSecMgrAddrClear::?relay`
        FUNCTION `??ZDSecMgrAddrClear::?relay`,00H
        EXTERN `??ZDSecMgrDeviceRemoveByExtAddr::?relay`
        FUNCTION `??ZDSecMgrDeviceRemoveByExtAddr::?relay`,00H
        EXTERN `??ZDSecMgrInit::?relay`
        FUNCTION `??ZDSecMgrInit::?relay`,00H
        EXTERN `??ZDSecMgrReadKeyFromNv::?relay`
        FUNCTION `??ZDSecMgrReadKeyFromNv::?relay`,00H
        EXTERN `??ZDSecMgrSaveTCLinkKey::?relay`
        FUNCTION `??ZDSecMgrSaveTCLinkKey::?relay`,00H
        EXTERN `??ZDSecMgrSwitchKeyInd::?relay`
        FUNCTION `??ZDSecMgrSwitchKeyInd::?relay`,00H
        EXTERN `??ZDSecMgrTransportKeyInd::?relay`
        FUNCTION `??ZDSecMgrTransportKeyInd::?relay`,00H
        EXTERN `??ZMacSetReq::?relay`
        FUNCTION `??ZMacSetReq::?relay`,00H
        EXTERN `??afRegister::?relay`
        FUNCTION `??afRegister::?relay`,00H
        EXTERN `??afSetMatch::?relay`
        FUNCTION `??afSetMatch::?relay`,00H
        EXTERN `??nwkNeighborFindEmptySlot::?relay`
        FUNCTION `??nwkNeighborFindEmptySlot::?relay`,00H
        EXTERN `??nwkNeighborInitTable::?relay`
        FUNCTION `??nwkNeighborInitTable::?relay`,00H
        EXTERN `??nwkNeighborRemove::?relay`
        FUNCTION `??nwkNeighborRemove::?relay`,00H
        EXTERN `??nwk_ExtPANIDValid::?relay`
        FUNCTION `??nwk_ExtPANIDValid::?relay`,00H
        EXTERN `??nwk_desc_list_free::?relay`
        FUNCTION `??nwk_desc_list_free::?relay`,00H
        EXTERN `??nwk_getNwkDescList::?relay`
        FUNCTION `??nwk_getNwkDescList::?relay`,00H
        EXTERN `??osal_clear_event::?relay`
        FUNCTION `??osal_clear_event::?relay`,00H
        EXTERN `??osal_get_timeoutEx::?relay`
        FUNCTION `??osal_get_timeoutEx::?relay`,00H
        EXTERN `??osal_mem_alloc::?relay`
        FUNCTION `??osal_mem_alloc::?relay`,00H
        EXTERN `??osal_mem_free::?relay`
        FUNCTION `??osal_mem_free::?relay`,00H
        EXTERN `??osal_memcmp::?relay`
        FUNCTION `??osal_memcmp::?relay`,00H
        EXTERN `??osal_memcpy::?relay`
        FUNCTION `??osal_memcpy::?relay`,00H
        EXTERN `??osal_memset::?relay`
        FUNCTION `??osal_memset::?relay`,00H
        EXTERN `??osal_msg_allocate::?relay`
        FUNCTION `??osal_msg_allocate::?relay`,00H
        EXTERN `??osal_msg_deallocate::?relay`
        FUNCTION `??osal_msg_deallocate::?relay`,00H
        EXTERN `??osal_msg_receive::?relay`
        FUNCTION `??osal_msg_receive::?relay`,00H
        EXTERN `??osal_msg_send::?relay`
        FUNCTION `??osal_msg_send::?relay`,00H
        EXTERN `??osal_nv_item_init::?relay`
        FUNCTION `??osal_nv_item_init::?relay`,00H
        EXTERN `??osal_nv_read::?relay`
        FUNCTION `??osal_nv_read::?relay`,00H
        EXTERN `??osal_nv_write::?relay`
        FUNCTION `??osal_nv_write::?relay`,00H
        EXTERN `??osal_pwrmgr_device::?relay`
        FUNCTION `??osal_pwrmgr_device::?relay`,00H
        EXTERN `??osal_rand::?relay`
        FUNCTION `??osal_rand::?relay`,00H
        EXTERN `??osal_set_event::?relay`
        FUNCTION `??osal_set_event::?relay`,00H
        EXTERN `??osal_start_timerEx::?relay`
        FUNCTION `??osal_start_timerEx::?relay`,00H
        EXTERN `??osal_stop_timerEx::?relay`
        FUNCTION `??osal_stop_timerEx::?relay`,00H
        EXTERN `??sAddrExtCmp::?relay`
        FUNCTION `??sAddrExtCmp::?relay`,00H
        EXTERN `??sAddrExtCpy::?relay`
        FUNCTION `??sAddrExtCpy::?relay`,00H
        EXTERN `??zgInitItems::?relay`
        FUNCTION `??zgInitItems::?relay`,00H
        EXTERN `??zgReadStartupOptions::?relay`
        FUNCTION `??zgReadStartupOptions::?relay`,00H
        EXTERN `??zgWriteStartupOptions::?relay`
        FUNCTION `??zgWriteStartupOptions::?relay`,00H
        EXTERN AIB_apsUseExtendedPANID
        EXTERN AIB_apsUseInsecureJoin
        EXTERN APSME_BindRequest
        FUNCTION APSME_BindRequest,0202H
        ARGFRAME ISTACK, 0, STACK
        ARGFRAME PSTACK, 0, STACK
        ARGFRAME XSTACK, 17, STACK
        ARGFRAME IOVERLAY, 0, STATIC
        ARGFRAME DOVERLAY, 0, STATIC
        EXTERN APSME_HoldDataRequests
        FUNCTION APSME_HoldDataRequests,0202H
        ARGFRAME ISTACK, 0, STACK
        ARGFRAME PSTACK, 0, STACK
        ARGFRAME XSTACK, 18, STACK
        ARGFRAME IOVERLAY, 0, STATIC
        ARGFRAME DOVERLAY, 0, STATIC
        EXTERN AddrMgrEntryLookupExt
        FUNCTION AddrMgrEntryLookupExt,0202H
        ARGFRAME ISTACK, 0, STACK
        ARGFRAME PSTACK, 0, STACK
        ARGFRAME XSTACK, 26, STACK
        ARGFRAME IOVERLAY, 0, STATIC
        ARGFRAME DOVERLAY, 0, STATIC
        EXTERN AddrMgrEntryRelease
        FUNCTION AddrMgrEntryRelease,0202H
        ARGFRAME ISTACK, 0, STACK
        ARGFRAME PSTACK, 0, STACK
        ARGFRAME XSTACK, 26, STACK
        ARGFRAME IOVERLAY, 0, STATIC
        ARGFRAME DOVERLAY, 0, STATIC
        EXTERN AddrMgrExtAddrSet
        FUNCTION AddrMgrExtAddrSet,0202H
        ARGFRAME ISTACK, 0, STACK
        ARGFRAME PSTACK, 0, STACK
        ARGFRAME XSTACK, 26, STACK
        ARGFRAME IOVERLAY, 0, STATIC
        ARGFRAME DOVERLAY, 0, STATIC
        EXTERN AssocMakeListOfRfdChild
        FUNCTION AssocMakeListOfRfdChild,0202H
        ARGFRAME ISTACK, 0, STACK
        ARGFRAME PSTACK, 0, STACK
        ARGFRAME XSTACK, 22, STACK
        ARGFRAME IOVERLAY, 0, STATIC
        ARGFRAME DOVERLAY, 0, STATIC
        EXTERN NLME_GetCoordExtAddr
        FUNCTION NLME_GetCoordExtAddr,0202H
        ARGFRAME ISTACK, 0, STACK
        ARGFRAME PSTACK, 0, STACK
        ARGFRAME XSTACK, 18, STACK
        ARGFRAME IOVERLAY, 0, STATIC
        ARGFRAME DOVERLAY, 0, STATIC
        EXTERN NLME_GetCoordShortAddr
        FUNCTION NLME_GetCoordShortAddr,0202H
        ARGFRAME ISTACK, 0, STACK
        ARGFRAME PSTACK, 0, STACK
        ARGFRAME XSTACK, 18, STACK
        ARGFRAME IOVERLAY, 0, STATIC
        ARGFRAME DOVERLAY, 0, STATIC
        EXTERN NLME_GetEnergyThreshold
        FUNCTION NLME_GetEnergyThreshold,0202H
        ARGFRAME ISTACK, 2, STACK
        ARGFRAME PSTACK, 0, STACK
        ARGFRAME XSTACK, 0, STACK
        ARGFRAME IOVERLAY, 0, STATIC
        ARGFRAME DOVERLAY, 0, STATIC
        EXTERN NLME_GetExtAddr
        FUNCTION NLME_GetExtAddr,0202H
        ARGFRAME ISTACK, 0, STACK
        ARGFRAME PSTACK, 0, STACK
        ARGFRAME XSTACK, 18, STACK
        ARGFRAME IOVERLAY, 0, STATIC
        ARGFRAME DOVERLAY, 0, STATIC
        EXTERN NLME_GetShortAddr
        FUNCTION NLME_GetShortAddr,0202H
        ARGFRAME ISTACK, 2, STACK
        ARGFRAME PSTACK, 0, STACK
        ARGFRAME XSTACK, 18, STACK
        ARGFRAME IOVERLAY, 0, STATIC
        ARGFRAME DOVERLAY, 0, STATIC
        EXTERN NLME_JoinRequest
        FUNCTION NLME_JoinRequest,0202H
        ARGFRAME ISTACK, 0, STACK
        ARGFRAME PSTACK, 0, STACK
        ARGFRAME XSTACK, 19, STACK
        ARGFRAME IOVERLAY, 0, STATIC
        ARGFRAME DOVERLAY, 0, STATIC
        EXTERN NLME_LeaveRsp
        FUNCTION NLME_LeaveRsp,0202H
        ARGFRAME ISTACK, 0, STACK
        ARGFRAME PSTACK, 0, STACK
        ARGFRAME XSTACK, 14, STACK
        ARGFRAME IOVERLAY, 0, STATIC
        ARGFRAME DOVERLAY, 0, STATIC
        EXTERN NLME_NetworkDiscoveryRequest
        FUNCTION NLME_NetworkDiscoveryRequest,0202H
        ARGFRAME ISTACK, 0, STACK
        ARGFRAME PSTACK, 0, STACK
        ARGFRAME XSTACK, 12, STACK
        ARGFRAME IOVERLAY, 0, STATIC
        ARGFRAME DOVERLAY, 0, STATIC
        EXTERN NLME_NwkDiscTerm
        FUNCTION NLME_NwkDiscTerm,0202H
        ARGFRAME ISTACK, 0, STACK
        ARGFRAME PSTACK, 0, STACK
        ARGFRAME XSTACK, 14, STACK
        ARGFRAME IOVERLAY, 0, STATIC
        ARGFRAME DOVERLAY, 0, STATIC
        EXTERN NLME_ReJoinRequest
        FUNCTION NLME_ReJoinRequest,0202H
        ARGFRAME ISTACK, 0, STACK
        ARGFRAME PSTACK, 0, STACK
        ARGFRAME XSTACK, 15, STACK
        ARGFRAME IOVERLAY, 0, STATIC
        ARGFRAME DOVERLAY, 0, STATIC
        EXTERN NLME_ReJoinRequestUnsecure
        FUNCTION NLME_ReJoinRequestUnsecure,0202H
        ARGFRAME ISTACK, 0, STACK
        ARGFRAME PSTACK, 0, STACK
        ARGFRAME XSTACK, 15, STACK
        ARGFRAME IOVERLAY, 0, STATIC
        ARGFRAME DOVERLAY, 0, STATIC
        EXTERN NLME_SendEndDevTimeoutReq
        FUNCTION NLME_SendEndDevTimeoutReq,0202H
        ARGFRAME ISTACK, 0, STACK
        ARGFRAME PSTACK, 0, STACK
        ARGFRAME XSTACK, 19, STACK
        ARGFRAME IOVERLAY, 0, STATIC
        ARGFRAME DOVERLAY, 0, STATIC
        EXTERN NLME_SetBroadcastFilter
        FUNCTION NLME_SetBroadcastFilter,0202H
        ARGFRAME ISTACK, 0, STACK
        ARGFRAME PSTACK, 0, STACK
        ARGFRAME XSTACK, 12, STACK
        ARGFRAME IOVERLAY, 0, STATIC
        ARGFRAME DOVERLAY, 0, STATIC
        EXTERN NLME_SetEnergyThreshold
        FUNCTION NLME_SetEnergyThreshold,0202H
        ARGFRAME ISTACK, 2, STACK
        ARGFRAME PSTACK, 0, STACK
        ARGFRAME XSTACK, 0, STACK
        ARGFRAME IOVERLAY, 0, STATIC
        ARGFRAME DOVERLAY, 0, STATIC
        EXTERN NLME_SetPollRate
        FUNCTION NLME_SetPollRate,0202H
        ARGFRAME ISTACK, 2, STACK
        ARGFRAME PSTACK, 0, STACK
        ARGFRAME XSTACK, 15, STACK
        ARGFRAME IOVERLAY, 0, STATIC
        ARGFRAME DOVERLAY, 0, STATIC
        EXTERN NLME_SetQueuedPollRate
        FUNCTION NLME_SetQueuedPollRate,0202H
        ARGFRAME ISTACK, 0, STACK
        ARGFRAME PSTACK, 0, STACK
        ARGFRAME XSTACK, 15, STACK
        ARGFRAME IOVERLAY, 0, STATIC
        ARGFRAME DOVERLAY, 0, STATIC
        EXTERN NLME_SetResponseRate
        FUNCTION NLME_SetResponseRate,0202H
        ARGFRAME ISTACK, 0, STACK
        ARGFRAME PSTACK, 0, STACK
        ARGFRAME XSTACK, 15, STACK
        ARGFRAME IOVERLAY, 0, STATIC
        ARGFRAME DOVERLAY, 0, STATIC
        EXTERN NWK_TaskID
        EXTERN NwkDescList
        EXTERN Onboard_soft_reset
        FUNCTION Onboard_soft_reset,0202H
        ARGFRAME ISTACK, 0, STACK
        ARGFRAME PSTACK, 0, STACK
        ARGFRAME XSTACK, 14, STACK
        ARGFRAME IOVERLAY, 0, STATIC
        ARGFRAME DOVERLAY, 0, STATIC
        EXTERN RTG_MTORouteReq
        FUNCTION RTG_MTORouteReq,0202H
        ARGFRAME ISTACK, 2, STACK
        ARGFRAME PSTACK, 0, STACK
        ARGFRAME XSTACK, 0, STACK
        ARGFRAME IOVERLAY, 0, STATIC
        ARGFRAME DOVERLAY, 0, STATIC
        EXTERN RTG_RemoveRtgEntry
        FUNCTION RTG_RemoveRtgEntry,0202H
        ARGFRAME ISTACK, 0, STACK
        ARGFRAME PSTACK, 0, STACK
        ARGFRAME XSTACK, 24, STACK
        ARGFRAME IOVERLAY, 0, STATIC
        ARGFRAME DOVERLAY, 0, STATIC
        EXTERN SSP_ReadNwkActiveKey
        FUNCTION SSP_ReadNwkActiveKey,0202H
        ARGFRAME ISTACK, 0, STACK
        ARGFRAME PSTACK, 0, STACK
        ARGFRAME XSTACK, 31, STACK
        ARGFRAME IOVERLAY, 0, STATIC
        ARGFRAME DOVERLAY, 0, STATIC
        EXTERN SSP_SwitchNwkKey
        FUNCTION SSP_SwitchNwkKey,0202H
        ARGFRAME ISTACK, 0, STACK
        ARGFRAME PSTACK, 0, STACK
        ARGFRAME XSTACK, 25, STACK
        ARGFRAME IOVERLAY, 0, STATIC
        ARGFRAME DOVERLAY, 0, STATIC
        EXTERN SSP_UpdateNwkKey
        FUNCTION SSP_UpdateNwkKey,0202H
        ARGFRAME ISTACK, 0, STACK
        ARGFRAME PSTACK, 0, STACK
        ARGFRAME XSTACK, 25, STACK
        ARGFRAME IOVERLAY, 0, STATIC
        ARGFRAME DOVERLAY, 0, STATIC
        EXTERN ZDConfig_InitDescriptors
        FUNCTION ZDConfig_InitDescriptors,0202H
        ARGFRAME ISTACK, 0, STACK
        ARGFRAME PSTACK, 0, STACK
        ARGFRAME XSTACK, 12, STACK
        ARGFRAME IOVERLAY, 0, STATIC
        ARGFRAME DOVERLAY, 0, STATIC
        EXTERN ZDO_Config_Node_Descriptor
        EXTERN ZDO_Init
        FUNCTION ZDO_Init,0202H
        ARGFRAME ISTACK, 0, STACK
        ARGFRAME PSTACK, 0, STACK
        ARGFRAME XSTACK, 9, STACK
        ARGFRAME IOVERLAY, 0, STATIC
        ARGFRAME DOVERLAY, 0, STATIC
        EXTERN ZDO_ParseAddrRsp
        FUNCTION ZDO_ParseAddrRsp,0202H
        ARGFRAME ISTACK, 0, STACK
        ARGFRAME PSTACK, 0, STACK
        ARGFRAME XSTACK, 35, STACK
        ARGFRAME IOVERLAY, 0, STATIC
        ARGFRAME DOVERLAY, 0, STATIC
        EXTERN ZDO_ParseBindUnbindReq
        FUNCTION ZDO_ParseBindUnbindReq,0202H
        ARGFRAME ISTACK, 0, STACK
        ARGFRAME PSTACK, 0, STACK
        ARGFRAME XSTACK, 35, STACK
        ARGFRAME IOVERLAY, 0, STATIC
        ARGFRAME DOVERLAY, 0, STATIC
        EXTERN ZDO_ProcessBindUnbindReq
        FUNCTION ZDO_ProcessBindUnbindReq,0202H
        ARGFRAME ISTACK, 0, STACK
        ARGFRAME PSTACK, 0, STACK
        ARGFRAME XSTACK, 35, STACK
        ARGFRAME IOVERLAY, 0, STATIC
        ARGFRAME DOVERLAY, 0, STATIC
        EXTERN ZDO_RegisterForZDOMsg
        FUNCTION ZDO_RegisterForZDOMsg,0202H
        ARGFRAME ISTACK, 2, STACK
        ARGFRAME PSTACK, 0, STACK
        ARGFRAME XSTACK, 0, STACK
        ARGFRAME IOVERLAY, 0, STATIC
        ARGFRAME DOVERLAY, 0, STATIC
        EXTERN ZDO_StartDevice
        FUNCTION ZDO_StartDevice,0202H
        ARGFRAME ISTACK, 0, STACK
        ARGFRAME PSTACK, 0, STACK
        ARGFRAME XSTACK, 14, STACK
        ARGFRAME IOVERLAY, 0, STATIC
        ARGFRAME DOVERLAY, 0, STATIC
        EXTERN ZDO_UpdateAddrManager
        FUNCTION ZDO_UpdateAddrManager,0202H
        ARGFRAME ISTACK, 0, STACK
        ARGFRAME PSTACK, 0, STACK
        ARGFRAME XSTACK, 35, STACK
        ARGFRAME IOVERLAY, 0, STATIC
        ARGFRAME DOVERLAY, 0, STATIC
        EXTERN ZDO_UpdateNwkStatus
        FUNCTION ZDO_UpdateNwkStatus,0202H
        ARGFRAME ISTACK, 0, STACK
        ARGFRAME PSTACK, 0, STACK
        ARGFRAME XSTACK, 14, STACK
        ARGFRAME IOVERLAY, 0, STATIC
        ARGFRAME DOVERLAY, 0, STATIC
        EXTERN ZDP_DeviceAnnce
        FUNCTION ZDP_DeviceAnnce,0202H
        ARGFRAME ISTACK, 0, STACK
        ARGFRAME PSTACK, 0, STACK
        ARGFRAME XSTACK, 19, STACK
        ARGFRAME IOVERLAY, 0, STATIC
        ARGFRAME DOVERLAY, 0, STATIC
        EXTERN ZDP_GenericRsp
        FUNCTION ZDP_GenericRsp,0202H
        ARGFRAME ISTACK, 0, STACK
        ARGFRAME PSTACK, 0, STACK
        ARGFRAME XSTACK, 14, STACK
        ARGFRAME IOVERLAY, 0, STATIC
        ARGFRAME DOVERLAY, 0, STATIC
        EXTERN ZDP_IncomingData
        FUNCTION ZDP_IncomingData,0202H
        ARGFRAME ISTACK, 0, STACK
        ARGFRAME PSTACK, 0, STACK
        ARGFRAME XSTACK, 15, STACK
        ARGFRAME IOVERLAY, 0, STATIC
        ARGFRAME DOVERLAY, 0, STATIC
        EXTERN ZDP_ParentAnnce
        FUNCTION ZDP_ParentAnnce,0202H
        ARGFRAME ISTACK, 0, STACK
        ARGFRAME PSTACK, 0, STACK
        ARGFRAME XSTACK, 27, STACK
        ARGFRAME IOVERLAY, 0, STATIC
        ARGFRAME DOVERLAY, 0, STATIC
        EXTERN ZDP_SendData
        FUNCTION ZDP_SendData,0202H
        ARGFRAME ISTACK, 0, STACK
        ARGFRAME PSTACK, 0, STACK
        ARGFRAME XSTACK, 31, STACK
        ARGFRAME IOVERLAY, 0, STATIC
        ARGFRAME DOVERLAY, 0, STATIC
        EXTERN ZDP_TransID
        EXTERN ZDSecMgrAddrClear
        FUNCTION ZDSecMgrAddrClear,0202H
        ARGFRAME ISTACK, 0, STACK
        ARGFRAME PSTACK, 0, STACK
        ARGFRAME XSTACK, 24, STACK
        ARGFRAME IOVERLAY, 0, STATIC
        ARGFRAME DOVERLAY, 0, STATIC
        EXTERN ZDSecMgrDeviceRemoveByExtAddr
        FUNCTION ZDSecMgrDeviceRemoveByExtAddr,0202H
        ARGFRAME ISTACK, 0, STACK
        ARGFRAME PSTACK, 0, STACK
        ARGFRAME XSTACK, 24, STACK
        ARGFRAME IOVERLAY, 0, STATIC
        ARGFRAME DOVERLAY, 0, STATIC
        EXTERN ZDSecMgrInit
        FUNCTION ZDSecMgrInit,0202H
        ARGFRAME ISTACK, 0, STACK
        ARGFRAME PSTACK, 0, STACK
        ARGFRAME XSTACK, 25, STACK
        ARGFRAME IOVERLAY, 0, STATIC
        ARGFRAME DOVERLAY, 0, STATIC
        EXTERN ZDSecMgrReadKeyFromNv
        FUNCTION ZDSecMgrReadKeyFromNv,0202H
        ARGFRAME ISTACK, 0, STACK
        ARGFRAME PSTACK, 0, STACK
        ARGFRAME XSTACK, 25, STACK
        ARGFRAME IOVERLAY, 0, STATIC
        ARGFRAME DOVERLAY, 0, STATIC
        EXTERN ZDSecMgrSaveTCLinkKey
        FUNCTION ZDSecMgrSaveTCLinkKey,0202H
        ARGFRAME ISTACK, 0, STACK
        ARGFRAME PSTACK, 0, STACK
        ARGFRAME XSTACK, 9, STACK
        ARGFRAME IOVERLAY, 0, STATIC
        ARGFRAME DOVERLAY, 0, STATIC
        EXTERN ZDSecMgrSwitchKeyInd
        FUNCTION ZDSecMgrSwitchKeyInd,0202H
        ARGFRAME ISTACK, 2, STACK
        ARGFRAME PSTACK, 0, STACK
        ARGFRAME XSTACK, 0, STACK
        ARGFRAME IOVERLAY, 0, STATIC
        ARGFRAME DOVERLAY, 0, STATIC
        EXTERN ZDSecMgrTransportKeyInd
        FUNCTION ZDSecMgrTransportKeyInd,0202H
        ARGFRAME ISTACK, 2, STACK
        ARGFRAME PSTACK, 0, STACK
        ARGFRAME XSTACK, 0, STACK
        ARGFRAME IOVERLAY, 0, STATIC
        ARGFRAME DOVERLAY, 0, STATIC
        EXTERN ZMacSetReq
        FUNCTION ZMacSetReq,0202H
        ARGFRAME ISTACK, 0, STACK
        ARGFRAME PSTACK, 0, STACK
        ARGFRAME XSTACK, 15, STACK
        ARGFRAME IOVERLAY, 0, STATIC
        ARGFRAME DOVERLAY, 0, STATIC
        EXTERN _NIB
        EXTERN afRegister
        FUNCTION afRegister,0202H
        ARGFRAME ISTACK, 0, STACK
        ARGFRAME PSTACK, 0, STACK
        ARGFRAME XSTACK, 9, STACK
        ARGFRAME IOVERLAY, 0, STATIC
        ARGFRAME DOVERLAY, 0, STATIC
        EXTERN afSetMatch
        FUNCTION afSetMatch,0202H
        ARGFRAME ISTACK, 0, STACK
        ARGFRAME PSTACK, 0, STACK
        ARGFRAME XSTACK, 9, STACK
        ARGFRAME IOVERLAY, 0, STATIC
        ARGFRAME DOVERLAY, 0, STATIC
        EXTERN epList
        EXTERN gLINK_DOWN_TRIGGER
        EXTERN gMIN_TREE_LQI
        EXTERN nwkFrameCounter
        EXTERN nwkFrameCounterChanges
        EXTERN nwkNeighborFindEmptySlot
        FUNCTION nwkNeighborFindEmptySlot,0202H
        ARGFRAME ISTACK, 0, STACK
        ARGFRAME PSTACK, 0, STACK
        ARGFRAME XSTACK, 17, STACK
        ARGFRAME IOVERLAY, 0, STATIC
        ARGFRAME DOVERLAY, 0, STATIC
        EXTERN nwkNeighborInitTable
        FUNCTION nwkNeighborInitTable,0202H
        ARGFRAME ISTACK, 0, STACK
        ARGFRAME PSTACK, 0, STACK
        ARGFRAME XSTACK, 17, STACK
        ARGFRAME IOVERLAY, 0, STATIC
        ARGFRAME DOVERLAY, 0, STATIC
        EXTERN nwkNeighborRemove
        FUNCTION nwkNeighborRemove,0202H
        ARGFRAME ISTACK, 0, STACK
        ARGFRAME PSTACK, 0, STACK
        ARGFRAME XSTACK, 24, STACK
        ARGFRAME IOVERLAY, 0, STATIC
        ARGFRAME DOVERLAY, 0, STATIC
        EXTERN nwk_ExtPANIDValid
        FUNCTION nwk_ExtPANIDValid,0202H
        ARGFRAME ISTACK, 2, STACK
        ARGFRAME PSTACK, 0, STACK
        ARGFRAME XSTACK, 14, STACK
        ARGFRAME IOVERLAY, 0, STATIC
        ARGFRAME DOVERLAY, 0, STATIC
        EXTERN nwk_desc_list_free
        FUNCTION nwk_desc_list_free,0202H
        ARGFRAME ISTACK, 0, STACK
        ARGFRAME PSTACK, 0, STACK
        ARGFRAME XSTACK, 14, STACK
        ARGFRAME IOVERLAY, 0, STATIC
        ARGFRAME DOVERLAY, 0, STATIC
        EXTERN nwk_getNwkDescList
        FUNCTION nwk_getNwkDescList,0202H
        ARGFRAME ISTACK, 0, STACK
        ARGFRAME PSTACK, 0, STACK
        ARGFRAME XSTACK, 14, STACK
        ARGFRAME IOVERLAY, 0, STATIC
        ARGFRAME DOVERLAY, 0, STATIC
        EXTERN osal_clear_event
        FUNCTION osal_clear_event,0202H
        ARGFRAME ISTACK, 2, STACK
        ARGFRAME PSTACK, 0, STACK
        ARGFRAME XSTACK, 0, STACK
        ARGFRAME IOVERLAY, 0, STATIC
        ARGFRAME DOVERLAY, 0, STATIC
        EXTERN osal_get_timeoutEx
        FUNCTION osal_get_timeoutEx,0202H
        ARGFRAME ISTACK, 2, STACK
        ARGFRAME PSTACK, 0, STACK
        ARGFRAME XSTACK, 16, STACK
        ARGFRAME IOVERLAY, 0, STATIC
        ARGFRAME DOVERLAY, 0, STATIC
        EXTERN osal_mem_alloc
        FUNCTION osal_mem_alloc,0202H
        ARGFRAME ISTACK, 0, STACK
        ARGFRAME PSTACK, 0, STACK
        ARGFRAME XSTACK, 18, STACK
        ARGFRAME IOVERLAY, 0, STATIC
        ARGFRAME DOVERLAY, 0, STATIC
        EXTERN osal_mem_free
        FUNCTION osal_mem_free,0202H
        ARGFRAME ISTACK, 0, STACK
        ARGFRAME PSTACK, 0, STACK
        ARGFRAME XSTACK, 35, STACK
        ARGFRAME IOVERLAY, 0, STATIC
        ARGFRAME DOVERLAY, 0, STATIC
        EXTERN osal_memcmp
        FUNCTION osal_memcmp,0202H
        ARGFRAME ISTACK, 0, STACK
        ARGFRAME PSTACK, 0, STACK
        ARGFRAME XSTACK, 52, STACK
        ARGFRAME IOVERLAY, 0, STATIC
        ARGFRAME DOVERLAY, 0, STATIC
        EXTERN osal_memcpy
        FUNCTION osal_memcpy,0202H
        ARGFRAME ISTACK, 0, STACK
        ARGFRAME PSTACK, 0, STACK
        ARGFRAME XSTACK, 27, STACK
        ARGFRAME IOVERLAY, 0, STATIC
        ARGFRAME DOVERLAY, 0, STATIC
        EXTERN osal_memset
        FUNCTION osal_memset,0202H
        ARGFRAME ISTACK, 0, STACK
        ARGFRAME PSTACK, 0, STACK
        ARGFRAME XSTACK, 49, STACK
        ARGFRAME IOVERLAY, 0, STATIC
        ARGFRAME DOVERLAY, 0, STATIC
        EXTERN osal_msg_allocate
        FUNCTION osal_msg_allocate,0202H
        ARGFRAME ISTACK, 0, STACK
        ARGFRAME PSTACK, 0, STACK
        ARGFRAME XSTACK, 19, STACK
        ARGFRAME IOVERLAY, 0, STATIC
        ARGFRAME DOVERLAY, 0, STATIC
        EXTERN osal_msg_deallocate
        FUNCTION osal_msg_deallocate,0202H
        ARGFRAME ISTACK, 0, STACK
        ARGFRAME PSTACK, 0, STACK
        ARGFRAME XSTACK, 14, STACK
        ARGFRAME IOVERLAY, 0, STATIC
        ARGFRAME DOVERLAY, 0, STATIC
        EXTERN osal_msg_receive
        FUNCTION osal_msg_receive,0202H
        ARGFRAME ISTACK, 0, STACK
        ARGFRAME PSTACK, 0, STACK
        ARGFRAME XSTACK, 14, STACK
        ARGFRAME IOVERLAY, 0, STATIC
        ARGFRAME DOVERLAY, 0, STATIC
        EXTERN osal_msg_send
        FUNCTION osal_msg_send,0202H
        ARGFRAME ISTACK, 0, STACK
        ARGFRAME PSTACK, 0, STACK
        ARGFRAME XSTACK, 19, STACK
        ARGFRAME IOVERLAY, 0, STATIC
        ARGFRAME DOVERLAY, 0, STATIC
        EXTERN osal_nv_item_init
        FUNCTION osal_nv_item_init,0202H
        ARGFRAME ISTACK, 0, STACK
        ARGFRAME PSTACK, 0, STACK
        ARGFRAME XSTACK, 29, STACK
        ARGFRAME IOVERLAY, 0, STATIC
        ARGFRAME DOVERLAY, 0, STATIC
        EXTERN osal_nv_read
        FUNCTION osal_nv_read,0202H
        ARGFRAME ISTACK, 0, STACK
        ARGFRAME PSTACK, 0, STACK
        ARGFRAME XSTACK, 53, STACK
        ARGFRAME IOVERLAY, 0, STATIC
        ARGFRAME DOVERLAY, 0, STATIC
        EXTERN osal_nv_write
        FUNCTION osal_nv_write,0202H
        ARGFRAME ISTACK, 0, STACK
        ARGFRAME PSTACK, 0, STACK
        ARGFRAME XSTACK, 53, STACK
        ARGFRAME IOVERLAY, 0, STATIC
        ARGFRAME DOVERLAY, 0, STATIC
        EXTERN osal_pwrmgr_device
        FUNCTION osal_pwrmgr_device,0202H
        ARGFRAME ISTACK, 2, STACK
        ARGFRAME PSTACK, 0, STACK
        ARGFRAME XSTACK, 0, STACK
        ARGFRAME IOVERLAY, 0, STATIC
        ARGFRAME DOVERLAY, 0, STATIC
        EXTERN osal_rand
        FUNCTION osal_rand,0202H
        ARGFRAME ISTACK, 0, STACK
        ARGFRAME PSTACK, 0, STACK
        ARGFRAME XSTACK, 15, STACK
        ARGFRAME IOVERLAY, 0, STATIC
        ARGFRAME DOVERLAY, 0, STATIC
        EXTERN osal_set_event
        FUNCTION osal_set_event,0202H
        ARGFRAME ISTACK, 2, STACK
        ARGFRAME PSTACK, 0, STACK
        ARGFRAME XSTACK, 14, STACK
        ARGFRAME IOVERLAY, 0, STATIC
        ARGFRAME DOVERLAY, 0, STATIC
        EXTERN osal_start_timerEx
        FUNCTION osal_start_timerEx,0202H
        ARGFRAME ISTACK, 0, STACK
        ARGFRAME PSTACK, 0, STACK
        ARGFRAME XSTACK, 30, STACK
        ARGFRAME IOVERLAY, 0, STATIC
        ARGFRAME DOVERLAY, 0, STATIC
        EXTERN osal_stop_timerEx
        FUNCTION osal_stop_timerEx,0202H
        ARGFRAME ISTACK, 2, STACK
        ARGFRAME PSTACK, 0, STACK
        ARGFRAME XSTACK, 26, STACK
        ARGFRAME IOVERLAY, 0, STATIC
        ARGFRAME DOVERLAY, 0, STATIC
        EXTERN pbindRemoveDev
        EXTERN sAddrExtCmp
        FUNCTION sAddrExtCmp,0202H
        ARGFRAME ISTACK, 0, STACK
        ARGFRAME PSTACK, 0, STACK
        ARGFRAME XSTACK, 14, STACK
        ARGFRAME IOVERLAY, 0, STATIC
        ARGFRAME DOVERLAY, 0, STATIC
        EXTERN sAddrExtCpy
        FUNCTION sAddrExtCpy,0202H
        ARGFRAME ISTACK, 0, STACK
        ARGFRAME PSTACK, 0, STACK
        ARGFRAME XSTACK, 18, STACK
        ARGFRAME IOVERLAY, 0, STATIC
        ARGFRAME DOVERLAY, 0, STATIC
        EXTERN savedQueuedPollRate
        EXTERN savedResponseRate
        EXTERN zgChildAgingEnable
        EXTERN zgConcentratorDiscoveryTime
        EXTERN zgConcentratorEnable
        EXTERN zgConfigPANID
        EXTERN zgDefaultChannelList
        EXTERN zgDefaultRejoinBackoff
        EXTERN zgDefaultRejoinScan
        EXTERN zgDefaultStartingScanDuration
        EXTERN zgDeviceLogicalType
        EXTERN zgEndDeviceConfiguration
        EXTERN zgEndDeviceTimeoutValue
        EXTERN zgInitItems
        FUNCTION zgInitItems,0202H
        ARGFRAME ISTACK, 0, STACK
        ARGFRAME PSTACK, 0, STACK
        ARGFRAME XSTACK, 12, STACK
        ARGFRAME IOVERLAY, 0, STATIC
        ARGFRAME DOVERLAY, 0, STATIC
        EXTERN zgPollRate
        EXTERN zgPreConfigKeys
        EXTERN zgQueuedPollRate
        EXTERN zgReadStartupOptions
        FUNCTION zgReadStartupOptions,0202H
        ARGFRAME ISTACK, 0, STACK
        ARGFRAME PSTACK, 0, STACK
        ARGFRAME XSTACK, 9, STACK
        ARGFRAME IOVERLAY, 0, STATIC
        ARGFRAME DOVERLAY, 0, STATIC
        EXTERN zgRejoinPollRate
        EXTERN zgResponsePollRate
        EXTERN zgSecurityMode
        EXTERN zgStackProfile
        EXTERN zgWriteStartupOptions
        FUNCTION zgWriteStartupOptions,0202H
        ARGFRAME ISTACK, 0, STACK
        ARGFRAME PSTACK, 0, STACK
        ARGFRAME XSTACK, 14, STACK
        ARGFRAME IOVERLAY, 0, STATIC
        ARGFRAME DOVERLAY, 0, STATIC

// C:\Users\hhhho\Desktop\Z-Stack1.2.2a-spp-v001-AD -END\Components\stack\zdo\ZDApp.c
//    1 /**************************************************************************************************
//    2   Filename:       ZDApp.c
//    3   Revised:        $Date: 2015-10-06 12:04:24 -0700 (Tue, 06 Oct 2015) $
//    4   Revision:       $Revision: 44520 $
//    5 
//    6   Description:    This file contains the interface to the Zigbee Device Application. This is the
//    7                   Application part that the user can change. This also contains the Task functions.
//    8 
//    9 
//   10   Copyright 2004-2015 Texas Instruments Incorporated. All rights reserved.
//   11 
//   12   IMPORTANT: Your use of this Software is limited to those specific rights
//   13   granted under the terms of a software license agreement between the user
//   14   who downloaded the software, his/her employer (which must be your employer)
//   15   and Texas Instruments Incorporated (the "License"). You may not use this
//   16   Software unless you agree to abide by the terms of the License. The License
//   17   limits your use, and you acknowledge, that the Software may not be modified,
//   18   copied or distributed unless embedded on a Texas Instruments microcontroller
//   19   or used solely and exclusively in conjunction with a Texas Instruments radio
//   20   frequency transceiver, which is integrated into your product. Other than for
//   21   the foregoing purpose, you may not use, reproduce, copy, prepare derivative
//   22   works of, modify, distribute, perform, display or sell this Software and/or
//   23   its documentation for any purpose.
//   24 
//   25   YOU FURTHER ACKNOWLEDGE AND AGREE THAT THE SOFTWARE AND DOCUMENTATION ARE
//   26   PROVIDED "AS IS" WITHOUT WARRANTY OF ANY KIND, EITHER EXPRESS OR IMPLIED,
//   27   INCLUDING WITHOUT LIMITATION, ANY WARRANTY OF MERCHANTABILITY, TITLE,
//   28   NON-INFRINGEMENT AND FITNESS FOR A PARTICULAR PURPOSE. IN NO EVENT SHALL
//   29   TEXAS INSTRUMENTS OR ITS LICENSORS BE LIABLE OR OBLIGATED UNDER CONTRACT,
//   30   NEGLIGENCE, STRICT LIABILITY, CONTRIBUTION, BREACH OF WARRANTY, OR OTHER
//   31   LEGAL EQUITABLE THEORY ANY DIRECT OR INDIRECT DAMAGES OR EXPENSES
//   32   INCLUDING BUT NOT LIMITED TO ANY INCIDENTAL, SPECIAL, INDIRECT, PUNITIVE
//   33   OR CONSEQUENTIAL DAMAGES, LOST PROFITS OR LOST DATA, COST OF PROCUREMENT
//   34   OF SUBSTITUTE GOODS, TECHNOLOGY, SERVICES, OR ANY CLAIMS BY THIRD PARTIES
//   35   (INCLUDING BUT NOT LIMITED TO ANY DEFENSE THEREOF), OR OTHER SIMILAR COSTS.
//   36 
//   37   Should you have any questions regarding your right to use this Software,
//   38   contact Texas Instruments Incorporated at www.TI.com.
//   39 **************************************************************************************************/
//   40 
//   41 /*********************************************************************
//   42  * INCLUDES
//   43  */
//   44 
//   45 #include "ZComDef.h"
//   46 #include "ZMAC.h"
//   47 #include "OSAL.h"
//   48 #include "OSAL_Tasks.h"
//   49 #include "OSAL_PwrMgr.h"
//   50 #include "OSAL_Nv.h"
//   51 #include "AF.h"
//   52 #include "APSMEDE.h"
//   53 #include "NLMEDE.h"
//   54 #include "AddrMgr.h"
//   55 #include "ZDProfile.h"
//   56 #include "ZDObject.h"
//   57 #include "ZDConfig.h"
//   58 #include "ZDSecMgr.h"
//   59 #include "ZDApp.h"
//   60 #include "DebugTrace.h"
//   61 #include "nwk_util.h"
//   62 #include "OnBoard.h"
//   63 #include "ZGlobals.h"
//   64 #include "ZDNwkMgr.h"
//   65 #include "rtg.h"
//   66 
//   67 #include "ssp.h"
//   68 
//   69 /* HAL */
//   70 #include "hal_led.h"
//   71 #include "hal_lcd.h"
//   72 #include "hal_key.h"
//   73 
//   74 #if defined( MT_MAC_FUNC ) || defined( MT_MAC_CB_FUNC )
//   75   #error "ERROR! MT_MAC functionalities should be disabled on ZDO devices"
//   76 #endif
//   77 
//   78 /*********************************************************************
//   79  * CONSTANTS
//   80  */
//   81 
//   82 #if !defined( NWK_START_DELAY )
//   83   #define NWK_START_DELAY             100   // in milliseconds
//   84 #endif
//   85 
//   86 #if !defined( LEAVE_RESET_DELAY )
//   87   #define LEAVE_RESET_DELAY           5000  // in milliseconds
//   88 #endif
//   89 
//   90 // Init ZDO, but hold and wait for application to start the joining or
//   91 // forming network
//   92 #define ZDO_INIT_HOLD_NWK_START       0xFFFF
//   93 
//   94 #if !defined( EXTENDED_JOINING_RANDOM_MASK )
//   95   #define EXTENDED_JOINING_RANDOM_MASK 0x007F
//   96 #endif
//   97 
//   98 #if !defined( BEACON_REQUEST_DELAY )
//   99   #define BEACON_REQUEST_DELAY        100   // in milliseconds
//  100 #endif
//  101 
//  102 #if !defined( BEACON_REQ_DELAY_MASK )
//  103   #define BEACON_REQ_DELAY_MASK       0x007F
//  104 #endif
//  105 
//  106 #define MAX_RESUME_RETRY            3
//  107 
//  108 #define MAX_DEVICE_UNAUTH_TIMEOUT   10000  // 10 seconds
//  109 
//  110 // Beacon Order Settings (see NLMEDE.h)
//  111 #define DEFAULT_BEACON_ORDER        BEACON_ORDER_NO_BEACONS
//  112 #define DEFAULT_SUPERFRAME_ORDER    DEFAULT_BEACON_ORDER
//  113 
//  114 #if !defined( NWK_FRAMECOUNTER_CHANGES_RESTORE_DELTA )
//  115 // Additional counts to add to the frame counter when restoring from NV
//  116 // This amount is in addition to MAX_NWK_FRAMECOUNTER_CHANGES
//  117 #define NWK_FRAMECOUNTER_CHANGES_RESTORE_DELTA    250
//  118 #endif
//  119 
//  120 // Leave control bits
//  121 #define ZDAPP_LEAVE_CTRL_INIT 0
//  122 #define ZDAPP_LEAVE_CTRL_SET  1
//  123 #define ZDAPP_LEAVE_CTRL_RA   2
//  124 
//  125 // Address Manager Stub Implementation
//  126 #define ZDApp_NwkWriteNVRequest AddrMgrWriteNVRequest
//  127 
//  128 
//  129 #if !defined ZDO_NV_SAVE_RFDs
//  130 #define ZDO_NV_SAVE_RFDs  TRUE
//  131 #endif
//  132 
//  133 // Delay time before updating NWK NV data to force fewer writes during high activity.
//  134 #if ZDO_NV_SAVE_RFDs
//  135 #define ZDAPP_UPDATE_NWK_NV_TIME 700
//  136 #else
//  137 #define ZDAPP_UPDATE_NWK_NV_TIME 65000
//  138 #endif
//  139 
//  140 // Timeout value to process New Devices
//  141 #define ZDAPP_NEW_DEVICE_TIME     600   // in ms
//  142 
//  143 #if !defined ( ZDP_BIND_SKIP_VALIDATION )
//  144 #if !defined MAX_PENDING_BIND_REQ
//  145 #define MAX_PENDING_BIND_REQ 3
//  146 #endif
//  147 #endif
//  148 
//  149 /******************************************************************************
//  150  * TYPEDEFS
//  151  */
//  152 typedef struct
//  153 {
//  154   void   *next;
//  155   uint16 shortAddr;
//  156   uint16 timeDelta;
//  157 } ZDAppNewDevice_t;
//  158 
//  159 /*********************************************************************
//  160  * GLOBAL VARIABLES
//  161  */
//  162 
//  163 #if defined( LCD_SUPPORTED )

        RSEG XDATA_Z:XDATA:NOROOT(0)
        DATA8
//  164   uint8 MatchRsps = 0;
MatchRsps:
        DS 1
        REQUIRE __INIT_XDATA_Z
//  165 #endif
//  166 

        RSEG XDATA_I:XDATA:NOROOT(0)
//  167 uint8 zdoDiscCounter = 1;
zdoDiscCounter:
        DATA8
        DS 1
        REQUIRE `?<Initializer for zdoDiscCounter>`
        REQUIRE __INIT_XDATA_I
//  168 

        RSEG XDATA_Z:XDATA:NOROOT(0)
        DATA8
//  169 zAddrType_t ZDAppNwkAddr;
ZDAppNwkAddr:
        DS 9
        REQUIRE __INIT_XDATA_Z
//  170 

        RSEG XDATA_Z:XDATA:NOROOT(0)
        DATA8
//  171 uint8 zdappMgmtNwkDiscRspTransSeq;
zdappMgmtNwkDiscRspTransSeq:
        DS 1
        REQUIRE __INIT_XDATA_Z

        RSEG XDATA_Z:XDATA:NOROOT(0)
        DATA8
//  172 uint8 zdappMgmtNwkDiscReqInProgress = FALSE;
zdappMgmtNwkDiscReqInProgress:
        DS 1
        REQUIRE __INIT_XDATA_Z

        RSEG XDATA_Z:XDATA:NOROOT(0)
        DATA8
//  173 zAddrType_t zdappMgmtNwkDiscRspAddr;
zdappMgmtNwkDiscRspAddr:
        DS 9
        REQUIRE __INIT_XDATA_Z

        RSEG XDATA_Z:XDATA:NOROOT(0)
        DATA8
//  174 uint8 zdappMgmtNwkDiscStartIndex;
zdappMgmtNwkDiscStartIndex:
        DS 1
        REQUIRE __INIT_XDATA_Z

        RSEG XDATA_Z:XDATA:NOROOT(0)
        DATA8
//  175 uint8 zdappMgmtSavedNwkState;
zdappMgmtSavedNwkState:
        DS 1
        REQUIRE __INIT_XDATA_Z
//  176 

        RSEG XDATA_I:XDATA:NOROOT(0)
//  177 uint8 continueJoining = TRUE;
continueJoining:
        DATA8
        DS 1
        REQUIRE `?<Initializer for continueJoining>`
        REQUIRE __INIT_XDATA_I
//  178 

        RSEG XDATA_Z:XDATA:NOROOT(0)
        DATA8
//  179 uint8  _tmpRejoinState;
_tmpRejoinState:
        DS 1
        REQUIRE __INIT_XDATA_Z
//  180 
//  181 // The extended PanID used in ZDO layer for rejoin.

        RSEG XDATA_Z:XDATA:NOROOT(0)
        DATA8
//  182 uint8 ZDO_UseExtendedPANID[Z_EXTADDR_LEN];
ZDO_UseExtendedPANID:
        DS 8
        REQUIRE __INIT_XDATA_Z
//  183 

        RSEG XDATA_Z:XDATA:NOROOT(0)
        DATA8
//  184 pfnZdoCb zdoCBFunc[MAX_ZDO_CB_FUNC];
zdoCBFunc:
        DS 18
        REQUIRE __INIT_XDATA_Z
//  185 
//  186 #if !defined ( ZDP_BIND_SKIP_VALIDATION )

        RSEG XDATA_Z:XDATA:NOROOT(0)
        DATA16
//  187 ZDO_PendingBindReq_t *ZDAppPendingBindReq = NULL;
ZDAppPendingBindReq:
        DS 2
        REQUIRE __INIT_XDATA_Z
//  188 #endif
//  189 

        RSEG XDATA_Z:XDATA:NOROOT(0)
        DATA32
//  190 uint32 runtimeChannel;
runtimeChannel:
        DS 4
        REQUIRE __INIT_XDATA_Z
//  191 
//  192 /*********************************************************************
//  193  * EXTERNAL VARIABLES
//  194  */
//  195 
//  196 /*********************************************************************
//  197  * EXTERNAL FUNCTIONS
//  198  */
//  199 
//  200 /*********************************************************************
//  201  * LOCAL FUNCTIONS
//  202  */
//  203 
//  204 void ZDApp_NetworkStartEvt( void );
//  205 void ZDApp_DeviceAuthEvt( void );
//  206 void ZDApp_SaveNetworkStateEvt( void );
//  207 
//  208 uint8 ZDApp_ReadNetworkRestoreState( void );
//  209 uint8 ZDApp_RestoreNetworkState( void );
//  210 void ZDAppDetermineDeviceType( void );
//  211 void ZDApp_InitUserDesc( void );
//  212 void ZDAppCheckForHoldKey( void );
//  213 void ZDApp_ProcessOSALMsg( osal_event_hdr_t *msgPtr );
//  214 void ZDApp_ProcessNetworkJoin( void );
//  215 void ZDApp_SetCoordAddress( uint8 endPoint, uint8 dstEP );
//  216 uint8 ZDApp_RestoreNwkKey( uint8 incrFrmCnt );
//  217 networkDesc_t* ZDApp_NwkDescListProcessing(void);
//  218 
//  219 void ZDApp_SecInit( uint8 state );
//  220 UINT16 ZDApp_ProcessSecEvent( uint8 task_id, UINT16 events );
//  221 void ZDApp_ProcessSecMsg( osal_event_hdr_t *msgPtr );
//  222 
//  223 void ZDApp_SendMsg( uint8 taskID, uint8 cmd, uint8 len, uint8 *buf );
//  224 
//  225 void ZDApp_ResetTimerStart( uint16 delay );
//  226 void ZDApp_ResetTimerCancel( void );
//  227 void ZDApp_LeaveCtrlInit( void );
//  228 void ZDApp_LeaveCtrlSet( uint8 ra );
//  229 uint8 ZDApp_LeaveCtrlBypass( void );
//  230 void ZDApp_LeaveCtrlStartup( devStates_t* state, uint16* startDelay );
//  231 void ZDApp_LeaveUpdate( uint16 nwkAddr, uint8* extAddr,
//  232                         uint8 removeChildren );
//  233 void ZDApp_NodeProfileSync( uint8 stackProfile );
//  234 void ZDApp_ProcessMsgCBs( zdoIncomingMsg_t *inMsg );
//  235 void ZDApp_RegisterCBs( void );
//  236 void ZDApp_InitZdoCBFunc(void);
//  237 #if !defined ( ZDP_BIND_SKIP_VALIDATION )
//  238 void ZDApp_SetPendingBindDefault( ZDO_PendingBindReq_t *pendBindReq );
//  239 void ZDApp_InitPendingBind( void );
//  240 void ZDApp_ProcessPendingBindReq( uint8 *extAddr );
//  241 void ZDApp_AgeOutPendingBindEntry( void );
//  242 #endif
//  243 
//  244 void ZDApp_SetParentAnnceTimer( void );
//  245 
//  246 /*********************************************************************
//  247  * LOCAL VARIABLES
//  248  */
//  249 

        RSEG XDATA_Z:XDATA:NOROOT(0)
        DATA8
//  250 uint8 ZDAppTaskID;
ZDAppTaskID:
        DS 1
        REQUIRE __INIT_XDATA_Z

        RSEG XDATA_Z:XDATA:NOROOT(0)
        DATA8
//  251 uint8 nwkStatus;
nwkStatus:
        DS 1
        REQUIRE __INIT_XDATA_Z

        RSEG XDATA_Z:XDATA:NOROOT(0)
        DATA16
//  252 endPointDesc_t *ZDApp_AutoFindMode_epDesc = (endPointDesc_t *)NULL;
ZDApp_AutoFindMode_epDesc:
        DS 2
        REQUIRE __INIT_XDATA_Z

        RSEG XDATA_Z:XDATA:NOROOT(0)
        DATA8
//  253 uint8 ZDApp_LeaveCtrl;
ZDApp_LeaveCtrl:
        DS 1
        REQUIRE __INIT_XDATA_Z
//  254 
//  255 #if defined( HOLD_AUTO_START )
//  256   devStates_t devState = DEV_HOLD;
//  257 #else

        RSEG XDATA_I:XDATA:NOROOT(0)
//  258   devStates_t devState = DEV_INIT;
devState:
        DATA8
        DS 1
        REQUIRE `?<Initializer for devState>`
        REQUIRE __INIT_XDATA_I
//  259 #endif
//  260 
//  261 // previous rejoin state

        RSEG XDATA_I:XDATA:NOROOT(0)
//  262   devStates_t prevDevState = DEV_NWK_SEC_REJOIN_CURR_CHANNEL;
prevDevState:
        DATA8
        DS 1
        REQUIRE `?<Initializer for prevDevState>`
        REQUIRE __INIT_XDATA_I
//  263 
//  264 #if ( ZG_BUILD_RTRONLY_TYPE ) || ( ZG_BUILD_ENDDEVICE_TYPE )

        RSEG XDATA_Z:XDATA:NOROOT(0)
        DATA8
//  265   devStartModes_t devStartMode = MODE_JOIN;     // Assume joining
devStartMode:
        DS 1
        REQUIRE __INIT_XDATA_Z
//  266   //devStartModes_t devStartMode = MODE_RESUME; // if already "directly joined"
//  267                         // to parent. Set to make the device do an Orphan scan.
//  268 #else
//  269   // Set the default to coodinator
//  270   devStartModes_t devStartMode = MODE_HARD;
//  271 #endif
//  272 

        RSEG XDATA_Z:XDATA:NOROOT(0)
        DATA8
//  273 uint8 retryCnt = 0;
retryCnt:
        DS 1
        REQUIRE __INIT_XDATA_Z
//  274 

        RSEG XDATA_I:XDATA:NOROOT(0)
//  275 endPointDesc_t ZDApp_epDesc =
ZDApp_epDesc:
        DATA8
        DS 6
        REQUIRE `?<Initializer for ZDApp_epDesc>`
        REQUIRE __INIT_XDATA_I
//  276 {
//  277   ZDO_EP,
//  278   &ZDAppTaskID,
//  279   (SimpleDescriptionFormat_t *)NULL,  // No Simple description for ZDO
//  280   (afNetworkLatencyReq_t)0            // No Network Latency req
//  281 };
//  282 

        RSEG XDATA_I:XDATA:NOROOT(0)
//  283 uint32 ZDApp_SavedPollRate = POLL_RATE;
ZDApp_SavedPollRate:
        DATA32
        DS 4
        REQUIRE `?<Initializer for ZDApp_SavedPollRate>`
        REQUIRE __INIT_XDATA_I
//  284 

        RSEG XDATA_Z:XDATA:NOROOT(0)
        DATA16
//  285 ZDAppNewDevice_t *ZDApp_NewDeviceList = NULL;
ZDApp_NewDeviceList:
        DS 2
        REQUIRE __INIT_XDATA_Z
//  286 
//  287 /* "Hold Key" status saved during ZDAppCheckForHoldKey() */
//  288 //static uint8 zdappHoldKeys;
//  289 
//  290 /*********************************************************************
//  291  * @fn      ZDApp_Init
//  292  *
//  293  * @brief   ZDApp Initialization function.
//  294  *
//  295  * @param   task_id - ZDApp Task ID
//  296  *
//  297  * @return  None
//  298  */

        RSEG BANKED_CODE:HUGECODE:NOROOT(0)
//  299 void ZDApp_Init( uint8 task_id )
ZDApp_Init:
          CFI Block cfiBlock0 Using cfiCommon0
          CFI Function ZDApp_Init
        CODE
//  300 {
        FUNCALL ZDApp_Init, NLME_GetExtAddr
        LOCFRAME ISTACK, 0, STACK
        LOCFRAME PSTACK, 0, STACK
        LOCFRAME XSTACK, 9, STACK
        LOCFRAME IOVERLAY, 0, STATIC
        LOCFRAME DOVERLAY, 0, STATIC
        ARGFRAME ISTACK, 0, STACK
        ARGFRAME PSTACK, 0, STACK
        ARGFRAME XSTACK, 9, STACK
        ARGFRAME IOVERLAY, 0, STATIC
        ARGFRAME DOVERLAY, 0, STATIC
        FUNCALL ZDApp_Init, ZDO_Init
        LOCFRAME ISTACK, 0, STACK
        LOCFRAME PSTACK, 0, STACK
        LOCFRAME XSTACK, 9, STACK
        LOCFRAME IOVERLAY, 0, STATIC
        LOCFRAME DOVERLAY, 0, STATIC
        ARGFRAME ISTACK, 0, STACK
        ARGFRAME PSTACK, 0, STACK
        ARGFRAME XSTACK, 9, STACK
        ARGFRAME IOVERLAY, 0, STATIC
        ARGFRAME DOVERLAY, 0, STATIC
        FUNCALL ZDApp_Init, afRegister
        LOCFRAME ISTACK, 0, STACK
        LOCFRAME PSTACK, 0, STACK
        LOCFRAME XSTACK, 9, STACK
        LOCFRAME IOVERLAY, 0, STATIC
        LOCFRAME DOVERLAY, 0, STATIC
        ARGFRAME ISTACK, 0, STACK
        ARGFRAME PSTACK, 0, STACK
        ARGFRAME XSTACK, 9, STACK
        ARGFRAME IOVERLAY, 0, STATIC
        ARGFRAME DOVERLAY, 0, STATIC
        FUNCALL ZDApp_Init, ZDOInitDevice
        LOCFRAME ISTACK, 0, STACK
        LOCFRAME PSTACK, 0, STACK
        LOCFRAME XSTACK, 9, STACK
        LOCFRAME IOVERLAY, 0, STATIC
        LOCFRAME DOVERLAY, 0, STATIC
        ARGFRAME ISTACK, 0, STACK
        ARGFRAME PSTACK, 0, STACK
        ARGFRAME XSTACK, 9, STACK
        ARGFRAME IOVERLAY, 0, STATIC
        ARGFRAME DOVERLAY, 0, STATIC
        FUNCALL ZDApp_Init, ZDOInitDevice
        LOCFRAME ISTACK, 0, STACK
        LOCFRAME PSTACK, 0, STACK
        LOCFRAME XSTACK, 9, STACK
        LOCFRAME IOVERLAY, 0, STATIC
        LOCFRAME DOVERLAY, 0, STATIC
        ARGFRAME ISTACK, 0, STACK
        ARGFRAME PSTACK, 0, STACK
        ARGFRAME XSTACK, 9, STACK
        ARGFRAME IOVERLAY, 0, STATIC
        ARGFRAME DOVERLAY, 0, STATIC
        FUNCALL ZDApp_Init, ZDApp_InitZdoCBFunc
        LOCFRAME ISTACK, 0, STACK
        LOCFRAME PSTACK, 0, STACK
        LOCFRAME XSTACK, 9, STACK
        LOCFRAME IOVERLAY, 0, STATIC
        LOCFRAME DOVERLAY, 0, STATIC
        ARGFRAME ISTACK, 0, STACK
        ARGFRAME PSTACK, 0, STACK
        ARGFRAME XSTACK, 9, STACK
        ARGFRAME IOVERLAY, 0, STATIC
        ARGFRAME DOVERLAY, 0, STATIC
        FUNCALL ZDApp_Init, ZDApp_RegisterCBs
        LOCFRAME ISTACK, 0, STACK
        LOCFRAME PSTACK, 0, STACK
        LOCFRAME XSTACK, 9, STACK
        LOCFRAME IOVERLAY, 0, STATIC
        LOCFRAME DOVERLAY, 0, STATIC
        ARGFRAME ISTACK, 0, STACK
        ARGFRAME PSTACK, 0, STACK
        ARGFRAME XSTACK, 9, STACK
        ARGFRAME IOVERLAY, 0, STATIC
        ARGFRAME DOVERLAY, 0, STATIC
        FUNCALL ZDApp_Init, ZDApp_InitPendingBind
        LOCFRAME ISTACK, 0, STACK
        LOCFRAME PSTACK, 0, STACK
        LOCFRAME XSTACK, 9, STACK
        LOCFRAME IOVERLAY, 0, STATIC
        LOCFRAME DOVERLAY, 0, STATIC
        ARGFRAME ISTACK, 0, STACK
        ARGFRAME PSTACK, 0, STACK
        ARGFRAME XSTACK, 9, STACK
        ARGFRAME IOVERLAY, 0, STATIC
        ARGFRAME DOVERLAY, 0, STATIC
        MOV       A,#-0x9
        LCALL     ?BANKED_ENTER_XDATA
          CFI DPH0 load(1, XDATA, add(CFA_XSP16, literal(-1)))
          CFI DPL0 load(1, XDATA, add(CFA_XSP16, literal(-2)))
          CFI ?BRET_EXT load(1, XDATA, add(CFA_XSP16, literal(-3)))
          CFI ?RET_HIGH load(1, XDATA, add(CFA_XSP16, literal(-4)))
          CFI ?RET_LOW load(1, XDATA, add(CFA_XSP16, literal(-5)))
          CFI R7 load(1, XDATA, add(CFA_XSP16, literal(-6)))
          CFI V0 load(1, XDATA, add(CFA_XSP16, literal(-7)))
          CFI VB load(1, XDATA, add(CFA_XSP16, literal(-8)))
          CFI R6 load(1, XDATA, add(CFA_XSP16, literal(-9)))
          CFI CFA_SP SP+0
          CFI CFA_XSP16 add(XSP16, 9)
        ; Saved register size: 9
        ; Auto size: 0
        MOV       A,R1
//  301   // Save the task ID
//  302   ZDAppTaskID = task_id;
        MOV       DPTR,#ZDAppTaskID
        MOVX      @DPTR,A
//  303 
//  304   // Initialize the ZDO global device short address storage
//  305   ZDAppNwkAddr.addrMode = Addr16Bit;
        MOV       DPTR,#ZDAppNwkAddr + 8
        MOV       A,#0x2
        MOVX      @DPTR,A
//  306   ZDAppNwkAddr.addr.shortAddr = INVALID_NODE_ADDR;
        MOV       DPTR,#ZDAppNwkAddr
        MOV       A,#-0x2
        MOVX      @DPTR,A
        INC       DPTR
        INC       A
        MOVX      @DPTR,A
//  307   (void)NLME_GetExtAddr();  // Load the saveExtAddr pointer.
        ; Setup parameters for call to function NLME_GetExtAddr
        LCALL     `??NLME_GetExtAddr::?relay`; Banked call to: NLME_GetExtAddr
//  308 
//  309   // Check for manual "Hold Auto Start"
//  310 //  ZDAppCheckForHoldKey();
//  311 
//  312   // Initialize ZDO items and setup the device - type of device to create.
//  313   ZDO_Init();
        ; Setup parameters for call to function ZDO_Init
        LCALL     `??ZDO_Init::?relay`; Banked call to: ZDO_Init
//  314 
//  315   // Register the endpoint description with the AF
//  316   // This task doesn't have a Simple description, but we still need
//  317   // to register the endpoint.
//  318   afRegister( (endPointDesc_t *)&ZDApp_epDesc );
        ; Setup parameters for call to function afRegister
        MOV       R2,#ZDApp_epDesc & 0xff
        MOV       R3,#(ZDApp_epDesc >> 8) & 0xff
        LCALL     `??afRegister::?relay`; Banked call to: afRegister
//  319 
//  320 #if defined( ZDO_USERDESC_RESPONSE )
//  321   ZDApp_InitUserDesc();
//  322 #endif // ZDO_USERDESC_RESPONSE
//  323 
//  324   // Start the device?
//  325   if ( devState != DEV_HOLD )
        MOV       DPTR,#devState
        MOVX      A,@DPTR
        JZ        ??ZDApp_Init_0
//  326   {
//  327     ZDOInitDevice( 0 );
        ; Setup parameters for call to function ZDOInitDevice
        MOV       R2,#0x0
        MOV       R3,#0x0
        SJMP      ??ZDApp_Init_1
//  328   }
//  329   else
//  330   {
//  331     ZDOInitDevice( ZDO_INIT_HOLD_NWK_START );
??ZDApp_Init_0:
        ; Setup parameters for call to function ZDOInitDevice
        MOV       R2,#-0x1
        MOV       R3,#-0x1
??ZDApp_Init_1:
        LCALL     `??ZDOInitDevice::?relay`; Banked call to: ZDOInitDevice
//  332     // Blink LED to indicate HOLD_START
//  333 //    HalLedBlink ( HAL_LED_4, 0, 50, 500 );
//  334   }
//  335 
//  336   // Initialize the ZDO callback function pointers zdoCBFunc[]
//  337   ZDApp_InitZdoCBFunc();
        ; Setup parameters for call to function ZDApp_InitZdoCBFunc
        LCALL     `??ZDApp_InitZdoCBFunc::?relay`; Banked call to: ZDApp_InitZdoCBFunc
//  338 
//  339   ZDApp_RegisterCBs();
        ; Setup parameters for call to function ZDApp_RegisterCBs
        LCALL     `??ZDApp_RegisterCBs::?relay`; Banked call to: ZDApp_RegisterCBs
//  340 
//  341 #if !defined ( ZDP_BIND_SKIP_VALIDATION )
//  342 #if defined ( REFLECTOR )
//  343   ZDApp_InitPendingBind();
        ; Setup parameters for call to function ZDApp_InitPendingBind
        LCALL     `??ZDApp_InitPendingBind::?relay`; Banked call to: ZDApp_InitPendingBind
//  344 #endif
//  345 #endif
//  346 } /* ZDApp_Init() */
        LJMP      ??Subroutine64_0 & 0xFFFF
          CFI EndBlock cfiBlock0
//  347 
//  348 /*********************************************************************
//  349  * @fn          ZDApp_SecInit
//  350  *
//  351  * @brief       ZDApp initialize security.
//  352  *
//  353  * @param       state - device initialization state
//  354  *
//  355  * @return      none
//  356  */

        RSEG BANKED_CODE:HUGECODE:NOROOT(0)
//  357 void ZDApp_SecInit( uint8 state )
ZDApp_SecInit:
          CFI Block cfiBlock1 Using cfiCommon0
          CFI Function ZDApp_SecInit
        CODE
//  358 {
        FUNCALL ZDApp_SecInit, ZDSecMgrInit
        LOCFRAME ISTACK, 0, STACK
        LOCFRAME PSTACK, 0, STACK
        LOCFRAME XSTACK, 25, STACK
        LOCFRAME IOVERLAY, 0, STATIC
        LOCFRAME DOVERLAY, 0, STATIC
        ARGFRAME ISTACK, 0, STACK
        ARGFRAME PSTACK, 0, STACK
        ARGFRAME XSTACK, 25, STACK
        ARGFRAME IOVERLAY, 0, STATIC
        ARGFRAME DOVERLAY, 0, STATIC
        FUNCALL ZDApp_SecInit, ZDSecMgrReadKeyFromNv
        LOCFRAME ISTACK, 0, STACK
        LOCFRAME PSTACK, 0, STACK
        LOCFRAME XSTACK, 25, STACK
        LOCFRAME IOVERLAY, 0, STATIC
        LOCFRAME DOVERLAY, 0, STATIC
        ARGFRAME ISTACK, 0, STACK
        ARGFRAME PSTACK, 0, STACK
        ARGFRAME XSTACK, 25, STACK
        ARGFRAME IOVERLAY, 0, STATIC
        ARGFRAME DOVERLAY, 0, STATIC
        FUNCALL ZDApp_SecInit, SSP_UpdateNwkKey
        LOCFRAME ISTACK, 0, STACK
        LOCFRAME PSTACK, 0, STACK
        LOCFRAME XSTACK, 25, STACK
        LOCFRAME IOVERLAY, 0, STATIC
        LOCFRAME DOVERLAY, 0, STATIC
        ARGFRAME ISTACK, 0, STACK
        ARGFRAME PSTACK, 0, STACK
        ARGFRAME XSTACK, 25, STACK
        ARGFRAME IOVERLAY, 0, STATIC
        ARGFRAME DOVERLAY, 0, STATIC
        FUNCALL ZDApp_SecInit, SSP_SwitchNwkKey
        LOCFRAME ISTACK, 0, STACK
        LOCFRAME PSTACK, 0, STACK
        LOCFRAME XSTACK, 25, STACK
        LOCFRAME IOVERLAY, 0, STATIC
        LOCFRAME DOVERLAY, 0, STATIC
        ARGFRAME ISTACK, 0, STACK
        ARGFRAME PSTACK, 0, STACK
        ARGFRAME XSTACK, 25, STACK
        ARGFRAME IOVERLAY, 0, STATIC
        ARGFRAME DOVERLAY, 0, STATIC
        FUNCALL ZDApp_SecInit, osal_memset
        LOCFRAME ISTACK, 0, STACK
        LOCFRAME PSTACK, 0, STACK
        LOCFRAME XSTACK, 25, STACK
        LOCFRAME IOVERLAY, 0, STATIC
        LOCFRAME DOVERLAY, 0, STATIC
        ARGFRAME ISTACK, 0, STACK
        ARGFRAME PSTACK, 0, STACK
        ARGFRAME XSTACK, 25, STACK
        ARGFRAME IOVERLAY, 0, STATIC
        ARGFRAME DOVERLAY, 0, STATIC
        FUNCALL ZDApp_SecInit, osal_mem_free
        LOCFRAME ISTACK, 0, STACK
        LOCFRAME PSTACK, 0, STACK
        LOCFRAME XSTACK, 25, STACK
        LOCFRAME IOVERLAY, 0, STATIC
        LOCFRAME DOVERLAY, 0, STATIC
        ARGFRAME ISTACK, 0, STACK
        ARGFRAME PSTACK, 0, STACK
        ARGFRAME XSTACK, 25, STACK
        ARGFRAME IOVERLAY, 0, STATIC
        ARGFRAME DOVERLAY, 0, STATIC
        REQUIRE ?V0
        MOV       A,#-0x9
        LCALL     ?BANKED_ENTER_XDATA
          CFI DPH0 load(1, XDATA, add(CFA_XSP16, literal(-1)))
          CFI DPL0 load(1, XDATA, add(CFA_XSP16, literal(-2)))
          CFI ?BRET_EXT load(1, XDATA, add(CFA_XSP16, literal(-3)))
          CFI ?RET_HIGH load(1, XDATA, add(CFA_XSP16, literal(-4)))
          CFI ?RET_LOW load(1, XDATA, add(CFA_XSP16, literal(-5)))
          CFI R7 load(1, XDATA, add(CFA_XSP16, literal(-6)))
          CFI V0 load(1, XDATA, add(CFA_XSP16, literal(-7)))
          CFI VB load(1, XDATA, add(CFA_XSP16, literal(-8)))
          CFI R6 load(1, XDATA, add(CFA_XSP16, literal(-9)))
          CFI CFA_SP SP+0
          CFI CFA_XSP16 add(XSP16, 9)
        ; Saved register size: 9
        ; Auto size: 16
        MOV       A,#-0x10
        LCALL     ?ALLOC_XSTACK8
          CFI CFA_XSP16 add(XSP16, 25)
        MOV       ?V0,R1
//  359   uint8 zgPreConfigKey[SEC_KEY_LEN];
//  360 
//  361   if ( ZG_SECURE_ENABLED && ZG_BUILD_COORDINATOR_TYPE && ZG_DEVICE_COORDINATOR_TYPE )
//  362   {
//  363     // Set the Trust Center bit
//  364     ZDO_Config_Node_Descriptor.ServerMask |= PRIM_TRUST_CENTER;
//  365   }
//  366 
//  367   // Initialize ZigBee Device Security Manager
//  368   ZDSecMgrInit(state);
        ; Setup parameters for call to function ZDSecMgrInit
        LCALL     `??ZDSecMgrInit::?relay`; Banked call to: ZDSecMgrInit
//  369 
//  370   if ( ZG_SECURE_ENABLED )
//  371   {
//  372     if ( state != ZDO_INITDEV_RESTORED_NETWORK_STATE )
        MOV       A,?V0
        JZ        ??ZDApp_SecInit_0
//  373     {
//  374       nwkFrameCounter = 0;
        MOV       DPTR,#nwkFrameCounter
        CLR       A
        MOVX      @DPTR,A
        INC       DPTR
        MOVX      @DPTR,A
        INC       DPTR
        MOVX      @DPTR,A
        INC       DPTR
        MOVX      @DPTR,A
//  375 
//  376       if( _NIB.nwkKeyLoaded == FALSE )
        MOV       DPTR,#_NIB + 61
        MOVX      A,@DPTR
        JNZ       ??ZDApp_SecInit_0
//  377       {
//  378         if ( ( ZG_BUILD_COORDINATOR_TYPE && ZG_DEVICE_COORDINATOR_TYPE          ) ||
//  379              ( ( zgSecurityMode == ZG_SECURITY_RESIDENTIAL ) && zgPreConfigKeys )    )
        MOV       DPTR,#zgSecurityMode
        MOVX      A,@DPTR
        XRL       A,#0x1
        JNZ       ??ZDApp_SecInit_0
        MOV       DPTR,#zgPreConfigKeys
        MOVX      A,@DPTR
        JZ        ??ZDApp_SecInit_0
//  380         {
//  381             ZDSecMgrReadKeyFromNv(ZCD_NV_PRECFGKEY, zgPreConfigKey);
        ; Setup parameters for call to function ZDSecMgrReadKeyFromNv
        MOV       R4,?XSP + 0
        MOV       R5,?XSP + 1
        MOV       R2,#0x62
        MOV       R3,#0x0
        LCALL     `??ZDSecMgrReadKeyFromNv::?relay`; Banked call to: ZDSecMgrReadKeyFromNv
//  382             SSP_UpdateNwkKey( zgPreConfigKey, 0);
        ; Setup parameters for call to function SSP_UpdateNwkKey
        MOV       R1,#0x0
        MOV       R2,?XSP + 0
        MOV       R3,?XSP + 1
        LCALL     `??SSP_UpdateNwkKey::?relay`; Banked call to: SSP_UpdateNwkKey
//  383             SSP_SwitchNwkKey( 0 );
        ; Setup parameters for call to function SSP_SwitchNwkKey
        MOV       R1,#0x0
        LCALL     `??SSP_SwitchNwkKey::?relay`; Banked call to: SSP_SwitchNwkKey
//  384 
//  385             // clear local copy of key
//  386             osal_memset(zgPreConfigKey, 0x00, SEC_KEY_LEN);
        ; Setup parameters for call to function osal_memset
        MOV       R4,#0x10
        MOV       R5,#0x0
        MOV       R1,#0x0
        MOV       R2,?XSP + 0
        MOV       R3,?XSP + 1
        LCALL     `??osal_memset::?relay`; Banked call to: osal_memset
//  387         }
//  388       }
//  389     }
//  390 
//  391     // clean the new devices list when Security module is initialized
//  392     if ( ZDApp_NewDeviceList != NULL )
??ZDApp_SecInit_0:
        MOV       DPTR,#ZDApp_NewDeviceList
        LCALL     ??Subroutine69_0 & 0xFFFF
??CrossCallReturnLabel_130:
        JZ        ??ZDApp_SecInit_1
//  393     {
//  394       ZDAppNewDevice_t *pNewDeviceNext;
//  395 
//  396       while ( ZDApp_NewDeviceList )
//  397       {
//  398         pNewDeviceNext = (ZDAppNewDevice_t *) ZDApp_NewDeviceList->next;
??ZDApp_SecInit_2:
        MOV       DPTR,#ZDApp_NewDeviceList
        LCALL     ?Subroutine21 & 0xFFFF
??CrossCallReturnLabel_16:
        MOV       R6,A
        INC       DPTR
        MOVX      A,@DPTR
        MOV       R7,A
//  399         osal_mem_free( ZDApp_NewDeviceList );
        ; Setup parameters for call to function osal_mem_free
        MOV       DPTR,#ZDApp_NewDeviceList
        LCALL     ??Subroutine65_0 & 0xFFFF
??CrossCallReturnLabel_115:
        LCALL     `??osal_mem_free::?relay`; Banked call to: osal_mem_free
//  400         ZDApp_NewDeviceList = pNewDeviceNext;
        MOV       A,R7
        MOV       R1,A
        MOV       DPTR,#ZDApp_NewDeviceList
        MOV       A,R6
        MOVX      @DPTR,A
        INC       DPTR
        MOV       A,R7
        MOVX      @DPTR,A
//  401       }
        MOV       A,R6
        ORL       A,R1
        JNZ       ??ZDApp_SecInit_2
//  402     }
//  403   }
//  404 }
??ZDApp_SecInit_1:
        MOV       A,#0x10
        LJMP      ??Subroutine63_0 & 0xFFFF
          CFI EndBlock cfiBlock1
//  405 
//  406 /*********************************************************************
//  407  * @fn      ZDApp_event_loop()
//  408  *
//  409  * @brief   Main event loop for Zigbee device objects task. This function
//  410  *          should be called at periodic intervals.
//  411  *
//  412  * @param   task_id - Task ID
//  413  * @param   events  - Bitmap of events
//  414  *
//  415  * @return  none
//  416  */

        RSEG BANKED_CODE:HUGECODE:NOROOT(0)
//  417 UINT16 ZDApp_event_loop( uint8 task_id, UINT16 events )
ZDApp_event_loop:
          CFI Block cfiBlock2 Using cfiCommon0
          CFI Function ZDApp_event_loop
        CODE
//  418 {
        FUNCALL ZDApp_event_loop, ZDApp_ChangeState
        LOCFRAME ISTACK, 0, STACK
        LOCFRAME PSTACK, 0, STACK
        LOCFRAME XSTACK, 14, STACK
        LOCFRAME IOVERLAY, 0, STATIC
        LOCFRAME DOVERLAY, 0, STATIC
        ARGFRAME ISTACK, 0, STACK
        ARGFRAME PSTACK, 0, STACK
        ARGFRAME XSTACK, 14, STACK
        ARGFRAME IOVERLAY, 0, STATIC
        ARGFRAME DOVERLAY, 0, STATIC
        FUNCALL ZDApp_event_loop, ZDO_StartDevice
        LOCFRAME ISTACK, 0, STACK
        LOCFRAME PSTACK, 0, STACK
        LOCFRAME XSTACK, 14, STACK
        LOCFRAME IOVERLAY, 0, STATIC
        LOCFRAME DOVERLAY, 0, STATIC
        ARGFRAME ISTACK, 0, STACK
        ARGFRAME PSTACK, 0, STACK
        ARGFRAME XSTACK, 14, STACK
        ARGFRAME IOVERLAY, 0, STATIC
        ARGFRAME DOVERLAY, 0, STATIC
        FUNCALL ZDApp_event_loop, ZDApp_ProcessOSALMsg
        LOCFRAME ISTACK, 0, STACK
        LOCFRAME PSTACK, 0, STACK
        LOCFRAME XSTACK, 14, STACK
        LOCFRAME IOVERLAY, 0, STATIC
        LOCFRAME DOVERLAY, 0, STATIC
        ARGFRAME ISTACK, 0, STACK
        ARGFRAME PSTACK, 0, STACK
        ARGFRAME XSTACK, 14, STACK
        ARGFRAME IOVERLAY, 0, STATIC
        ARGFRAME DOVERLAY, 0, STATIC
        FUNCALL ZDApp_event_loop, osal_msg_deallocate
        LOCFRAME ISTACK, 0, STACK
        LOCFRAME PSTACK, 0, STACK
        LOCFRAME XSTACK, 14, STACK
        LOCFRAME IOVERLAY, 0, STATIC
        LOCFRAME DOVERLAY, 0, STATIC
        ARGFRAME ISTACK, 0, STACK
        ARGFRAME PSTACK, 0, STACK
        ARGFRAME XSTACK, 14, STACK
        ARGFRAME IOVERLAY, 0, STATIC
        ARGFRAME DOVERLAY, 0, STATIC
        FUNCALL ZDApp_event_loop, osal_msg_receive
        LOCFRAME ISTACK, 0, STACK
        LOCFRAME PSTACK, 0, STACK
        LOCFRAME XSTACK, 14, STACK
        LOCFRAME IOVERLAY, 0, STATIC
        LOCFRAME DOVERLAY, 0, STATIC
        ARGFRAME ISTACK, 0, STACK
        ARGFRAME PSTACK, 0, STACK
        ARGFRAME XSTACK, 14, STACK
        ARGFRAME IOVERLAY, 0, STATIC
        ARGFRAME DOVERLAY, 0, STATIC
        FUNCALL ZDApp_event_loop, ZDApp_ChangeState
        LOCFRAME ISTACK, 0, STACK
        LOCFRAME PSTACK, 0, STACK
        LOCFRAME XSTACK, 14, STACK
        LOCFRAME IOVERLAY, 0, STATIC
        LOCFRAME DOVERLAY, 0, STATIC
        ARGFRAME ISTACK, 0, STACK
        ARGFRAME PSTACK, 0, STACK
        ARGFRAME XSTACK, 14, STACK
        ARGFRAME IOVERLAY, 0, STATIC
        ARGFRAME DOVERLAY, 0, STATIC
        FUNCALL ZDApp_event_loop, ZDApp_StartJoiningCycle
        LOCFRAME ISTACK, 0, STACK
        LOCFRAME PSTACK, 0, STACK
        LOCFRAME XSTACK, 14, STACK
        LOCFRAME IOVERLAY, 0, STATIC
        LOCFRAME DOVERLAY, 0, STATIC
        ARGFRAME ISTACK, 0, STACK
        ARGFRAME PSTACK, 0, STACK
        ARGFRAME XSTACK, 14, STACK
        ARGFRAME IOVERLAY, 0, STATIC
        ARGFRAME DOVERLAY, 0, STATIC
        FUNCALL ZDApp_event_loop, osal_start_timerEx
        LOCFRAME ISTACK, 0, STACK
        LOCFRAME PSTACK, 0, STACK
        LOCFRAME XSTACK, 18, STACK
        LOCFRAME IOVERLAY, 0, STATIC
        LOCFRAME DOVERLAY, 0, STATIC
        ARGFRAME ISTACK, 0, STACK
        ARGFRAME PSTACK, 0, STACK
        ARGFRAME XSTACK, 18, STACK
        ARGFRAME IOVERLAY, 0, STATIC
        ARGFRAME DOVERLAY, 0, STATIC
        FUNCALL ZDApp_event_loop, ZDApp_ChangeState
        LOCFRAME ISTACK, 0, STACK
        LOCFRAME PSTACK, 0, STACK
        LOCFRAME XSTACK, 14, STACK
        LOCFRAME IOVERLAY, 0, STATIC
        LOCFRAME DOVERLAY, 0, STATIC
        ARGFRAME ISTACK, 0, STACK
        ARGFRAME PSTACK, 0, STACK
        ARGFRAME XSTACK, 14, STACK
        ARGFRAME IOVERLAY, 0, STATIC
        ARGFRAME DOVERLAY, 0, STATIC
        FUNCALL ZDApp_event_loop, ZDApp_StopJoiningCycle
        LOCFRAME ISTACK, 0, STACK
        LOCFRAME PSTACK, 0, STACK
        LOCFRAME XSTACK, 14, STACK
        LOCFRAME IOVERLAY, 0, STATIC
        LOCFRAME DOVERLAY, 0, STATIC
        ARGFRAME ISTACK, 0, STACK
        ARGFRAME PSTACK, 0, STACK
        ARGFRAME XSTACK, 14, STACK
        ARGFRAME IOVERLAY, 0, STATIC
        ARGFRAME DOVERLAY, 0, STATIC
        FUNCALL ZDApp_event_loop, osal_start_timerEx
        LOCFRAME ISTACK, 0, STACK
        LOCFRAME PSTACK, 0, STACK
        LOCFRAME XSTACK, 18, STACK
        LOCFRAME IOVERLAY, 0, STATIC
        LOCFRAME DOVERLAY, 0, STATIC
        ARGFRAME ISTACK, 0, STACK
        ARGFRAME PSTACK, 0, STACK
        ARGFRAME XSTACK, 18, STACK
        ARGFRAME IOVERLAY, 0, STATIC
        ARGFRAME DOVERLAY, 0, STATIC
        FUNCALL ZDApp_event_loop, ZDO_UpdateNwkStatus
        LOCFRAME ISTACK, 0, STACK
        LOCFRAME PSTACK, 0, STACK
        LOCFRAME XSTACK, 14, STACK
        LOCFRAME IOVERLAY, 0, STATIC
        LOCFRAME DOVERLAY, 0, STATIC
        ARGFRAME ISTACK, 0, STACK
        ARGFRAME PSTACK, 0, STACK
        ARGFRAME XSTACK, 14, STACK
        ARGFRAME IOVERLAY, 0, STATIC
        ARGFRAME DOVERLAY, 0, STATIC
        FUNCALL ZDApp_event_loop, osal_start_timerEx
        LOCFRAME ISTACK, 0, STACK
        LOCFRAME PSTACK, 0, STACK
        LOCFRAME XSTACK, 18, STACK
        LOCFRAME IOVERLAY, 0, STATIC
        LOCFRAME DOVERLAY, 0, STATIC
        ARGFRAME ISTACK, 0, STACK
        ARGFRAME PSTACK, 0, STACK
        ARGFRAME XSTACK, 18, STACK
        ARGFRAME IOVERLAY, 0, STATIC
        ARGFRAME DOVERLAY, 0, STATIC
        FUNCALL ZDApp_event_loop, zgWriteStartupOptions
        LOCFRAME ISTACK, 0, STACK
        LOCFRAME PSTACK, 0, STACK
        LOCFRAME XSTACK, 14, STACK
        LOCFRAME IOVERLAY, 0, STATIC
        LOCFRAME DOVERLAY, 0, STATIC
        ARGFRAME ISTACK, 0, STACK
        ARGFRAME PSTACK, 0, STACK
        ARGFRAME XSTACK, 14, STACK
        ARGFRAME IOVERLAY, 0, STATIC
        ARGFRAME DOVERLAY, 0, STATIC
        FUNCALL ZDApp_event_loop, Onboard_soft_reset
        LOCFRAME ISTACK, 0, STACK
        LOCFRAME PSTACK, 0, STACK
        LOCFRAME XSTACK, 14, STACK
        LOCFRAME IOVERLAY, 0, STATIC
        LOCFRAME DOVERLAY, 0, STATIC
        ARGFRAME ISTACK, 0, STACK
        ARGFRAME PSTACK, 0, STACK
        ARGFRAME XSTACK, 14, STACK
        ARGFRAME IOVERLAY, 0, STATIC
        ARGFRAME DOVERLAY, 0, STATIC
        FUNCALL ZDApp_event_loop, ZDApp_AgeOutPendingBindEntry
        LOCFRAME ISTACK, 0, STACK
        LOCFRAME PSTACK, 0, STACK
        LOCFRAME XSTACK, 14, STACK
        LOCFRAME IOVERLAY, 0, STATIC
        LOCFRAME DOVERLAY, 0, STATIC
        ARGFRAME ISTACK, 0, STACK
        ARGFRAME PSTACK, 0, STACK
        ARGFRAME XSTACK, 14, STACK
        ARGFRAME IOVERLAY, 0, STATIC
        ARGFRAME DOVERLAY, 0, STATIC
        FUNCALL ZDApp_event_loop, ZDApp_ProcessSecEvent
        LOCFRAME ISTACK, 0, STACK
        LOCFRAME PSTACK, 0, STACK
        LOCFRAME XSTACK, 14, STACK
        LOCFRAME IOVERLAY, 0, STATIC
        LOCFRAME DOVERLAY, 0, STATIC
        ARGFRAME ISTACK, 0, STACK
        ARGFRAME PSTACK, 0, STACK
        ARGFRAME XSTACK, 14, STACK
        ARGFRAME IOVERLAY, 0, STATIC
        ARGFRAME DOVERLAY, 0, STATIC
        REQUIRE ?V0
        REQUIRE ?V1
        REQUIRE ?V2
        REQUIRE ?V4
        REQUIRE ?V5
        MOV       A,#-0xe
        LCALL     ?BANKED_ENTER_XDATA
          CFI DPH0 load(1, XDATA, add(CFA_XSP16, literal(-1)))
          CFI DPL0 load(1, XDATA, add(CFA_XSP16, literal(-2)))
          CFI ?BRET_EXT load(1, XDATA, add(CFA_XSP16, literal(-3)))
          CFI ?RET_HIGH load(1, XDATA, add(CFA_XSP16, literal(-4)))
          CFI ?RET_LOW load(1, XDATA, add(CFA_XSP16, literal(-5)))
          CFI R7 load(1, XDATA, add(CFA_XSP16, literal(-6)))
          CFI V5 load(1, XDATA, add(CFA_XSP16, literal(-7)))
          CFI V4 load(1, XDATA, add(CFA_XSP16, literal(-8)))
          CFI V3 load(1, XDATA, add(CFA_XSP16, literal(-9)))
          CFI V2 load(1, XDATA, add(CFA_XSP16, literal(-10)))
          CFI V1 load(1, XDATA, add(CFA_XSP16, literal(-11)))
          CFI V0 load(1, XDATA, add(CFA_XSP16, literal(-12)))
          CFI VB load(1, XDATA, add(CFA_XSP16, literal(-13)))
          CFI R6 load(1, XDATA, add(CFA_XSP16, literal(-14)))
          CFI CFA_SP SP+0
          CFI CFA_XSP16 add(XSP16, 14)
        ; Saved register size: 14
        ; Auto size: 0
        MOV       ?V2,R1
        MOV       A,R2
        MOV       R6,A
        MOV       A,R3
        MOV       R7,A
//  419   uint8 *msg_ptr;
//  420 
//  421   if ( events & SYS_EVENT_MSG )
        ANL       A,#0x80
        JNZ       ??ZDApp_event_loop_0
//  422   {
//  423     while ( (msg_ptr = osal_msg_receive( ZDAppTaskID )) )
//  424     {
//  425       ZDApp_ProcessOSALMsg( (osal_event_hdr_t *)msg_ptr );
//  426 
//  427       // Release the memory
//  428       osal_msg_deallocate( msg_ptr );
//  429     }
//  430 
//  431     // Return unprocessed events
//  432     return (events ^ SYS_EVENT_MSG);
//  433   }
//  434 
//  435   if ( events & ZDO_NETWORK_INIT )
        MOV       A,R2
        MOV       C,0xE0 /* A   */.0
        JNC       ??ZDApp_event_loop_1
//  436   {
//  437     // Initialize apps and start the network
//  438     ZDApp_ChangeState( DEV_INIT );
        ; Setup parameters for call to function ZDApp_ChangeState
        MOV       R1,#0x1
        LCALL     `??ZDApp_ChangeState::?relay`; Banked call to: ZDApp_ChangeState
//  439 
//  440     ZDO_StartDevice( (uint8)ZDO_Config_Node_Descriptor.LogicalType, devStartMode,
//  441                      DEFAULT_BEACON_ORDER, DEFAULT_SUPERFRAME_ORDER );
        ; Setup parameters for call to function ZDO_StartDevice
        MOV       R4,#0xf
        MOV       R3,#0xf
        MOV       DPTR,#devStartMode
        MOVX      A,@DPTR
        MOV       R2,A
        MOV       DPTR,#ZDO_Config_Node_Descriptor
        MOVX      A,@DPTR
        ANL       A,#0x7
        MOV       R1,A
        LCALL     `??ZDO_StartDevice::?relay`; Banked call to: ZDO_StartDevice
//  442 
//  443     // Return unprocessed events
//  444     return (events ^ ZDO_NETWORK_INIT);
        MOV       A,R6
        XRL       A,#0x1
        LJMP      ??ZDApp_event_loop_2 & 0xFFFF
//  445   }
??ZDApp_event_loop_3:
        ; Setup parameters for call to function ZDApp_ProcessOSALMsg
        LCALL     `??ZDApp_ProcessOSALMsg::?relay`; Banked call to: ZDApp_ProcessOSALMsg
        ; Setup parameters for call to function osal_msg_deallocate
        MOV       R2,?V0
        MOV       R3,?V1
        LCALL     `??osal_msg_deallocate::?relay`; Banked call to: osal_msg_deallocate
??ZDApp_event_loop_0:
        ; Setup parameters for call to function osal_msg_receive
        MOV       DPTR,#ZDAppTaskID
        MOVX      A,@DPTR
        MOV       R1,A
        LCALL     `??osal_msg_receive::?relay`; Banked call to: osal_msg_receive
        MOV       ?V0,R2
        MOV       ?V1,R3
        MOV       A,R2
        ORL       A,R3
        JNZ       ??ZDApp_event_loop_3
        MOV       A,R6
        MOV       R2,A
        MOV       A,R7
        XRL       A,#0x80
        LJMP      ??ZDApp_event_loop_4 & 0xFFFF
//  446 
//  447   if ( ZSTACK_ROUTER_BUILD )
//  448   {
//  449     if ( events & ZDO_NETWORK_START )
//  450     {
//  451       ZDApp_NetworkStartEvt();
//  452 
//  453       // Return unprocessed events
//  454       return (events ^ ZDO_NETWORK_START);
//  455     }
//  456 
//  457     if ( events & ZDO_ROUTER_START )
//  458     {
//  459       if ( nwkStatus == ZSuccess )
//  460       {
//  461         if ( devState == DEV_END_DEVICE )
//  462         {
//  463           ZDApp_ChangeState( DEV_ROUTER );
//  464         }
//  465 
//  466         osal_pwrmgr_device( PWRMGR_ALWAYS_ON );
//  467 
//  468         if ( zgChildAgingEnable == TRUE )
//  469         {
//  470           // Once the device has changed its state to a ROUTER set the timer to send
//  471           // Parent annce
//  472           ZDApp_SetParentAnnceTimer();
//  473         }
//  474       }
//  475       else
//  476       {
//  477         // remain as end device
//  478       }
//  479       osal_set_event( ZDAppTaskID, ZDO_STATE_CHANGE_EVT );
//  480 
//  481       // Return unprocessed events
//  482       return (events ^ ZDO_ROUTER_START);
//  483     }
//  484 
//  485     if ( events & ZDO_PARENT_ANNCE_EVT )
//  486     {
//  487       ZDApp_SendParentAnnce();
//  488 
//  489       // Return unprocessed events
//  490       return (events ^ ZDO_PARENT_ANNCE_EVT);
//  491     }
//  492   }
//  493 
//  494   if( events & ZDO_REJOIN_BACKOFF )
??ZDApp_event_loop_1:
        MOV       A,R3
        ANL       A,#0x20
        JZ        ??ZDApp_event_loop_5
//  495   {
//  496     if( devState == DEV_NWK_BACKOFF )
        MOV       DPTR,#devState
        MOVX      A,@DPTR
        XRL       A,#0xc
        JNZ       ??ZDApp_event_loop_6
//  497     {
//  498       ZDApp_ChangeState(DEV_NWK_DISC);
        ; Setup parameters for call to function ZDApp_ChangeState
        MOV       R1,#0x2
        LCALL     `??ZDApp_ChangeState::?relay`; Banked call to: ZDApp_ChangeState
//  499       // Restart scan for rejoin
//  500       ZDApp_StartJoiningCycle();
        ; Setup parameters for call to function ZDApp_StartJoiningCycle
        LCALL     `??ZDApp_StartJoiningCycle::?relay`; Banked call to: ZDApp_StartJoiningCycle
//  501       osal_start_timerEx( ZDAppTaskID, ZDO_REJOIN_BACKOFF, zgDefaultRejoinScan );
        ; Setup parameters for call to function osal_start_timerEx
        MOV       DPTR,#zgDefaultRejoinScan
        SJMP      ??ZDApp_event_loop_7
//  502     }
//  503     else
//  504     {
//  505       // Rejoin backoff, silent period
//  506       ZDApp_ChangeState(DEV_NWK_BACKOFF);
??ZDApp_event_loop_6:
        ; Setup parameters for call to function ZDApp_ChangeState
        MOV       R1,#0xc
        LCALL     `??ZDApp_ChangeState::?relay`; Banked call to: ZDApp_ChangeState
//  507       ZDApp_StopJoiningCycle();
        ; Setup parameters for call to function ZDApp_StopJoiningCycle
        LCALL     `??ZDApp_StopJoiningCycle::?relay`; Banked call to: ZDApp_StopJoiningCycle
//  508       osal_start_timerEx( ZDAppTaskID, ZDO_REJOIN_BACKOFF, zgDefaultRejoinBackoff );
        ; Setup parameters for call to function osal_start_timerEx
        MOV       DPTR,#zgDefaultRejoinBackoff
??ZDApp_event_loop_7:
        LCALL     ?PUSH_XSTACK8_X_FOUR
          CFI CFA_XSP16 add(XSP16, 18)
        MOV       R2,#0x0
        MOV       R3,#0x20
//  509     }
        LCALL     ??Subroutine53_0 & 0xFFFF
??CrossCallReturnLabel_84:
        LCALL     ?DEALLOC_XSTACK8
          CFI CFA_XSP16 add(XSP16, 14)
//  510 
//  511     return ( events ^ ZDO_REJOIN_BACKOFF);
        MOV       A,R6
        MOV       R2,A
        MOV       A,R7
        XRL       A,#0x20
        SJMP      ??ZDApp_event_loop_4
//  512   }
//  513 
//  514   if ( events & ZDO_STATE_CHANGE_EVT )
??ZDApp_event_loop_5:
        MOV       A,R2
        ANL       A,#0x10
        JZ        ??ZDApp_event_loop_8
//  515   {
//  516     ZDO_UpdateNwkStatus( devState );
        ; Setup parameters for call to function ZDO_UpdateNwkStatus
        MOV       DPTR,#devState
        MOVX      A,@DPTR
        MOV       R1,A
        LCALL     `??ZDO_UpdateNwkStatus::?relay`; Banked call to: ZDO_UpdateNwkStatus
//  517 
//  518     // At start up, do one MTO route discovery if the device is a concentrator
//  519     if ( zgConcentratorEnable == TRUE )
        MOV       DPTR,#zgConcentratorEnable
        MOVX      A,@DPTR
        XRL       A,#0x1
        JNZ       ??ZDApp_event_loop_9
//  520     {
//  521       // Start next event
//  522       osal_start_timerEx( NWK_TaskID, NWK_MTO_RTG_REQ_EVT, 100 );
        ; Setup parameters for call to function osal_start_timerEx
        MOV       DPTR,#__Constant_64
        LCALL     ?PUSH_XSTACK8_X_FOUR
          CFI CFA_XSP16 add(XSP16, 18)
        MOV       R2,#0x0
        MOV       R3,#0x8
        MOV       DPTR,#NWK_TaskID
        LCALL     ??Subroutine54_0 & 0xFFFF
//  523     }
??CrossCallReturnLabel_86:
        LCALL     ?DEALLOC_XSTACK8
          CFI CFA_XSP16 add(XSP16, 14)
//  524 
//  525     // Return unprocessed events
//  526     return (events ^ ZDO_STATE_CHANGE_EVT);
??ZDApp_event_loop_9:
        MOV       A,R6
        XRL       A,#0x10
??ZDApp_event_loop_2:
        MOV       R2,A
        MOV       A,R7
        SJMP      ??ZDApp_event_loop_4
//  527   }
//  528 
//  529   if ( events & ZDO_COMMAND_CNF )
??ZDApp_event_loop_8:
        MOV       A,R2
        ANL       A,#0x8
        JZ        ??ZDApp_event_loop_10
//  530   {
//  531     // User defined logic
//  532 
//  533     // Return unprocessed events
//  534     return (events ^ ZDO_COMMAND_CNF);
        MOV       A,R2
        XRL       A,#0x8
        MOV       R2,A
        SJMP      ??ZDApp_event_loop_11
//  535   }
//  536 
//  537   if ( events & ZDO_NWK_UPDATE_NV )
??ZDApp_event_loop_10:
        MOV       A,R3
        ANL       A,#0x1
        JZ        ??ZDApp_event_loop_12
//  538   {
//  539     // Save only in valid state
//  540     if ( _NIB.nwkState == NWK_ROUTER || _NIB.nwkState == NWK_ENDDEVICE )
//  541     {
//  542       ZDApp_SaveNetworkStateEvt();
//  543     }
//  544 
//  545     // Return unprocessed events
//  546     return (events ^ ZDO_NWK_UPDATE_NV);
        MOV       A,R3
        XRL       A,#0x1
        SJMP      ??ZDApp_event_loop_4
//  547   }
//  548 
//  549   if ( events & ZDO_DEVICE_RESET )
??ZDApp_event_loop_12:
        MOV       A,R2
        ANL       A,#0x4
        JZ        ??ZDApp_event_loop_13
//  550   {
//  551 #ifdef ZBA_FALLBACK_NWKKEY
//  552     if ( devState == DEV_END_DEVICE_UNAUTH )
//  553     {
//  554       ZDSecMgrFallbackNwkKey();
//  555     }
//  556     else
//  557 #endif
//  558     {
//  559       // Set the NV startup option to force a "new" join.
//  560       zgWriteStartupOptions( ZG_STARTUP_SET, ZCD_STARTOPT_DEFAULT_NETWORK_STATE );
        ; Setup parameters for call to function zgWriteStartupOptions
        MOV       R2,#0x2
        MOV       R1,#-0x1
        LCALL     `??zgWriteStartupOptions::?relay`; Banked call to: zgWriteStartupOptions
//  561 
//  562       // The device has been in the UNAUTH state, so reset
//  563       // Note: there will be no return from this call
//  564       SystemResetSoft();
        ; Setup parameters for call to function Onboard_soft_reset
        LCALL     Onboard_soft_reset & 0xFFFF
//  565     }
//  566   }
//  567 
//  568 #if !defined ( ZDP_BIND_SKIP_VALIDATION )
//  569   if ( events & ZDO_PENDING_BIND_REQ_EVT )
??ZDApp_event_loop_13:
        MOV       A,R7
        ANL       A,#0x10
        JZ        ??ZDApp_event_loop_14
//  570   {
//  571 #if defined ( REFLECTOR )
//  572     ZDApp_AgeOutPendingBindEntry();
        ; Setup parameters for call to function ZDApp_AgeOutPendingBindEntry
        LCALL     `??ZDApp_AgeOutPendingBindEntry::?relay`; Banked call to: ZDApp_AgeOutPendingBindEntry
//  573 #endif
//  574     // Return unprocessed events
//  575     return (events ^ ZDO_PENDING_BIND_REQ_EVT);
        MOV       A,R6
        MOV       R2,A
        MOV       A,R7
        XRL       A,#0x10
??ZDApp_event_loop_4:
        MOV       R3,A
        SJMP      ??ZDApp_event_loop_11
//  576   }
//  577 #endif
//  578 
//  579   if ( ZG_SECURE_ENABLED )
//  580   {
//  581     return ( ZDApp_ProcessSecEvent( task_id, events ) );
??ZDApp_event_loop_14:
        ; Setup parameters for call to function ZDApp_ProcessSecEvent
        MOV       A,R6
        MOV       R2,A
        MOV       A,R7
        MOV       R3,A
        MOV       R1,?V2
        LCALL     `??ZDApp_ProcessSecEvent::?relay`; Banked call to: ZDApp_ProcessSecEvent
//  582   }
??ZDApp_event_loop_11:
        LJMP      ?Subroutine1 & 0xFFFF
//  583   else
//  584   {
//  585     // Discard or make more handlers
//  586     return 0;
//  587   }
//  588 }
          CFI EndBlock cfiBlock2
//  589 
//  590 /*********************************************************************
//  591  * @fn      ZDApp_ProcessSecEvent()
//  592  *
//  593  * @brief   Process incoming security events.
//  594  *
//  595  * @param   task_id - Task ID
//  596  * @param   events  - Bitmap of events
//  597  *
//  598  * @return  none
//  599  */

        RSEG BANKED_CODE:HUGECODE:NOROOT(0)
//  600 UINT16 ZDApp_ProcessSecEvent( uint8 task_id, UINT16 events )
ZDApp_ProcessSecEvent:
          CFI Block cfiBlock3 Using cfiCommon0
          CFI Function ZDApp_ProcessSecEvent
        CODE
//  601 {
        FUNCALL ZDApp_ProcessSecEvent, ZDApp_DeviceAuthEvt
        LOCFRAME ISTACK, 0, STACK
        LOCFRAME PSTACK, 0, STACK
        LOCFRAME XSTACK, 9, STACK
        LOCFRAME IOVERLAY, 0, STATIC
        LOCFRAME DOVERLAY, 0, STATIC
        ARGFRAME ISTACK, 0, STACK
        ARGFRAME PSTACK, 0, STACK
        ARGFRAME XSTACK, 9, STACK
        ARGFRAME IOVERLAY, 0, STATIC
        ARGFRAME DOVERLAY, 0, STATIC
        FUNCALL ZDApp_ProcessSecEvent, ZDApp_SaveNwkKey
        LOCFRAME ISTACK, 0, STACK
        LOCFRAME PSTACK, 0, STACK
        LOCFRAME XSTACK, 9, STACK
        LOCFRAME IOVERLAY, 0, STATIC
        LOCFRAME DOVERLAY, 0, STATIC
        ARGFRAME ISTACK, 0, STACK
        ARGFRAME PSTACK, 0, STACK
        ARGFRAME XSTACK, 9, STACK
        ARGFRAME IOVERLAY, 0, STATIC
        ARGFRAME DOVERLAY, 0, STATIC
        FUNCALL ZDApp_ProcessSecEvent, ZDSecMgrSaveTCLinkKey
        LOCFRAME ISTACK, 0, STACK
        LOCFRAME PSTACK, 0, STACK
        LOCFRAME XSTACK, 9, STACK
        LOCFRAME IOVERLAY, 0, STATIC
        LOCFRAME DOVERLAY, 0, STATIC
        ARGFRAME ISTACK, 0, STACK
        ARGFRAME PSTACK, 0, STACK
        ARGFRAME XSTACK, 9, STACK
        ARGFRAME IOVERLAY, 0, STATIC
        ARGFRAME DOVERLAY, 0, STATIC
        MOV       A,#-0x9
        LCALL     ?BANKED_ENTER_XDATA
          CFI DPH0 load(1, XDATA, add(CFA_XSP16, literal(-1)))
          CFI DPL0 load(1, XDATA, add(CFA_XSP16, literal(-2)))
          CFI ?BRET_EXT load(1, XDATA, add(CFA_XSP16, literal(-3)))
          CFI ?RET_HIGH load(1, XDATA, add(CFA_XSP16, literal(-4)))
          CFI ?RET_LOW load(1, XDATA, add(CFA_XSP16, literal(-5)))
          CFI R7 load(1, XDATA, add(CFA_XSP16, literal(-6)))
          CFI V0 load(1, XDATA, add(CFA_XSP16, literal(-7)))
          CFI VB load(1, XDATA, add(CFA_XSP16, literal(-8)))
          CFI R6 load(1, XDATA, add(CFA_XSP16, literal(-9)))
          CFI CFA_SP SP+0
          CFI CFA_XSP16 add(XSP16, 9)
        ; Saved register size: 9
        ; Auto size: 0
        MOV       A,R2
        MOV       R6,A
        MOV       A,R3
        MOV       R7,A
//  602   (void)task_id;  // Intentionally unreferenced parameter
//  603 
//  604   if ( ZSTACK_ROUTER_BUILD )
//  605   {
//  606     if ( events & ZDO_NEW_DEVICE )
//  607     {
//  608       // process the new device event
//  609       if ( ZDApp_NewDeviceList )
//  610       {
//  611         ZDAppNewDevice_t *pNewDevice;
//  612         uint16 timeDelta;
//  613 
//  614         (void) ZDSecMgrNewDeviceEvent( ZDApp_NewDeviceList->shortAddr );
//  615 
//  616         pNewDevice = (ZDAppNewDevice_t *) ZDApp_NewDeviceList->next;
//  617         osal_mem_free( ZDApp_NewDeviceList );
//  618         ZDApp_NewDeviceList = pNewDevice;
//  619 
//  620         if ( pNewDevice )
//  621         {
//  622           timeDelta = pNewDevice->timeDelta;
//  623           pNewDevice = pNewDevice->next;
//  624 
//  625           while ( pNewDevice )
//  626           {
//  627             pNewDevice->timeDelta -= timeDelta;
//  628             pNewDevice = pNewDevice->next;
//  629           }
//  630 
//  631           osal_start_timerEx( ZDAppTaskID, ZDO_NEW_DEVICE, timeDelta );
//  632         }
//  633       }
//  634 
//  635       // Return unprocessed events
//  636       return (events ^ ZDO_NEW_DEVICE);
//  637     }
//  638   }
//  639 
//  640   if ( events & ZDO_DEVICE_AUTH )
        MOV       A,R2
        ANL       A,#0x80
        JZ        ??ZDApp_ProcessSecEvent_0
//  641   {
//  642     ZDApp_DeviceAuthEvt();
        ; Setup parameters for call to function ZDApp_DeviceAuthEvt
        LCALL     `??ZDApp_DeviceAuthEvt::?relay`; Banked call to: ZDApp_DeviceAuthEvt
//  643 
//  644     // Return unprocessed events
//  645     return (events ^ ZDO_DEVICE_AUTH);
        MOV       A,R6
        XRL       A,#0x80
        MOV       R2,A
        MOV       A,R7
        SJMP      ??ZDApp_ProcessSecEvent_1
//  646   }
//  647 
//  648   if ( events & ZDO_FRAMECOUNTER_CHANGE )
??ZDApp_ProcessSecEvent_0:
        MOV       A,R3
        ANL       A,#0x2
        JZ        ??ZDApp_ProcessSecEvent_2
//  649   {
//  650     ZDApp_SaveNwkKey();
        ; Setup parameters for call to function ZDApp_SaveNwkKey
        LCALL     `??ZDApp_SaveNwkKey::?relay`; Banked call to: ZDApp_SaveNwkKey
//  651 
//  652     // Return unprocessed events
//  653     return (events ^ ZDO_FRAMECOUNTER_CHANGE);
        MOV       A,R6
        MOV       R2,A
        MOV       A,R7
        XRL       A,#0x2
        SJMP      ??ZDApp_ProcessSecEvent_1
//  654   }
//  655 
//  656   if ( events & ZDO_APS_FRAMECOUNTER_CHANGE )
??ZDApp_ProcessSecEvent_2:
        MOV       A,R3
        ANL       A,#0x8
        JZ        ??ZDApp_ProcessSecEvent_3
//  657   {
//  658 #if defined (NV_RESTORE)
//  659     ZDSecMgrSaveApsLinkKey();
//  660 #endif // (NV_RESTORE)
//  661 
//  662     // Return unprocessed events
//  663     return (events ^ ZDO_APS_FRAMECOUNTER_CHANGE);
        MOV       A,R3
        XRL       A,#0x8
        SJMP      ??ZDApp_ProcessSecEvent_1
//  664   }
//  665 
//  666   if ( events & ZDO_TCLK_FRAMECOUNTER_CHANGE )
??ZDApp_ProcessSecEvent_3:
        MOV       A,R3
        ANL       A,#0x4
        JZ        ??ZDApp_ProcessSecEvent_4
//  667   {
//  668     ZDSecMgrSaveTCLinkKey();
        ; Setup parameters for call to function ZDSecMgrSaveTCLinkKey
        LCALL     `??ZDSecMgrSaveTCLinkKey::?relay`; Banked call to: ZDSecMgrSaveTCLinkKey
//  669 
//  670     // Return unprocessed events
//  671     return (events ^ ZDO_TCLK_FRAMECOUNTER_CHANGE);
        MOV       A,R6
        MOV       R2,A
        MOV       A,R7
        XRL       A,#0x4
??ZDApp_ProcessSecEvent_1:
        MOV       R3,A
        SJMP      ??ZDApp_ProcessSecEvent_5
//  672   }
//  673 
//  674   // Discard or make more handlers
//  675   return 0;
??ZDApp_ProcessSecEvent_4:
        MOV       R2,#0x0
        MOV       R3,#0x0
??ZDApp_ProcessSecEvent_5:
        LJMP      ??Subroutine64_0 & 0xFFFF
//  676 }
          CFI EndBlock cfiBlock3
//  677 
//  678 /*********************************************************************
//  679  * Application Functions
//  680  */
//  681 
//  682 /*********************************************************************
//  683  * @fn      ZDOInitDevice
//  684  *
//  685  * @brief   Start the device in the network.  This function will read
//  686  *   ZCD_NV_STARTUP_OPTION (NV item) to determine whether or not to
//  687  *   restore the network state of the device.
//  688  *
//  689  * @param   startDelay - timeDelay to start device (in milliseconds).
//  690  *                       There is a jitter added to this delay:
//  691  *                       ((NWK_START_DELAY + startDelay)
//  692  *                       + (osal_rand() & EXTENDED_JOINING_RANDOM_MASK))
//  693  *                       When startDelay is set to ZDO_INIT_HOLD_NWK_START
//  694  *                       this function will hold the network init. Application
//  695  *                       can start the device.
//  696  *
//  697  * NOTE:    If the application would like to force a "new" join, the
//  698  *          application should set the ZCD_STARTOPT_DEFAULT_NETWORK_STATE
//  699  *          bit in the ZCD_NV_STARTUP_OPTION NV item before calling
//  700  *          this function. "new" join means to not restore the network
//  701  *          state of the device. Use zgWriteStartupOptions() to set these
//  702  *          options.
//  703  *
//  704  * @return
//  705  *    ZDO_INITDEV_RESTORED_NETWORK_STATE  - The device's network state was
//  706  *          restored.
//  707  *    ZDO_INITDEV_NEW_NETWORK_STATE - The network state was initialized.
//  708  *          This could mean that ZCD_NV_STARTUP_OPTION said to not restore, or
//  709  *          it could mean that there was no network state to restore.
//  710  */

        RSEG BANKED_CODE:HUGECODE:NOROOT(0)
//  711 uint8 ZDOInitDevice( uint16 startDelay )
ZDOInitDevice:
          CFI Block cfiBlock4 Using cfiCommon0
          CFI Function ZDOInitDevice
        CODE
//  712 {
        FUNCALL ZDOInitDevice, zgInitItems
        LOCFRAME ISTACK, 0, STACK
        LOCFRAME PSTACK, 0, STACK
        LOCFRAME XSTACK, 12, STACK
        LOCFRAME IOVERLAY, 0, STATIC
        LOCFRAME DOVERLAY, 0, STATIC
        ARGFRAME ISTACK, 0, STACK
        ARGFRAME PSTACK, 0, STACK
        ARGFRAME XSTACK, 12, STACK
        ARGFRAME IOVERLAY, 0, STATIC
        ARGFRAME DOVERLAY, 0, STATIC
        FUNCALL ZDOInitDevice, ZDConfig_InitDescriptors
        LOCFRAME ISTACK, 0, STACK
        LOCFRAME PSTACK, 0, STACK
        LOCFRAME XSTACK, 12, STACK
        LOCFRAME IOVERLAY, 0, STATIC
        LOCFRAME DOVERLAY, 0, STATIC
        ARGFRAME ISTACK, 0, STACK
        ARGFRAME PSTACK, 0, STACK
        ARGFRAME XSTACK, 12, STACK
        ARGFRAME IOVERLAY, 0, STATIC
        ARGFRAME DOVERLAY, 0, STATIC
        FUNCALL ZDOInitDevice, ZDAppDetermineDeviceType
        LOCFRAME ISTACK, 0, STACK
        LOCFRAME PSTACK, 0, STACK
        LOCFRAME XSTACK, 12, STACK
        LOCFRAME IOVERLAY, 0, STATIC
        LOCFRAME DOVERLAY, 0, STATIC
        ARGFRAME ISTACK, 0, STACK
        ARGFRAME PSTACK, 0, STACK
        ARGFRAME XSTACK, 12, STACK
        ARGFRAME IOVERLAY, 0, STATIC
        ARGFRAME DOVERLAY, 0, STATIC
        FUNCALL ZDOInitDevice, osal_rand
        LOCFRAME ISTACK, 0, STACK
        LOCFRAME PSTACK, 0, STACK
        LOCFRAME XSTACK, 12, STACK
        LOCFRAME IOVERLAY, 0, STATIC
        LOCFRAME DOVERLAY, 0, STATIC
        ARGFRAME ISTACK, 0, STACK
        ARGFRAME PSTACK, 0, STACK
        ARGFRAME XSTACK, 12, STACK
        ARGFRAME IOVERLAY, 0, STATIC
        ARGFRAME DOVERLAY, 0, STATIC
        FUNCALL ZDOInitDevice, ZDApp_SecInit
        LOCFRAME ISTACK, 0, STACK
        LOCFRAME PSTACK, 0, STACK
        LOCFRAME XSTACK, 12, STACK
        LOCFRAME IOVERLAY, 0, STATIC
        LOCFRAME DOVERLAY, 0, STATIC
        ARGFRAME ISTACK, 0, STACK
        ARGFRAME PSTACK, 0, STACK
        ARGFRAME XSTACK, 12, STACK
        ARGFRAME IOVERLAY, 0, STATIC
        ARGFRAME DOVERLAY, 0, STATIC
        FUNCALL ZDOInitDevice, ZDApp_LeaveCtrlInit
        LOCFRAME ISTACK, 0, STACK
        LOCFRAME PSTACK, 0, STACK
        LOCFRAME XSTACK, 12, STACK
        LOCFRAME IOVERLAY, 0, STATIC
        LOCFRAME DOVERLAY, 0, STATIC
        ARGFRAME ISTACK, 0, STACK
        ARGFRAME PSTACK, 0, STACK
        ARGFRAME XSTACK, 12, STACK
        ARGFRAME IOVERLAY, 0, STATIC
        ARGFRAME DOVERLAY, 0, STATIC
        FUNCALL ZDOInitDevice, ZDApp_NetworkInit
        LOCFRAME ISTACK, 0, STACK
        LOCFRAME PSTACK, 0, STACK
        LOCFRAME XSTACK, 12, STACK
        LOCFRAME IOVERLAY, 0, STATIC
        LOCFRAME DOVERLAY, 0, STATIC
        ARGFRAME ISTACK, 0, STACK
        ARGFRAME PSTACK, 0, STACK
        ARGFRAME XSTACK, 12, STACK
        ARGFRAME IOVERLAY, 0, STATIC
        ARGFRAME DOVERLAY, 0, STATIC
        FUNCALL ZDOInitDevice, NLME_SetBroadcastFilter
        LOCFRAME ISTACK, 0, STACK
        LOCFRAME PSTACK, 0, STACK
        LOCFRAME XSTACK, 12, STACK
        LOCFRAME IOVERLAY, 0, STATIC
        LOCFRAME DOVERLAY, 0, STATIC
        ARGFRAME ISTACK, 0, STACK
        ARGFRAME PSTACK, 0, STACK
        ARGFRAME XSTACK, 12, STACK
        ARGFRAME IOVERLAY, 0, STATIC
        ARGFRAME DOVERLAY, 0, STATIC
        REQUIRE ?V0
        REQUIRE ?V1
        REQUIRE ?V2
        REQUIRE ?V3
        MOV       A,#-0xc
        LCALL     ?BANKED_ENTER_XDATA
          CFI DPH0 load(1, XDATA, add(CFA_XSP16, literal(-1)))
          CFI DPL0 load(1, XDATA, add(CFA_XSP16, literal(-2)))
          CFI ?BRET_EXT load(1, XDATA, add(CFA_XSP16, literal(-3)))
          CFI ?RET_HIGH load(1, XDATA, add(CFA_XSP16, literal(-4)))
          CFI ?RET_LOW load(1, XDATA, add(CFA_XSP16, literal(-5)))
          CFI R7 load(1, XDATA, add(CFA_XSP16, literal(-6)))
          CFI V3 load(1, XDATA, add(CFA_XSP16, literal(-7)))
          CFI V2 load(1, XDATA, add(CFA_XSP16, literal(-8)))
          CFI V1 load(1, XDATA, add(CFA_XSP16, literal(-9)))
          CFI V0 load(1, XDATA, add(CFA_XSP16, literal(-10)))
          CFI VB load(1, XDATA, add(CFA_XSP16, literal(-11)))
          CFI R6 load(1, XDATA, add(CFA_XSP16, literal(-12)))
          CFI CFA_SP SP+0
          CFI CFA_XSP16 add(XSP16, 12)
        ; Saved register size: 12
        ; Auto size: 0
        MOV       ?V0,R2
        MOV       ?V1,R3
//  713   uint8 networkStateNV = ZDO_INITDEV_NEW_NETWORK_STATE;
//  714   uint16 extendedDelay = 0;
//  715 
//  716   if ( devState == DEV_HOLD )
        MOV       DPTR,#devState
        MOVX      A,@DPTR
        JNZ       ??ZDOInitDevice_0
//  717   {
//  718     // Initialize the RAM items table, in case an NV item has been updated.
//  719     zgInitItems( FALSE );
        ; Setup parameters for call to function zgInitItems
        MOV       R1,#0x0
        LCALL     `??zgInitItems::?relay`; Banked call to: zgInitItems
//  720   }
//  721 
//  722   ZDConfig_InitDescriptors();
??ZDOInitDevice_0:
        ; Setup parameters for call to function ZDConfig_InitDescriptors
        LCALL     `??ZDConfig_InitDescriptors::?relay`; Banked call to: ZDConfig_InitDescriptors
//  723   //devtag.071807.todo - fix this temporary solution
//  724   _NIB.CapabilityFlags = ZDO_Config_Node_Descriptor.CapabilityFlags;
        MOV       DPTR,#ZDO_Config_Node_Descriptor + 2
        MOVX      A,@DPTR
        MOV       DPTR,#_NIB + 14
        MOVX      @DPTR,A
//  725 
//  726 #if defined ( NV_RESTORE )
//  727   // Hold down the SW_BYPASS_NV key (defined in OnBoard.h)
//  728   // while booting to skip past NV Restore.
//  729 //  if ( zdappHoldKeys == SW_BYPASS_NV )
//  730 //  {
//  731 //    zdappHoldKeys = 0;   // Only once
//  732 //    networkStateNV = ZDO_INITDEV_NEW_NETWORK_STATE;
//  733 //  }
//  734 //  else
//  735 //  {
//  736 //    // Determine if NV should be restored
//  737 //    networkStateNV = ZDApp_ReadNetworkRestoreState();
//  738 //  }
//  739   networkStateNV = ZDApp_ReadNetworkRestoreState();
//  740 
//  741   if ( networkStateNV == ZDO_INITDEV_RESTORED_NETWORK_STATE )
//  742   {
//  743     networkStateNV = ZDApp_RestoreNetworkState();
//  744     runtimeChannel = (uint32) (1L << _NIB.nwkLogicalChannel);
//  745   }
//  746   else
//  747   {
//  748     // Wipe out the network state in NV
//  749     NLME_InitNV();
//  750     NLME_SetDefaultNV();
//  751     // clear NWK key values
//  752     ZDSecMgrClearNVKeyValues();
//  753   }
//  754 #endif
//  755 
//  756   if ( networkStateNV == ZDO_INITDEV_NEW_NETWORK_STATE )
//  757   {
//  758     ZDAppDetermineDeviceType();
        ; Setup parameters for call to function ZDAppDetermineDeviceType
        LCALL     `??ZDAppDetermineDeviceType::?relay`; Banked call to: ZDAppDetermineDeviceType
//  759 
//  760     // Only delay if joining network - not restoring network state
//  761     extendedDelay = (uint16)((NWK_START_DELAY + startDelay)
//  762               + (osal_rand() & EXTENDED_JOINING_RANDOM_MASK));
        ; Setup parameters for call to function osal_rand
        LCALL     `??osal_rand::?relay`; Banked call to: osal_rand
        MOV       A,R2
        ANL       A,#0x7f
        MOV       R0,A
        MOV       A,?V0
        ADD       A,R0
        MOV       R0,A
        CLR       A
        ADDC      A,?V1
        MOV       R1,A
        MOV       A,R0
        ADD       A,#0x64
        MOV       R6,A
        CLR       A
        ADDC      A,R1
        MOV       R7,A
//  763 
//  764     runtimeChannel = zgDefaultChannelList;
        MOV       DPTR,#zgDefaultChannelList
        LCALL     ?XLOAD_R0123
        MOV       DPTR,#runtimeChannel
        LCALL     ?XSTORE_R0123
//  765   }
//  766 
//  767   // Initialize the security for type of device
//  768   ZDApp_SecInit( networkStateNV );
        ; Setup parameters for call to function ZDApp_SecInit
        MOV       R1,#0x1
        LCALL     `??ZDApp_SecInit::?relay`; Banked call to: ZDApp_SecInit
//  769 
//  770   if( ZDO_INIT_HOLD_NWK_START != startDelay )
        MOV       A,#-0x1
        XRL       A,?V0
        JNZ       ??ZDOInitDevice_1
        MOV       A,#-0x1
        XRL       A,?V1
??ZDOInitDevice_1:
        JZ        ??ZDOInitDevice_2
//  771   {
//  772     devState = DEV_INIT;    // Remove the Hold state
        MOV       DPTR,#devState
        MOV       A,#0x1
        MOVX      @DPTR,A
//  773 
//  774     // Initialize leave control logic
//  775     ZDApp_LeaveCtrlInit();
        ; Setup parameters for call to function ZDApp_LeaveCtrlInit
        LCALL     `??ZDApp_LeaveCtrlInit::?relay`; Banked call to: ZDApp_LeaveCtrlInit
//  776 
//  777     // Trigger the network start
//  778     ZDApp_NetworkInit( extendedDelay );
        ; Setup parameters for call to function ZDApp_NetworkInit
        MOV       A,R6
        MOV       R2,A
        MOV       A,R7
        MOV       R3,A
        LCALL     `??ZDApp_NetworkInit::?relay`; Banked call to: ZDApp_NetworkInit
//  779   }
//  780 
//  781   // set broadcast address mask to support broadcast filtering
//  782   NLME_SetBroadcastFilter( ZDO_Config_Node_Descriptor.CapabilityFlags );
??ZDOInitDevice_2:
        ; Setup parameters for call to function NLME_SetBroadcastFilter
        MOV       DPTR,#ZDO_Config_Node_Descriptor + 2
        MOVX      A,@DPTR
        MOV       R1,A
        LCALL     `??NLME_SetBroadcastFilter::?relay`; Banked call to: NLME_SetBroadcastFilter
//  783 
//  784   return ( networkStateNV );
        MOV       R1,#0x1
        LJMP      ??Subroutine72_0 & 0xFFFF
//  785 }
          CFI EndBlock cfiBlock4
//  786 
//  787 /*********************************************************************
//  788  * @fn      ZDApp_ReadNetworkRestoreState
//  789  *
//  790  * @brief   Read the ZCD_NV_STARTUP_OPTION NV Item to state whether
//  791  *          or not to restore the network state.
//  792  *          If the read value has the ZCD_STARTOPT_DEFAULT_NETWORK_STATE
//  793  *          bit set return the ZDO_INITDEV_NEW_NETWORK_STATE.
//  794  *
//  795  * @param   none
//  796  *
//  797  * @return  ZDO_INITDEV_NEW_NETWORK_STATE
//  798  *          or ZDO_INITDEV_RESTORED_NETWORK_STATE based on whether or
//  799  *          not ZCD_STARTOPT_DEFAULT_NETWORK_STATE bit is set in
//  800  *          ZCD_NV_STARTUP_OPTION
//  801  */

        RSEG BANKED_CODE:HUGECODE:NOROOT(0)
//  802 uint8 ZDApp_ReadNetworkRestoreState( void )
ZDApp_ReadNetworkRestoreState:
          CFI Block cfiBlock5 Using cfiCommon0
          CFI Function ZDApp_ReadNetworkRestoreState
        CODE
//  803 {
        FUNCALL ZDApp_ReadNetworkRestoreState, zgReadStartupOptions
        LOCFRAME ISTACK, 0, STACK
        LOCFRAME PSTACK, 0, STACK
        LOCFRAME XSTACK, 9, STACK
        LOCFRAME IOVERLAY, 0, STATIC
        LOCFRAME DOVERLAY, 0, STATIC
        ARGFRAME ISTACK, 0, STACK
        ARGFRAME PSTACK, 0, STACK
        ARGFRAME XSTACK, 9, STACK
        ARGFRAME IOVERLAY, 0, STATIC
        ARGFRAME DOVERLAY, 0, STATIC
        MOV       A,#-0x9
        LCALL     ?BANKED_ENTER_XDATA
          CFI DPH0 load(1, XDATA, add(CFA_XSP16, literal(-1)))
          CFI DPL0 load(1, XDATA, add(CFA_XSP16, literal(-2)))
          CFI ?BRET_EXT load(1, XDATA, add(CFA_XSP16, literal(-3)))
          CFI ?RET_HIGH load(1, XDATA, add(CFA_XSP16, literal(-4)))
          CFI ?RET_LOW load(1, XDATA, add(CFA_XSP16, literal(-5)))
          CFI R7 load(1, XDATA, add(CFA_XSP16, literal(-6)))
          CFI V0 load(1, XDATA, add(CFA_XSP16, literal(-7)))
          CFI VB load(1, XDATA, add(CFA_XSP16, literal(-8)))
          CFI R6 load(1, XDATA, add(CFA_XSP16, literal(-9)))
          CFI CFA_SP SP+0
          CFI CFA_XSP16 add(XSP16, 9)
        ; Saved register size: 9
        ; Auto size: 0
//  804   uint8 networkStateNV = ZDO_INITDEV_RESTORED_NETWORK_STATE;
        MOV       R6,#0x0
//  805 
//  806   // Look for the New Network State option.
//  807   if ( zgReadStartupOptions() & ZCD_STARTOPT_DEFAULT_NETWORK_STATE )
        ; Setup parameters for call to function zgReadStartupOptions
        LCALL     `??zgReadStartupOptions::?relay`; Banked call to: zgReadStartupOptions
        MOV       A,R1
        MOV       R0,A
        MOV       C,0xE0 /* A   */.1
        JNC       ??ZDApp_ReadNetworkRestoreState_0
//  808   {
//  809     networkStateNV = ZDO_INITDEV_NEW_NETWORK_STATE;
        MOV       R6,#0x1
//  810   }
//  811 
//  812   return ( networkStateNV );
??ZDApp_ReadNetworkRestoreState_0:
        MOV       A,R6
        MOV       R1,A
        LJMP      ??Subroutine64_0 & 0xFFFF
//  813 }
          CFI EndBlock cfiBlock5
//  814 
//  815 /*********************************************************************
//  816  * @fn      ZDAppDetermineDeviceType()
//  817  *
//  818  * @brief   Determines the type of device to start.
//  819  *
//  820  *          Looks at zgDeviceLogicalType and determines what type of
//  821  *          device to start.  The types are:
//  822  *            ZG_DEVICETYPE_COORDINATOR
//  823  *            ZG_DEVICETYPE_ROUTER
//  824  *            ZG_DEVICETYPE_ENDDEVICE
//  825  *
//  826  * @param   none
//  827  *
//  828  * @return  none
//  829  */

        RSEG BANKED_CODE:HUGECODE:NOROOT(0)
//  830 void ZDAppDetermineDeviceType( void )
ZDAppDetermineDeviceType:
          CFI Block cfiBlock6 Using cfiCommon0
          CFI Function ZDAppDetermineDeviceType
        CODE
//  831 {
        FUNCALL ZDAppDetermineDeviceType, nwk_ExtPANIDValid
        LOCFRAME ISTACK, 2, STACK
        LOCFRAME PSTACK, 0, STACK
        LOCFRAME XSTACK, 0, STACK
        LOCFRAME IOVERLAY, 0, STATIC
        LOCFRAME DOVERLAY, 0, STATIC
        ARGFRAME ISTACK, 2, STACK
        ARGFRAME PSTACK, 0, STACK
        ARGFRAME XSTACK, 0, STACK
        ARGFRAME IOVERLAY, 0, STATIC
        ARGFRAME DOVERLAY, 0, STATIC
        PUSH      DPL
          CFI DPL0 Frame(CFA_SP, 4)
          CFI CFA_SP SP+-4
        PUSH      DPH
          CFI DPH0 Frame(CFA_SP, 5)
          CFI CFA_SP SP+-5
        ; Saved register size: 2
        ; Auto size: 0
//  832   if ( zgDeviceLogicalType == ZG_DEVICETYPE_COORDINATOR )
        MOV       DPTR,#zgDeviceLogicalType
        MOVX      A,@DPTR
        JNZ       ??ZDAppDetermineDeviceType_0
//  833   {
//  834     devStartMode = MODE_HARD;     // Start as a coordinator
        MOV       DPTR,#devStartMode
        MOV       A,#0x2
        MOVX      @DPTR,A
//  835     ZDO_Config_Node_Descriptor.LogicalType = NODETYPE_COORDINATOR;
        MOV       DPTR,#ZDO_Config_Node_Descriptor
        MOVX      A,@DPTR
        ANL       A,#0xf8
        SJMP      ??ZDAppDetermineDeviceType_1
//  836   }
//  837   else
//  838   {
//  839     if ( zgDeviceLogicalType == ZG_DEVICETYPE_ROUTER  )
??ZDAppDetermineDeviceType_0:
        MOV       DPTR,#ZDO_Config_Node_Descriptor
        MOVX      A,@DPTR
        ANL       A,#0xf8
        MOV       R0,A
        MOV       DPTR,#zgDeviceLogicalType
        MOVX      A,@DPTR
        XRL       A,#0x1
        JNZ       ??ZDAppDetermineDeviceType_2
//  840       ZDO_Config_Node_Descriptor.LogicalType = NODETYPE_ROUTER;
        MOV       A,#0x1
        SJMP      ??ZDAppDetermineDeviceType_3
//  841     else if ( zgDeviceLogicalType == ZG_DEVICETYPE_ENDDEVICE )
??ZDAppDetermineDeviceType_2:
        MOVX      A,@DPTR
        XRL       A,#0x2
        JNZ       ??ZDAppDetermineDeviceType_4
//  842       ZDO_Config_Node_Descriptor.LogicalType = NODETYPE_DEVICE;
        MOV       A,#0x2
??ZDAppDetermineDeviceType_3:
        ORL       A,R0
        MOV       DPTR,#ZDO_Config_Node_Descriptor
        MOVX      @DPTR,A
//  843 
//  844     // If AIB_apsUseExtendedPANID is set to a non-zero value by commissioning
//  845     // The device shall do rejoin the network. Otherwise, do normal join
//  846     if ( nwk_ExtPANIDValid( AIB_apsUseExtendedPANID ) == false )
??ZDAppDetermineDeviceType_4:
        ; Setup parameters for call to function nwk_ExtPANIDValid
        MOV       R2,#AIB_apsUseExtendedPANID & 0xff
        MOV       R3,#(AIB_apsUseExtendedPANID >> 8) & 0xff
        LCALL     `??nwk_ExtPANIDValid::?relay`; Banked call to: nwk_ExtPANIDValid
        MOV       A,R1
        MOV       DPTR,#devStartMode
        JNZ       ??ZDAppDetermineDeviceType_5
//  847     {
//  848       devStartMode = MODE_JOIN;     // Assume joining
        CLR       A
        SJMP      ??ZDAppDetermineDeviceType_1
//  849     }
//  850     else
//  851     {
//  852       devStartMode = MODE_REJOIN;
??ZDAppDetermineDeviceType_5:
        MOV       A,#0x3
        MOVX      @DPTR,A
//  853       prevDevState = DEV_NWK_SEC_REJOIN_CURR_CHANNEL;
        MOV       DPTR,#prevDevState
        INC       A
??ZDAppDetermineDeviceType_1:
        MOVX      @DPTR,A
//  854     }
//  855   }
//  856 }
        LJMP      ??Subroutine56_0 & 0xFFFF
          CFI EndBlock cfiBlock6
//  857 
//  858 /*********************************************************************
//  859  * @fn      ZDApp_NetworkStartEvt()
//  860  *
//  861  * @brief   Process the Network Start Event
//  862  *
//  863  * @param   none
//  864  *
//  865  * @return  none
//  866  */

        RSEG BANKED_CODE:HUGECODE:NOROOT(0)
//  867 void ZDApp_NetworkStartEvt( void )
ZDApp_NetworkStartEvt:
          CFI Block cfiBlock7 Using cfiCommon0
          CFI Function ZDApp_NetworkStartEvt
        CODE
//  868 {
        FUNCALL ZDApp_NetworkStartEvt, ZDApp_ChangeState
        LOCFRAME ISTACK, 2, STACK
        LOCFRAME PSTACK, 0, STACK
        LOCFRAME XSTACK, 0, STACK
        LOCFRAME IOVERLAY, 0, STATIC
        LOCFRAME DOVERLAY, 0, STATIC
        ARGFRAME ISTACK, 2, STACK
        ARGFRAME PSTACK, 0, STACK
        ARGFRAME XSTACK, 0, STACK
        ARGFRAME IOVERLAY, 0, STATIC
        ARGFRAME DOVERLAY, 0, STATIC
        FUNCALL ZDApp_NetworkStartEvt, ZDApp_SetParentAnnceTimer
        LOCFRAME ISTACK, 2, STACK
        LOCFRAME PSTACK, 0, STACK
        LOCFRAME XSTACK, 0, STACK
        LOCFRAME IOVERLAY, 0, STATIC
        LOCFRAME DOVERLAY, 0, STATIC
        ARGFRAME ISTACK, 2, STACK
        ARGFRAME PSTACK, 0, STACK
        ARGFRAME XSTACK, 0, STACK
        ARGFRAME IOVERLAY, 0, STATIC
        ARGFRAME DOVERLAY, 0, STATIC
        FUNCALL ZDApp_NetworkStartEvt, osal_set_event
        LOCFRAME ISTACK, 2, STACK
        LOCFRAME PSTACK, 0, STACK
        LOCFRAME XSTACK, 0, STACK
        LOCFRAME IOVERLAY, 0, STATIC
        LOCFRAME DOVERLAY, 0, STATIC
        ARGFRAME ISTACK, 2, STACK
        ARGFRAME PSTACK, 0, STACK
        ARGFRAME XSTACK, 0, STACK
        ARGFRAME IOVERLAY, 0, STATIC
        ARGFRAME DOVERLAY, 0, STATIC
        FUNCALL ZDApp_NetworkStartEvt, osal_pwrmgr_device
        LOCFRAME ISTACK, 2, STACK
        LOCFRAME PSTACK, 0, STACK
        LOCFRAME XSTACK, 0, STACK
        LOCFRAME IOVERLAY, 0, STATIC
        LOCFRAME DOVERLAY, 0, STATIC
        ARGFRAME ISTACK, 2, STACK
        ARGFRAME PSTACK, 0, STACK
        ARGFRAME XSTACK, 0, STACK
        ARGFRAME IOVERLAY, 0, STATIC
        ARGFRAME DOVERLAY, 0, STATIC
        FUNCALL ZDApp_NetworkStartEvt, NLME_GetEnergyThreshold
        LOCFRAME ISTACK, 2, STACK
        LOCFRAME PSTACK, 0, STACK
        LOCFRAME XSTACK, 0, STACK
        LOCFRAME IOVERLAY, 0, STATIC
        LOCFRAME DOVERLAY, 0, STATIC
        ARGFRAME ISTACK, 2, STACK
        ARGFRAME PSTACK, 0, STACK
        ARGFRAME XSTACK, 0, STACK
        ARGFRAME IOVERLAY, 0, STATIC
        ARGFRAME DOVERLAY, 0, STATIC
        FUNCALL ZDApp_NetworkStartEvt, NLME_GetEnergyThreshold
        LOCFRAME ISTACK, 2, STACK
        LOCFRAME PSTACK, 0, STACK
        LOCFRAME XSTACK, 0, STACK
        LOCFRAME IOVERLAY, 0, STATIC
        LOCFRAME DOVERLAY, 0, STATIC
        ARGFRAME ISTACK, 2, STACK
        ARGFRAME PSTACK, 0, STACK
        ARGFRAME XSTACK, 0, STACK
        ARGFRAME IOVERLAY, 0, STATIC
        ARGFRAME DOVERLAY, 0, STATIC
        FUNCALL ZDApp_NetworkStartEvt, NLME_SetEnergyThreshold
        LOCFRAME ISTACK, 2, STACK
        LOCFRAME PSTACK, 0, STACK
        LOCFRAME XSTACK, 0, STACK
        LOCFRAME IOVERLAY, 0, STATIC
        LOCFRAME DOVERLAY, 0, STATIC
        ARGFRAME ISTACK, 2, STACK
        ARGFRAME PSTACK, 0, STACK
        ARGFRAME XSTACK, 0, STACK
        ARGFRAME IOVERLAY, 0, STATIC
        ARGFRAME DOVERLAY, 0, STATIC
        FUNCALL ZDApp_NetworkStartEvt, osal_set_event
        LOCFRAME ISTACK, 2, STACK
        LOCFRAME PSTACK, 0, STACK
        LOCFRAME XSTACK, 0, STACK
        LOCFRAME IOVERLAY, 0, STATIC
        LOCFRAME DOVERLAY, 0, STATIC
        ARGFRAME ISTACK, 2, STACK
        ARGFRAME PSTACK, 0, STACK
        ARGFRAME XSTACK, 0, STACK
        ARGFRAME IOVERLAY, 0, STATIC
        ARGFRAME DOVERLAY, 0, STATIC
        FUNCALL ZDApp_NetworkStartEvt, ZDApp_ChangeState
        LOCFRAME ISTACK, 2, STACK
        LOCFRAME PSTACK, 0, STACK
        LOCFRAME XSTACK, 0, STACK
        LOCFRAME IOVERLAY, 0, STATIC
        LOCFRAME DOVERLAY, 0, STATIC
        ARGFRAME ISTACK, 2, STACK
        ARGFRAME PSTACK, 0, STACK
        ARGFRAME XSTACK, 0, STACK
        ARGFRAME IOVERLAY, 0, STATIC
        ARGFRAME DOVERLAY, 0, STATIC
        PUSH      DPL
          CFI DPL0 Frame(CFA_SP, 4)
          CFI CFA_SP SP+-4
        PUSH      DPH
          CFI DPH0 Frame(CFA_SP, 5)
          CFI CFA_SP SP+-5
        ; Saved register size: 2
        ; Auto size: 0
//  869   if ( nwkStatus == ZSuccess )
        MOV       DPTR,#nwkStatus
        MOVX      A,@DPTR
        JNZ       ??ZDApp_NetworkStartEvt_0
//  870   {
//  871     // Successfully started a ZigBee network
//  872     if ( devState == DEV_COORD_STARTING )
        MOV       DPTR,#devState
        MOVX      A,@DPTR
        XRL       A,#0x8
        JNZ       ??ZDApp_NetworkStartEvt_1
//  873     {
//  874       //save NIB to NV before child joins if NV_RESTORE is defined
//  875       ZDApp_NwkWriteNVRequest();
//  876       ZDApp_ChangeState( DEV_ZB_COORD );
        ; Setup parameters for call to function ZDApp_ChangeState
        MOV       R1,#0x9
        LCALL     `??ZDApp_ChangeState::?relay`; Banked call to: ZDApp_ChangeState
//  877 
//  878       if ( zgChildAgingEnable == TRUE )
        MOV       DPTR,#zgChildAgingEnable
        MOVX      A,@DPTR
        XRL       A,#0x1
        JNZ       ??CrossCallReturnLabel_69
//  879       {
//  880         // Once the device has changed its state to a COORDINATOR set the timer to send
//  881         // Parent annce
//  882         ZDApp_SetParentAnnceTimer();
        ; Setup parameters for call to function ZDApp_SetParentAnnceTimer
        LCALL     `??ZDApp_SetParentAnnceTimer::?relay`; Banked call to: ZDApp_SetParentAnnceTimer
        SJMP      ??CrossCallReturnLabel_69
//  883       }
//  884     }
//  885     else
//  886     {
//  887       osal_set_event( ZDAppTaskID, ZDO_STATE_CHANGE_EVT );
??ZDApp_NetworkStartEvt_1:
        ; Setup parameters for call to function osal_set_event
        LCALL     ?Subroutine19 & 0xFFFF
//  888     }
//  889 
//  890     osal_pwrmgr_device( PWRMGR_ALWAYS_ON );
??CrossCallReturnLabel_69:
        ; Setup parameters for call to function osal_pwrmgr_device
        MOV       R1,#0x0
        LCALL     `??osal_pwrmgr_device::?relay`; Banked call to: osal_pwrmgr_device
        SJMP      ??ZDApp_NetworkStartEvt_2
//  891   }
//  892   else
//  893   {
//  894     // Try again with a higher energy threshold
//  895     if ( ( NLME_GetEnergyThreshold() + ENERGY_SCAN_INCREMENT ) < 0xff )
??ZDApp_NetworkStartEvt_0:
        ; Setup parameters for call to function NLME_GetEnergyThreshold
        LCALL     `??NLME_GetEnergyThreshold::?relay`; Banked call to: NLME_GetEnergyThreshold
        MOV       A,R1
        MOV       R1,#0x0
        ADD       A,#0x10
        JNC       ??ZDApp_NetworkStartEvt_3
        INC       R1
??ZDApp_NetworkStartEvt_3:
        CLR       C
        SUBB      A,#-0x1
        MOV       A,R1
        SUBB      A,#0x0
        MOV       C,0xD0 /* PSW */.2
        XRL       A,PSW
        RLC       A
        JNC       ??ZDApp_NetworkStartEvt_4
//  896     {
//  897       NLME_SetEnergyThreshold( (uint8)(NLME_GetEnergyThreshold() + ENERGY_SCAN_INCREMENT) );
        ; Setup parameters for call to function NLME_GetEnergyThreshold
        LCALL     `??NLME_GetEnergyThreshold::?relay`; Banked call to: NLME_GetEnergyThreshold
        MOV       A,R1
        MOV       R0,A
        ; Setup parameters for call to function NLME_SetEnergyThreshold
        MOV       A,#0x10
        ADD       A,R1
        MOV       R1,A
        LCALL     `??NLME_SetEnergyThreshold::?relay`; Banked call to: NLME_SetEnergyThreshold
//  898       osal_set_event( ZDAppTaskID, ZDO_NETWORK_INIT );
        ; Setup parameters for call to function osal_set_event
        MOV       R2,#0x1
        LCALL     ??Subroutine51_0 & 0xFFFF
//  899     }
??CrossCallReturnLabel_74:
        SJMP      ??ZDApp_NetworkStartEvt_2
//  900     else
//  901     {
//  902       // Failed to start network. Enter a dormant state (until user intervenes)
//  903       ZDApp_ChangeState( DEV_INIT );
??ZDApp_NetworkStartEvt_4:
        ; Setup parameters for call to function ZDApp_ChangeState
        MOV       R1,#0x1
        LCALL     `??ZDApp_ChangeState::?relay`; Banked call to: ZDApp_ChangeState
//  904     }
//  905   }
//  906 }
??ZDApp_NetworkStartEvt_2:
        LJMP      ??Subroutine56_0 & 0xFFFF
          CFI EndBlock cfiBlock7
//  907 
//  908 /*********************************************************************
//  909  * @fn      ZDApp_DeviceAuthEvt()
//  910  *
//  911  * @brief   Process the Device Authentic Event
//  912  *
//  913  * @param   none
//  914  *
//  915  * @return  none
//  916  */

        RSEG BANKED_CODE:HUGECODE:NOROOT(0)
//  917 void ZDApp_DeviceAuthEvt( void )
ZDApp_DeviceAuthEvt:
          CFI Block cfiBlock8 Using cfiCommon0
          CFI Function ZDApp_DeviceAuthEvt
        CODE
//  918 {
        FUNCALL ZDApp_DeviceAuthEvt, ZDApp_ResetTimerCancel
        LOCFRAME ISTACK, 2, STACK
        LOCFRAME PSTACK, 0, STACK
        LOCFRAME XSTACK, 0, STACK
        LOCFRAME IOVERLAY, 0, STATIC
        LOCFRAME DOVERLAY, 0, STATIC
        ARGFRAME ISTACK, 2, STACK
        ARGFRAME PSTACK, 0, STACK
        ARGFRAME XSTACK, 0, STACK
        ARGFRAME IOVERLAY, 0, STATIC
        ARGFRAME DOVERLAY, 0, STATIC
        FUNCALL ZDApp_DeviceAuthEvt, ZDApp_ChangeState
        LOCFRAME ISTACK, 2, STACK
        LOCFRAME PSTACK, 0, STACK
        LOCFRAME XSTACK, 0, STACK
        LOCFRAME IOVERLAY, 0, STATIC
        LOCFRAME DOVERLAY, 0, STATIC
        ARGFRAME ISTACK, 2, STACK
        ARGFRAME PSTACK, 0, STACK
        ARGFRAME XSTACK, 0, STACK
        ARGFRAME IOVERLAY, 0, STATIC
        ARGFRAME DOVERLAY, 0, STATIC
        FUNCALL ZDApp_DeviceAuthEvt, ZDApp_SaveNwkKey
        LOCFRAME ISTACK, 2, STACK
        LOCFRAME PSTACK, 0, STACK
        LOCFRAME XSTACK, 0, STACK
        LOCFRAME IOVERLAY, 0, STATIC
        LOCFRAME DOVERLAY, 0, STATIC
        ARGFRAME ISTACK, 2, STACK
        ARGFRAME PSTACK, 0, STACK
        ARGFRAME XSTACK, 0, STACK
        ARGFRAME IOVERLAY, 0, STATIC
        ARGFRAME DOVERLAY, 0, STATIC
        FUNCALL ZDApp_DeviceAuthEvt, ZDApp_AnnounceNewAddress
        LOCFRAME ISTACK, 2, STACK
        LOCFRAME PSTACK, 0, STACK
        LOCFRAME XSTACK, 0, STACK
        LOCFRAME IOVERLAY, 0, STATIC
        LOCFRAME DOVERLAY, 0, STATIC
        ARGFRAME ISTACK, 2, STACK
        ARGFRAME PSTACK, 0, STACK
        ARGFRAME XSTACK, 0, STACK
        ARGFRAME IOVERLAY, 0, STATIC
        ARGFRAME DOVERLAY, 0, STATIC
        FUNCALL ZDApp_DeviceAuthEvt, NLME_SetPollRate
        LOCFRAME ISTACK, 2, STACK
        LOCFRAME PSTACK, 0, STACK
        LOCFRAME XSTACK, 0, STACK
        LOCFRAME IOVERLAY, 0, STATIC
        LOCFRAME DOVERLAY, 0, STATIC
        ARGFRAME ISTACK, 2, STACK
        ARGFRAME PSTACK, 0, STACK
        ARGFRAME XSTACK, 0, STACK
        ARGFRAME IOVERLAY, 0, STATIC
        ARGFRAME DOVERLAY, 0, STATIC
        PUSH      DPL
          CFI DPL0 Frame(CFA_SP, 4)
          CFI CFA_SP SP+-4
        PUSH      DPH
          CFI DPH0 Frame(CFA_SP, 5)
          CFI CFA_SP SP+-5
        ; Saved register size: 2
        ; Auto size: 0
//  919   // received authentication from trust center
//  920   if ( devState == DEV_END_DEVICE_UNAUTH )
        MOV       DPTR,#devState
        MOVX      A,@DPTR
        XRL       A,#0x5
        JNZ       ??ZDApp_DeviceAuthEvt_0
//  921   {
//  922     // Stop the reset timer so it doesn't reset
//  923     ZDApp_ResetTimerCancel();
        ; Setup parameters for call to function ZDApp_ResetTimerCancel
        LCALL     `??ZDApp_ResetTimerCancel::?relay`; Banked call to: ZDApp_ResetTimerCancel
//  924 
//  925     ZDApp_ChangeState( DEV_END_DEVICE );
        ; Setup parameters for call to function ZDApp_ChangeState
        MOV       R1,#0x6
        LCALL     `??ZDApp_ChangeState::?relay`; Banked call to: ZDApp_ChangeState
//  926 
//  927     // Set the Power Manager Device
//  928 #if defined ( POWER_SAVING )
//  929     osal_pwrmgr_device( PWRMGR_BATTERY );
//  930 #endif
//  931 
//  932     if ( ZSTACK_ROUTER_BUILD )
//  933     {
//  934       if ( ZDO_Config_Node_Descriptor.LogicalType != NODETYPE_DEVICE )
//  935       {
//  936         // NOTE: first two parameters are not used, see NLMEDE.h for details
//  937         NLME_StartRouterRequest( 0, 0, false );
//  938       }
//  939     }
//  940 
//  941     // Notify to save info into NV
//  942     ZDApp_NVUpdate();
//  943 
//  944     // Save off the security
//  945     ZDApp_SaveNwkKey();
        ; Setup parameters for call to function ZDApp_SaveNwkKey
        LCALL     `??ZDApp_SaveNwkKey::?relay`; Banked call to: ZDApp_SaveNwkKey
//  946 
//  947     ZDApp_AnnounceNewAddress();
        ; Setup parameters for call to function ZDApp_AnnounceNewAddress
        LCALL     ?Subroutine40 & 0xFFFF
//  948 
//  949     if ( ( (ZDO_Config_Node_Descriptor.CapabilityFlags & CAPINFO_RCVR_ON_IDLE) == 0 )
//  950         || ( (ZDO_Config_Node_Descriptor.CapabilityFlags & CAPINFO_RCVR_ON_IDLE)
//  951           && (zgChildAgingEnable == TRUE) ) )
??CrossCallReturnLabel_53:
        JNC       ??ZDApp_DeviceAuthEvt_1
        MOV       DPTR,#zgChildAgingEnable
        MOVX      A,@DPTR
        XRL       A,#0x1
        JNZ       ??ZDApp_DeviceAuthEvt_0
//  952     {
//  953       NLME_SetPollRate( ZDApp_SavedPollRate );
??ZDApp_DeviceAuthEvt_1:
        ; Setup parameters for call to function NLME_SetPollRate
        MOV       DPTR,#ZDApp_SavedPollRate
        LCALL     ?XLOAD_R2345
        LCALL     `??NLME_SetPollRate::?relay`; Banked call to: NLME_SetPollRate
//  954     }
//  955   }
//  956   else
//  957   {
//  958     ZDApp_NVUpdate();
//  959   }
//  960 }
??ZDApp_DeviceAuthEvt_0:
        LJMP      ??Subroutine56_0 & 0xFFFF
          CFI EndBlock cfiBlock8
//  961 
//  962 /*********************************************************************
//  963  * @fn      ZDApp_SaveNetworkStateEvt()
//  964  *
//  965  * @brief   Process the Save the Network State Event
//  966  *
//  967  * @param   none
//  968  *
//  969  * @return  none
//  970  */

        RSEG BANKED_CODE:HUGECODE:NOROOT(0)
//  971 void ZDApp_SaveNetworkStateEvt( void )
ZDApp_SaveNetworkStateEvt:
          CFI Block cfiBlock9 Using cfiCommon0
          CFI Function ZDApp_SaveNetworkStateEvt
        CODE
//  972 {
        ; Saved register size: 0
        ; Auto size: 0
//  973 #if defined ( NV_RESTORE )
//  974  #if defined ( NV_TURN_OFF_RADIO )
//  975   // Turn off the radio's receiver during an NV update
//  976   uint8 RxOnIdle;
//  977   uint8 x = false;
//  978   ZMacGetReq( ZMacRxOnIdle, &RxOnIdle );
//  979   ZMacSetReq( ZMacRxOnIdle, &x );
//  980  #endif
//  981 
//  982   // Update the Network State in NV
//  983   NLME_UpdateNV( NWK_NV_NIB_ENABLE        |
//  984                  NWK_NV_DEVICELIST_ENABLE |
//  985                  NWK_NV_BINDING_ENABLE    |
//  986                  NWK_NV_ADDRMGR_ENABLE );
//  987 
//  988   // Reset the NV startup option to resume from NV by
//  989   // clearing the "New" join option.
//  990   zgWriteStartupOptions( FALSE, ZCD_STARTOPT_DEFAULT_NETWORK_STATE );
//  991 
//  992  #if defined ( NV_TURN_OFF_RADIO )
//  993   ZMacSetReq( ZMacRxOnIdle, &RxOnIdle );
//  994  #endif
//  995 #endif // NV_RESTORE
//  996 }
        LJMP      ?BRET
          CFI EndBlock cfiBlock9
//  997 
//  998 #if defined ( NV_RESTORE )
//  999 /*********************************************************************
// 1000  * @fn      ZDApp_RestoreNetworkState()
// 1001  *
// 1002  * @brief   This function will restore the network state of the
// 1003  *          device if the network state is stored in NV.
// 1004  *
// 1005  * @param   none
// 1006  *
// 1007  * @return
// 1008  *    ZDO_INITDEV_RESTORED_NETWORK_STATE  - The device's network state was
// 1009  *          restored.
// 1010  *    ZDO_INITDEV_NEW_NETWORK_STATE - The network state was not used.
// 1011  *          This could mean that zgStartupOption said to not restore, or
// 1012  *          it could mean that there was no network state to restore.
// 1013  *
// 1014  */
// 1015 uint8 ZDApp_RestoreNetworkState( void )
// 1016 {
// 1017   uint8 nvStat;
// 1018 
// 1019   // Initialize NWK NV items
// 1020   nvStat = NLME_InitNV();
// 1021 
// 1022   if ( nvStat != NV_OPER_FAILED )
// 1023   {
// 1024     if ( NLME_RestoreFromNV() )
// 1025     {
// 1026       // Are we a coordinator
// 1027       ZDAppNwkAddr.addr.shortAddr = NLME_GetShortAddr();
// 1028       if ( ZDAppNwkAddr.addr.shortAddr == 0 )
// 1029         ZDO_Config_Node_Descriptor.LogicalType = NODETYPE_COORDINATOR;
// 1030       devStartMode = MODE_RESUME;
// 1031       osal_cpyExtAddr( ZDO_UseExtendedPANID, _NIB.extendedPANID );
// 1032     }
// 1033     else
// 1034       nvStat = NV_ITEM_UNINIT;
// 1035 
// 1036     if ( ZG_SECURE_ENABLED )
// 1037     {
// 1038       nwkFrameCounterChanges = 0;
// 1039 
// 1040       if ( ZG_BUILD_COORDINATOR_TYPE && ZG_DEVICE_COORDINATOR_TYPE )
// 1041       {
// 1042         ZDApp_RestoreNwkKey( TRUE );
// 1043       }
// 1044     }
// 1045 
// 1046     // The default for RxOnWhenIdle is true for Routers and false for end devices
// 1047     // [setup in the NLME_RestoreFromNV()].  Change it here if you want something
// 1048     // other than default.
// 1049   }
// 1050 
// 1051   if ( nvStat == ZSUCCESS )
// 1052     return ( ZDO_INITDEV_RESTORED_NETWORK_STATE );
// 1053   else
// 1054     return ( ZDO_INITDEV_NEW_NETWORK_STATE );
// 1055 }
// 1056 #endif // NV_RESTORE
// 1057 
// 1058 /*********************************************************************
// 1059  * @fn      ZDApp_InitUserDesc()
// 1060  *
// 1061  * @brief   Initialize the User Descriptor, the descriptor is read from NV
// 1062  *          when needed.  If you want to initialize the User descriptor to
// 1063  *          something other than all zero, do it here.
// 1064  *
// 1065  * @param   none
// 1066  *
// 1067  * @return  none
// 1068  */

        RSEG BANKED_CODE:HUGECODE:NOROOT(0)
// 1069 void ZDApp_InitUserDesc( void )
ZDApp_InitUserDesc:
          CFI Block cfiBlock10 Using cfiCommon0
          CFI Function ZDApp_InitUserDesc
        CODE
// 1070 {
        FUNCALL ZDApp_InitUserDesc, osal_memset
        LOCFRAME ISTACK, 0, STACK
        LOCFRAME PSTACK, 0, STACK
        LOCFRAME XSTACK, 27, STACK
        LOCFRAME IOVERLAY, 0, STATIC
        LOCFRAME DOVERLAY, 0, STATIC
        ARGFRAME ISTACK, 0, STACK
        ARGFRAME PSTACK, 0, STACK
        ARGFRAME XSTACK, 27, STACK
        ARGFRAME IOVERLAY, 0, STATIC
        ARGFRAME DOVERLAY, 0, STATIC
        FUNCALL ZDApp_InitUserDesc, osal_nv_item_init
        LOCFRAME ISTACK, 0, STACK
        LOCFRAME PSTACK, 0, STACK
        LOCFRAME XSTACK, 29, STACK
        LOCFRAME IOVERLAY, 0, STATIC
        LOCFRAME DOVERLAY, 0, STATIC
        ARGFRAME ISTACK, 0, STACK
        ARGFRAME PSTACK, 0, STACK
        ARGFRAME XSTACK, 29, STACK
        ARGFRAME IOVERLAY, 0, STATIC
        ARGFRAME DOVERLAY, 0, STATIC
        FUNCALL ZDApp_InitUserDesc, osal_nv_read
        LOCFRAME ISTACK, 0, STACK
        LOCFRAME PSTACK, 0, STACK
        LOCFRAME XSTACK, 31, STACK
        LOCFRAME IOVERLAY, 0, STATIC
        LOCFRAME DOVERLAY, 0, STATIC
        ARGFRAME ISTACK, 0, STACK
        ARGFRAME PSTACK, 0, STACK
        ARGFRAME XSTACK, 31, STACK
        ARGFRAME IOVERLAY, 0, STATIC
        ARGFRAME DOVERLAY, 0, STATIC
        REQUIRE ?V0
        REQUIRE ?V1
        MOV       A,#-0xa
        LCALL     ?BANKED_ENTER_XDATA
          CFI DPH0 load(1, XDATA, add(CFA_XSP16, literal(-1)))
          CFI DPL0 load(1, XDATA, add(CFA_XSP16, literal(-2)))
          CFI ?BRET_EXT load(1, XDATA, add(CFA_XSP16, literal(-3)))
          CFI ?RET_HIGH load(1, XDATA, add(CFA_XSP16, literal(-4)))
          CFI ?RET_LOW load(1, XDATA, add(CFA_XSP16, literal(-5)))
          CFI R7 load(1, XDATA, add(CFA_XSP16, literal(-6)))
          CFI V1 load(1, XDATA, add(CFA_XSP16, literal(-7)))
          CFI V0 load(1, XDATA, add(CFA_XSP16, literal(-8)))
          CFI VB load(1, XDATA, add(CFA_XSP16, literal(-9)))
          CFI R6 load(1, XDATA, add(CFA_XSP16, literal(-10)))
          CFI CFA_SP SP+0
          CFI CFA_XSP16 add(XSP16, 10)
        ; Saved register size: 10
        ; Auto size: 17
        MOV       A,#-0x11
        LCALL     ?ALLOC_XSTACK8
          CFI CFA_XSP16 add(XSP16, 27)
// 1071   UserDescriptorFormat_t ZDO_DefaultUserDescriptor;
// 1072 
// 1073   // Initialize the User Descriptor, the descriptor is read from NV
// 1074   // when needed.  If you want to initialize the User descriptor to something
// 1075   // other than all zero, do it here.
// 1076   osal_memset( &ZDO_DefaultUserDescriptor, 0, sizeof( UserDescriptorFormat_t ) );
        ; Setup parameters for call to function osal_memset
        MOV       R4,#0x11
        LCALL     ?Subroutine33 & 0xFFFF
// 1077   if ( ZSUCCESS == osal_nv_item_init( ZCD_NV_USERDESC,
// 1078          sizeof(UserDescriptorFormat_t), (void*)&ZDO_DefaultUserDescriptor ) )
??CrossCallReturnLabel_33:
        LCALL     ?PUSH_XSTACK_I_TWO
          CFI CFA_XSP16 add(XSP16, 29)
        MOV       R4,#0x11
        MOV       R5,#0x0
        MOV       R2,#-0x7f
        MOV       R3,#0x0
        LCALL     `??osal_nv_item_init::?relay`; Banked call to: osal_nv_item_init
        MOV       A,#0x2
        LCALL     ?DEALLOC_XSTACK8
          CFI CFA_XSP16 add(XSP16, 27)
        MOV       A,R1
        JNZ       ??ZDApp_InitUserDesc_0
// 1079   {
// 1080     if ( ZSUCCESS == osal_nv_read( ZCD_NV_USERDESC, 0,
// 1081          sizeof(UserDescriptorFormat_t), (void*)&ZDO_DefaultUserDescriptor ) )
        ; Setup parameters for call to function osal_nv_read
        MOV       R0,#?V0
        LCALL     ?PUSH_XSTACK_I_TWO
          CFI CFA_XSP16 add(XSP16, 29)
        MOV       ?V0,#0x11
        MOV       ?V1,#0x0
        MOV       R0,#?V0
        LCALL     ?PUSH_XSTACK_I_TWO
          CFI CFA_XSP16 add(XSP16, 31)
        MOV       R4,#0x0
        MOV       R5,#0x0
        MOV       R2,#-0x7f
        LCALL     ?Subroutine37 & 0xFFFF
??CrossCallReturnLabel_42:
        LCALL     ?DEALLOC_XSTACK8
          CFI CFA_XSP16 add(XSP16, 27)
        MOV       A,R1
        JNZ       ??ZDApp_InitUserDesc_0
// 1082     {
// 1083       if ( ZDO_DefaultUserDescriptor.len != 0 )
        MOV       DPL,?XSP + 0
        MOV       DPH,?XSP + 1
        MOVX      A,@DPTR
        JZ        ??ZDApp_InitUserDesc_0
// 1084       {
// 1085         ZDO_Config_Node_Descriptor.UserDescAvail = TRUE;
        MOV       DPTR,#ZDO_Config_Node_Descriptor
        MOVX      A,@DPTR
        SETB      0xE0 /* A   */.4
        MOVX      @DPTR,A
// 1086       }
// 1087     }
// 1088   }
// 1089 }
??ZDApp_InitUserDesc_0:
        MOV       A,#0x11
        LJMP      ??Subroutine67_0 & 0xFFFF
          CFI EndBlock cfiBlock10
// 1090 
// 1091 /*********************************************************************
// 1092  * @fn      ZDAppCheckForHoldKey()
// 1093  *
// 1094  * @brief   Check for key to set the device into Hold Auto Start
// 1095  *
// 1096  * @param   none
// 1097  *
// 1098  * @return  none
// 1099  */

        RSEG BANKED_CODE:HUGECODE:NOROOT(0)
// 1100 void ZDAppCheckForHoldKey( void )
ZDAppCheckForHoldKey:
          CFI Block cfiBlock11 Using cfiCommon0
          CFI Function ZDAppCheckForHoldKey
        CODE
// 1101 {
        ; Saved register size: 0
        ; Auto size: 0
// 1102 #if (defined HAL_KEY) && (HAL_KEY == TRUE)
// 1103 
// 1104   // Get Keypad directly to see if a HOLD is needed
// 1105   zdappHoldKeys = HalKeyRead();
// 1106 
// 1107   // Hold down the SW_BYPASS_START key (see OnBoard.h)
// 1108   // while booting to avoid starting up the device.
// 1109   if ( zdappHoldKeys == SW_BYPASS_START )
// 1110   {
// 1111     // Change the device state to HOLD on start up
// 1112     devState = DEV_HOLD;
// 1113   }
// 1114 #endif // HAL_KEY
// 1115 }
        LJMP      ?BRET
          CFI EndBlock cfiBlock11
// 1116 
// 1117 /*********************************************************************
// 1118  * @fn      ZDApp_ProcessOSALMsg()
// 1119  *
// 1120  * @brief   Process the incoming task message.
// 1121  *
// 1122  * @param   msgPtr - message to process
// 1123  *
// 1124  * @return  none
// 1125  */

        RSEG BANKED_CODE:HUGECODE:NOROOT(0)
// 1126 void ZDApp_ProcessOSALMsg( osal_event_hdr_t *msgPtr )
ZDApp_ProcessOSALMsg:
          CFI Block cfiBlock12 Using cfiCommon0
          CFI Function ZDApp_ProcessOSALMsg
        CODE
// 1127 {
        FUNCALL ZDApp_ProcessOSALMsg, ZDP_IncomingData
        LOCFRAME ISTACK, 0, STACK
        LOCFRAME PSTACK, 0, STACK
        LOCFRAME XSTACK, 15, STACK
        LOCFRAME IOVERLAY, 0, STATIC
        LOCFRAME DOVERLAY, 0, STATIC
        ARGFRAME ISTACK, 0, STACK
        ARGFRAME PSTACK, 0, STACK
        ARGFRAME XSTACK, 15, STACK
        ARGFRAME IOVERLAY, 0, STATIC
        ARGFRAME DOVERLAY, 0, STATIC
        FUNCALL ZDApp_ProcessOSALMsg, ZDApp_ProcessMsgCBs
        LOCFRAME ISTACK, 0, STACK
        LOCFRAME PSTACK, 0, STACK
        LOCFRAME XSTACK, 15, STACK
        LOCFRAME IOVERLAY, 0, STATIC
        LOCFRAME DOVERLAY, 0, STATIC
        ARGFRAME ISTACK, 0, STACK
        ARGFRAME PSTACK, 0, STACK
        ARGFRAME XSTACK, 15, STACK
        ARGFRAME IOVERLAY, 0, STATIC
        ARGFRAME DOVERLAY, 0, STATIC
        FUNCALL ZDApp_ProcessOSALMsg, ZDApp_NwkDescListProcessing
        LOCFRAME ISTACK, 0, STACK
        LOCFRAME PSTACK, 0, STACK
        LOCFRAME XSTACK, 15, STACK
        LOCFRAME IOVERLAY, 0, STATIC
        LOCFRAME DOVERLAY, 0, STATIC
        ARGFRAME ISTACK, 0, STACK
        ARGFRAME PSTACK, 0, STACK
        ARGFRAME XSTACK, 15, STACK
        ARGFRAME IOVERLAY, 0, STATIC
        ARGFRAME DOVERLAY, 0, STATIC
        FUNCALL ZDApp_ProcessOSALMsg, ZDApp_ChangeState
        LOCFRAME ISTACK, 0, STACK
        LOCFRAME PSTACK, 0, STACK
        LOCFRAME XSTACK, 15, STACK
        LOCFRAME IOVERLAY, 0, STATIC
        LOCFRAME DOVERLAY, 0, STATIC
        ARGFRAME ISTACK, 0, STACK
        ARGFRAME PSTACK, 0, STACK
        ARGFRAME XSTACK, 15, STACK
        ARGFRAME IOVERLAY, 0, STATIC
        ARGFRAME DOVERLAY, 0, STATIC
        FUNCALL ZDApp_ProcessOSALMsg, ZDApp_NodeProfileSync
        LOCFRAME ISTACK, 0, STACK
        LOCFRAME PSTACK, 0, STACK
        LOCFRAME XSTACK, 15, STACK
        LOCFRAME IOVERLAY, 0, STATIC
        LOCFRAME DOVERLAY, 0, STATIC
        ARGFRAME ISTACK, 0, STACK
        ARGFRAME PSTACK, 0, STACK
        ARGFRAME XSTACK, 15, STACK
        ARGFRAME IOVERLAY, 0, STATIC
        ARGFRAME DOVERLAY, 0, STATIC
        FUNCALL ZDApp_ProcessOSALMsg, NLME_JoinRequest
        LOCFRAME ISTACK, 0, STACK
        LOCFRAME PSTACK, 0, STACK
        LOCFRAME XSTACK, 19, STACK
        LOCFRAME IOVERLAY, 0, STATIC
        LOCFRAME DOVERLAY, 0, STATIC
        ARGFRAME ISTACK, 0, STACK
        ARGFRAME PSTACK, 0, STACK
        ARGFRAME XSTACK, 19, STACK
        ARGFRAME IOVERLAY, 0, STATIC
        ARGFRAME DOVERLAY, 0, STATIC
        FUNCALL ZDApp_ProcessOSALMsg, osal_rand
        LOCFRAME ISTACK, 0, STACK
        LOCFRAME PSTACK, 0, STACK
        LOCFRAME XSTACK, 15, STACK
        LOCFRAME IOVERLAY, 0, STATIC
        LOCFRAME DOVERLAY, 0, STATIC
        ARGFRAME ISTACK, 0, STACK
        ARGFRAME PSTACK, 0, STACK
        ARGFRAME XSTACK, 15, STACK
        ARGFRAME IOVERLAY, 0, STATIC
        ARGFRAME DOVERLAY, 0, STATIC
        FUNCALL ZDApp_ProcessOSALMsg, ZDApp_NetworkInit
        LOCFRAME ISTACK, 0, STACK
        LOCFRAME PSTACK, 0, STACK
        LOCFRAME XSTACK, 15, STACK
        LOCFRAME IOVERLAY, 0, STATIC
        LOCFRAME DOVERLAY, 0, STATIC
        ARGFRAME ISTACK, 0, STACK
        ARGFRAME PSTACK, 0, STACK
        ARGFRAME XSTACK, 15, STACK
        ARGFRAME IOVERLAY, 0, STATIC
        ARGFRAME DOVERLAY, 0, STATIC
        FUNCALL ZDApp_ProcessOSALMsg, ZDApp_RestoreNwkKey
        LOCFRAME ISTACK, 0, STACK
        LOCFRAME PSTACK, 0, STACK
        LOCFRAME XSTACK, 15, STACK
        LOCFRAME IOVERLAY, 0, STATIC
        LOCFRAME DOVERLAY, 0, STATIC
        ARGFRAME ISTACK, 0, STACK
        ARGFRAME PSTACK, 0, STACK
        ARGFRAME XSTACK, 15, STACK
        ARGFRAME IOVERLAY, 0, STATIC
        ARGFRAME DOVERLAY, 0, STATIC
        FUNCALL ZDApp_ProcessOSALMsg, ZDApp_ChangeState
        LOCFRAME ISTACK, 0, STACK
        LOCFRAME PSTACK, 0, STACK
        LOCFRAME XSTACK, 15, STACK
        LOCFRAME IOVERLAY, 0, STATIC
        LOCFRAME DOVERLAY, 0, STATIC
        ARGFRAME ISTACK, 0, STACK
        ARGFRAME PSTACK, 0, STACK
        ARGFRAME XSTACK, 15, STACK
        ARGFRAME IOVERLAY, 0, STATIC
        ARGFRAME DOVERLAY, 0, STATIC
        FUNCALL ZDApp_ProcessOSALMsg, ZDApp_ChangeState
        LOCFRAME ISTACK, 0, STACK
        LOCFRAME PSTACK, 0, STACK
        LOCFRAME XSTACK, 15, STACK
        LOCFRAME IOVERLAY, 0, STATIC
        LOCFRAME DOVERLAY, 0, STATIC
        ARGFRAME ISTACK, 0, STACK
        ARGFRAME PSTACK, 0, STACK
        ARGFRAME XSTACK, 15, STACK
        ARGFRAME IOVERLAY, 0, STATIC
        ARGFRAME DOVERLAY, 0, STATIC
        FUNCALL ZDApp_ProcessOSALMsg, ZDApp_ChangeState
        LOCFRAME ISTACK, 0, STACK
        LOCFRAME PSTACK, 0, STACK
        LOCFRAME XSTACK, 15, STACK
        LOCFRAME IOVERLAY, 0, STATIC
        LOCFRAME DOVERLAY, 0, STATIC
        ARGFRAME ISTACK, 0, STACK
        ARGFRAME PSTACK, 0, STACK
        ARGFRAME XSTACK, 15, STACK
        ARGFRAME IOVERLAY, 0, STATIC
        ARGFRAME DOVERLAY, 0, STATIC
        FUNCALL ZDApp_ProcessOSALMsg, ZDApp_ChangeState
        LOCFRAME ISTACK, 0, STACK
        LOCFRAME PSTACK, 0, STACK
        LOCFRAME XSTACK, 15, STACK
        LOCFRAME IOVERLAY, 0, STATIC
        LOCFRAME DOVERLAY, 0, STATIC
        ARGFRAME ISTACK, 0, STACK
        ARGFRAME PSTACK, 0, STACK
        ARGFRAME XSTACK, 15, STACK
        ARGFRAME IOVERLAY, 0, STATIC
        ARGFRAME DOVERLAY, 0, STATIC
        FUNCALL ZDApp_ProcessOSALMsg, osal_nv_read
        LOCFRAME ISTACK, 0, STACK
        LOCFRAME PSTACK, 0, STACK
        LOCFRAME XSTACK, 19, STACK
        LOCFRAME IOVERLAY, 0, STATIC
        LOCFRAME DOVERLAY, 0, STATIC
        ARGFRAME ISTACK, 0, STACK
        ARGFRAME PSTACK, 0, STACK
        ARGFRAME XSTACK, 19, STACK
        ARGFRAME IOVERLAY, 0, STATIC
        ARGFRAME DOVERLAY, 0, STATIC
        FUNCALL ZDApp_ProcessOSALMsg, osal_rand
        LOCFRAME ISTACK, 0, STACK
        LOCFRAME PSTACK, 0, STACK
        LOCFRAME XSTACK, 15, STACK
        LOCFRAME IOVERLAY, 0, STATIC
        LOCFRAME DOVERLAY, 0, STATIC
        ARGFRAME ISTACK, 0, STACK
        ARGFRAME PSTACK, 0, STACK
        ARGFRAME XSTACK, 15, STACK
        ARGFRAME IOVERLAY, 0, STATIC
        ARGFRAME DOVERLAY, 0, STATIC
        FUNCALL ZDApp_ProcessOSALMsg, ZMacSetReq
        LOCFRAME ISTACK, 0, STACK
        LOCFRAME PSTACK, 0, STACK
        LOCFRAME XSTACK, 15, STACK
        LOCFRAME IOVERLAY, 0, STATIC
        LOCFRAME DOVERLAY, 0, STATIC
        ARGFRAME ISTACK, 0, STACK
        ARGFRAME PSTACK, 0, STACK
        ARGFRAME XSTACK, 15, STACK
        ARGFRAME IOVERLAY, 0, STATIC
        ARGFRAME DOVERLAY, 0, STATIC
        FUNCALL ZDApp_ProcessOSALMsg, ZMacSetReq
        LOCFRAME ISTACK, 0, STACK
        LOCFRAME PSTACK, 0, STACK
        LOCFRAME XSTACK, 15, STACK
        LOCFRAME IOVERLAY, 0, STATIC
        LOCFRAME DOVERLAY, 0, STATIC
        ARGFRAME ISTACK, 0, STACK
        ARGFRAME PSTACK, 0, STACK
        ARGFRAME XSTACK, 15, STACK
        ARGFRAME IOVERLAY, 0, STATIC
        ARGFRAME DOVERLAY, 0, STATIC
        FUNCALL ZDApp_ProcessOSALMsg, ZMacSetReq
        LOCFRAME ISTACK, 0, STACK
        LOCFRAME PSTACK, 0, STACK
        LOCFRAME XSTACK, 15, STACK
        LOCFRAME IOVERLAY, 0, STATIC
        LOCFRAME DOVERLAY, 0, STATIC
        ARGFRAME ISTACK, 0, STACK
        ARGFRAME PSTACK, 0, STACK
        ARGFRAME XSTACK, 15, STACK
        ARGFRAME IOVERLAY, 0, STATIC
        ARGFRAME DOVERLAY, 0, STATIC
        FUNCALL ZDApp_ProcessOSALMsg, ZDApp_RestoreNwkKey
        LOCFRAME ISTACK, 0, STACK
        LOCFRAME PSTACK, 0, STACK
        LOCFRAME XSTACK, 15, STACK
        LOCFRAME IOVERLAY, 0, STATIC
        LOCFRAME DOVERLAY, 0, STATIC
        ARGFRAME ISTACK, 0, STACK
        ARGFRAME PSTACK, 0, STACK
        ARGFRAME XSTACK, 15, STACK
        ARGFRAME IOVERLAY, 0, STATIC
        ARGFRAME DOVERLAY, 0, STATIC
        FUNCALL ZDApp_ProcessOSALMsg, NLME_ReJoinRequest
        LOCFRAME ISTACK, 0, STACK
        LOCFRAME PSTACK, 0, STACK
        LOCFRAME XSTACK, 15, STACK
        LOCFRAME IOVERLAY, 0, STATIC
        LOCFRAME DOVERLAY, 0, STATIC
        ARGFRAME ISTACK, 0, STACK
        ARGFRAME PSTACK, 0, STACK
        ARGFRAME XSTACK, 15, STACK
        ARGFRAME IOVERLAY, 0, STATIC
        ARGFRAME DOVERLAY, 0, STATIC
        FUNCALL ZDApp_ProcessOSALMsg, NLME_ReJoinRequestUnsecure
        LOCFRAME ISTACK, 0, STACK
        LOCFRAME PSTACK, 0, STACK
        LOCFRAME XSTACK, 15, STACK
        LOCFRAME IOVERLAY, 0, STATIC
        LOCFRAME DOVERLAY, 0, STATIC
        ARGFRAME ISTACK, 0, STACK
        ARGFRAME PSTACK, 0, STACK
        ARGFRAME XSTACK, 15, STACK
        ARGFRAME IOVERLAY, 0, STATIC
        ARGFRAME DOVERLAY, 0, STATIC
        FUNCALL ZDApp_ProcessOSALMsg, osal_rand
        LOCFRAME ISTACK, 0, STACK
        LOCFRAME PSTACK, 0, STACK
        LOCFRAME XSTACK, 15, STACK
        LOCFRAME IOVERLAY, 0, STATIC
        LOCFRAME DOVERLAY, 0, STATIC
        ARGFRAME ISTACK, 0, STACK
        ARGFRAME PSTACK, 0, STACK
        ARGFRAME XSTACK, 15, STACK
        ARGFRAME IOVERLAY, 0, STATIC
        ARGFRAME DOVERLAY, 0, STATIC
        FUNCALL ZDApp_ProcessOSALMsg, ZDApp_NetworkInit
        LOCFRAME ISTACK, 0, STACK
        LOCFRAME PSTACK, 0, STACK
        LOCFRAME XSTACK, 15, STACK
        LOCFRAME IOVERLAY, 0, STATIC
        LOCFRAME DOVERLAY, 0, STATIC
        ARGFRAME ISTACK, 0, STACK
        ARGFRAME PSTACK, 0, STACK
        ARGFRAME XSTACK, 15, STACK
        ARGFRAME IOVERLAY, 0, STATIC
        ARGFRAME DOVERLAY, 0, STATIC
        FUNCALL ZDApp_ProcessOSALMsg, NLME_SetPollRate
        LOCFRAME ISTACK, 0, STACK
        LOCFRAME PSTACK, 0, STACK
        LOCFRAME XSTACK, 15, STACK
        LOCFRAME IOVERLAY, 0, STATIC
        LOCFRAME DOVERLAY, 0, STATIC
        ARGFRAME ISTACK, 0, STACK
        ARGFRAME PSTACK, 0, STACK
        ARGFRAME XSTACK, 15, STACK
        ARGFRAME IOVERLAY, 0, STATIC
        ARGFRAME DOVERLAY, 0, STATIC
        FUNCALL ZDApp_ProcessOSALMsg, NLME_SetQueuedPollRate
        LOCFRAME ISTACK, 0, STACK
        LOCFRAME PSTACK, 0, STACK
        LOCFRAME XSTACK, 15, STACK
        LOCFRAME IOVERLAY, 0, STATIC
        LOCFRAME DOVERLAY, 0, STATIC
        ARGFRAME ISTACK, 0, STACK
        ARGFRAME PSTACK, 0, STACK
        ARGFRAME XSTACK, 15, STACK
        ARGFRAME IOVERLAY, 0, STATIC
        ARGFRAME DOVERLAY, 0, STATIC
        FUNCALL ZDApp_ProcessOSALMsg, NLME_SetResponseRate
        LOCFRAME ISTACK, 0, STACK
        LOCFRAME PSTACK, 0, STACK
        LOCFRAME XSTACK, 15, STACK
        LOCFRAME IOVERLAY, 0, STATIC
        LOCFRAME DOVERLAY, 0, STATIC
        ARGFRAME ISTACK, 0, STACK
        ARGFRAME PSTACK, 0, STACK
        ARGFRAME XSTACK, 15, STACK
        ARGFRAME IOVERLAY, 0, STATIC
        ARGFRAME DOVERLAY, 0, STATIC
        FUNCALL ZDApp_ProcessOSALMsg, NLME_SetPollRate
        LOCFRAME ISTACK, 0, STACK
        LOCFRAME PSTACK, 0, STACK
        LOCFRAME XSTACK, 15, STACK
        LOCFRAME IOVERLAY, 0, STATIC
        LOCFRAME DOVERLAY, 0, STATIC
        ARGFRAME ISTACK, 0, STACK
        ARGFRAME PSTACK, 0, STACK
        ARGFRAME XSTACK, 15, STACK
        ARGFRAME IOVERLAY, 0, STATIC
        ARGFRAME DOVERLAY, 0, STATIC
        FUNCALL ZDApp_ProcessOSALMsg, osal_rand
        LOCFRAME ISTACK, 0, STACK
        LOCFRAME PSTACK, 0, STACK
        LOCFRAME XSTACK, 15, STACK
        LOCFRAME IOVERLAY, 0, STATIC
        LOCFRAME DOVERLAY, 0, STATIC
        ARGFRAME ISTACK, 0, STACK
        ARGFRAME PSTACK, 0, STACK
        ARGFRAME XSTACK, 15, STACK
        ARGFRAME IOVERLAY, 0, STATIC
        ARGFRAME DOVERLAY, 0, STATIC
        FUNCALL ZDApp_ProcessOSALMsg, ZDApp_NetworkInit
        LOCFRAME ISTACK, 0, STACK
        LOCFRAME PSTACK, 0, STACK
        LOCFRAME XSTACK, 15, STACK
        LOCFRAME IOVERLAY, 0, STATIC
        LOCFRAME DOVERLAY, 0, STATIC
        ARGFRAME ISTACK, 0, STACK
        ARGFRAME PSTACK, 0, STACK
        ARGFRAME XSTACK, 15, STACK
        ARGFRAME IOVERLAY, 0, STATIC
        ARGFRAME DOVERLAY, 0, STATIC
        FUNCALL ZDApp_ProcessOSALMsg, ZDApp_ProcessNetworkJoin
        LOCFRAME ISTACK, 0, STACK
        LOCFRAME PSTACK, 0, STACK
        LOCFRAME XSTACK, 15, STACK
        LOCFRAME IOVERLAY, 0, STATIC
        LOCFRAME DOVERLAY, 0, STATIC
        ARGFRAME ISTACK, 0, STACK
        ARGFRAME PSTACK, 0, STACK
        ARGFRAME XSTACK, 15, STACK
        ARGFRAME IOVERLAY, 0, STATIC
        ARGFRAME DOVERLAY, 0, STATIC
        FUNCALL ZDApp_ProcessOSALMsg, sAddrExtCpy
        LOCFRAME ISTACK, 0, STACK
        LOCFRAME PSTACK, 0, STACK
        LOCFRAME XSTACK, 15, STACK
        LOCFRAME IOVERLAY, 0, STATIC
        LOCFRAME DOVERLAY, 0, STATIC
        ARGFRAME ISTACK, 0, STACK
        ARGFRAME PSTACK, 0, STACK
        ARGFRAME XSTACK, 15, STACK
        ARGFRAME IOVERLAY, 0, STATIC
        ARGFRAME DOVERLAY, 0, STATIC
        FUNCALL ZDApp_ProcessOSALMsg, ZDApp_NetworkInit
        LOCFRAME ISTACK, 0, STACK
        LOCFRAME PSTACK, 0, STACK
        LOCFRAME XSTACK, 15, STACK
        LOCFRAME IOVERLAY, 0, STATIC
        LOCFRAME DOVERLAY, 0, STATIC
        ARGFRAME ISTACK, 0, STACK
        ARGFRAME PSTACK, 0, STACK
        ARGFRAME XSTACK, 15, STACK
        ARGFRAME IOVERLAY, 0, STATIC
        ARGFRAME DOVERLAY, 0, STATIC
        FUNCALL ZDApp_ProcessOSALMsg, ZDApp_ProcessSecMsg
        LOCFRAME ISTACK, 0, STACK
        LOCFRAME PSTACK, 0, STACK
        LOCFRAME XSTACK, 15, STACK
        LOCFRAME IOVERLAY, 0, STATIC
        LOCFRAME DOVERLAY, 0, STATIC
        ARGFRAME ISTACK, 0, STACK
        ARGFRAME PSTACK, 0, STACK
        ARGFRAME XSTACK, 15, STACK
        ARGFRAME IOVERLAY, 0, STATIC
        ARGFRAME DOVERLAY, 0, STATIC
        REQUIRE ?V0
        REQUIRE ?V1
        REQUIRE ?V2
        REQUIRE ?V3
        MOV       A,#-0xc
        LCALL     ?BANKED_ENTER_XDATA
          CFI DPH0 load(1, XDATA, add(CFA_XSP16, literal(-1)))
          CFI DPL0 load(1, XDATA, add(CFA_XSP16, literal(-2)))
          CFI ?BRET_EXT load(1, XDATA, add(CFA_XSP16, literal(-3)))
          CFI ?RET_HIGH load(1, XDATA, add(CFA_XSP16, literal(-4)))
          CFI ?RET_LOW load(1, XDATA, add(CFA_XSP16, literal(-5)))
          CFI R7 load(1, XDATA, add(CFA_XSP16, literal(-6)))
          CFI V3 load(1, XDATA, add(CFA_XSP16, literal(-7)))
          CFI V2 load(1, XDATA, add(CFA_XSP16, literal(-8)))
          CFI V1 load(1, XDATA, add(CFA_XSP16, literal(-9)))
          CFI V0 load(1, XDATA, add(CFA_XSP16, literal(-10)))
          CFI VB load(1, XDATA, add(CFA_XSP16, literal(-11)))
          CFI R6 load(1, XDATA, add(CFA_XSP16, literal(-12)))
          CFI CFA_SP SP+0
          CFI CFA_XSP16 add(XSP16, 12)
        ; Saved register size: 12
        ; Auto size: 3
        MOV       A,#-0x3
        LCALL     ?ALLOC_XSTACK8
          CFI CFA_XSP16 add(XSP16, 15)
// 1128   // Data Confirmation message fields
// 1129   uint8 sentEP;       // This should always be 0
// 1130   uint8 sentStatus;
// 1131   afDataConfirm_t *afDataConfirm;
// 1132   uint8 tmp;
// 1133 
// 1134   switch ( msgPtr->event )
        MOV       DPL,R2
        MOV       DPH,R3
        MOVX      A,@DPTR
        DEC       A
        JZ        ??ZDApp_ProcessOSALMsg_0
        DEC       A
        JNZ       $+5
        LJMP      ??ZDApp_ProcessOSALMsg_1 & 0xFFFF
        DEC       A
        JNZ       $+5
        LJMP      ??ZDApp_ProcessOSALMsg_2 & 0xFFFF
        ADD       A,#-0x17
        JZ        ??ZDApp_ProcessOSALMsg_3
        ADD       A,#0x47
        JZ        ??ZDApp_ProcessOSALMsg_4
        ADD       A,#-0x2a
        JNZ       $+5
        LJMP      ??ZDApp_ProcessOSALMsg_5 & 0xFFFF
        LJMP      ??ZDApp_ProcessOSALMsg_6 & 0xFFFF
// 1135   {
// 1136     // Incoming ZDO Message
// 1137     case AF_INCOMING_MSG_CMD:
// 1138       ZDP_IncomingData( (afIncomingMSGPacket_t *)msgPtr );
??ZDApp_ProcessOSALMsg_3:
        ; Setup parameters for call to function ZDP_IncomingData
        LCALL     `??ZDP_IncomingData::?relay`; Banked call to: ZDP_IncomingData
// 1139       break;
        LJMP      ??ZDApp_ProcessOSALMsg_5 & 0xFFFF
// 1140 
// 1141     case ZDO_CB_MSG:
// 1142       ZDApp_ProcessMsgCBs( (zdoIncomingMsg_t *)msgPtr );
??ZDApp_ProcessOSALMsg_4:
        ; Setup parameters for call to function ZDApp_ProcessMsgCBs
        LCALL     `??ZDApp_ProcessMsgCBs::?relay`; Banked call to: ZDApp_ProcessMsgCBs
// 1143       break;
        LJMP      ??ZDApp_ProcessOSALMsg_5 & 0xFFFF
// 1144 
// 1145     case AF_DATA_CONFIRM_CMD:
// 1146       // This message is received as a confirmation of a data packet sent.
// 1147       // The status is of ZStatus_t type [defined in NLMEDE.h]
// 1148       // The message fields are defined in AF.h
// 1149       afDataConfirm = (afDataConfirm_t *)msgPtr;
// 1150       sentEP = afDataConfirm->endpoint;
// 1151       sentStatus = afDataConfirm->hdr.status;
// 1152 
// 1153       // Action taken when confirmation is received.
// 1154 #if defined ( ZIGBEE_FREQ_AGILITY )
// 1155       if ( pZDNwkMgr_ProcessDataConfirm )
// 1156         pZDNwkMgr_ProcessDataConfirm( afDataConfirm );
// 1157 #endif
// 1158       (void)sentEP;
// 1159       (void)sentStatus;
// 1160       break;
// 1161 
// 1162     case ZDO_NWK_DISC_CNF:
// 1163       if (devState != DEV_NWK_DISC)
??ZDApp_ProcessOSALMsg_0:
        MOV       DPTR,#devState
        MOVX      A,@DPTR
        XRL       A,#0x2
        JZ        $+5
        LJMP      ??ZDApp_ProcessOSALMsg_5 & 0xFFFF
// 1164         break;
// 1165 
// 1166       if ( ZG_BUILD_JOINING_TYPE && ZG_DEVICE_JOINING_TYPE )
        MOV       DPTR,#zgDeviceLogicalType
        MOVX      A,@DPTR
        XRL       A,#0x1
        JZ        ??ZDApp_ProcessOSALMsg_7
        MOVX      A,@DPTR
        XRL       A,#0x2
        JZ        $+5
        LJMP      ??ZDApp_ProcessOSALMsg_5 & 0xFFFF
// 1167       {
// 1168         // Process the network discovery scan results and choose a parent
// 1169         // device to join/rejoin itself
// 1170         networkDesc_t *pChosenNwk;
// 1171         if ( ( (pChosenNwk = ZDApp_NwkDescListProcessing()) != NULL ) && (zdoDiscCounter > NUM_DISC_ATTEMPTS) )
??ZDApp_ProcessOSALMsg_7:
        ; Setup parameters for call to function ZDApp_NwkDescListProcessing
        LCALL     `??ZDApp_NwkDescListProcessing::?relay`; Banked call to: ZDApp_NwkDescListProcessing
        MOV       ?V0,R2
        MOV       ?V1,R3
        MOV       A,R2
        ORL       A,R3
        JNZ       $+5
        LJMP      ??ZDApp_ProcessOSALMsg_8 & 0xFFFF
        MOV       DPTR,#zdoDiscCounter
        MOVX      A,@DPTR
        CLR       C
        SUBB      A,#0x3
        JNC       $+5
        LJMP      ??ZDApp_ProcessOSALMsg_8 & 0xFFFF
// 1172         {
// 1173           if ( devStartMode == MODE_JOIN )
        MOV       A,R2
        ADD       A,#0x2
        MOV       R0,A
        CLR       A
        ADDC      A,?V1
        MOV       R1,A
        MOV       A,R0
        MOV       R6,A
        MOV       A,R1
        MOV       R7,A
        MOV       DPTR,#devStartMode
        MOVX      A,@DPTR
        JNZ       ??ZDApp_ProcessOSALMsg_9
// 1174           {
// 1175             ZDApp_ChangeState( DEV_NWK_JOINING );
        ; Setup parameters for call to function ZDApp_ChangeState
        MOV       R1,#0x3
        LCALL     `??ZDApp_ChangeState::?relay`; Banked call to: ZDApp_ChangeState
// 1176 
// 1177             ZDApp_NodeProfileSync( pChosenNwk->stackProfile);
        ; Setup parameters for call to function ZDApp_NodeProfileSync
        MOV       DPL,?V0
        MOV       DPH,?V1
        INC       DPTR
        INC       DPTR
        INC       DPTR
        INC       DPTR
        INC       DPTR
        INC       DPTR
        MOVX      A,@DPTR
        MOV       R1,A
        LCALL     `??ZDApp_NodeProfileSync::?relay`; Banked call to: ZDApp_NodeProfileSync
// 1178 
// 1179             if ( NLME_JoinRequest( pChosenNwk->extendedPANID, pChosenNwk->panId,
// 1180                                   pChosenNwk->logicalChannel,
// 1181                                   ZDO_Config_Node_Descriptor.CapabilityFlags,
// 1182                                   pChosenNwk->chosenRouter, pChosenNwk->chosenRouterDepth ) != ZSuccess )
        ; Setup parameters for call to function NLME_JoinRequest
        MOV       DPL,?V0
        MOV       DPH,?V1
        INC       DPTR
        INC       DPTR
        INC       DPTR
        INC       DPTR
        INC       DPTR
        INC       DPTR
        INC       DPTR
        INC       DPTR
        INC       DPTR
        INC       DPTR
        MOVX      A,@DPTR
        MOV       ?V2,A
        MOV       R0,#?V2
        LCALL     ?PUSH_XSTACK_I_ONE
          CFI CFA_XSP16 add(XSP16, 16)
        MOV       DPL,?V0
        MOV       DPH,?V1
        INC       DPTR
        INC       DPTR
        INC       DPTR
        INC       DPTR
        INC       DPTR
        INC       DPTR
        INC       DPTR
        LCALL     ?PUSH_XSTACK8_X_TWO
          CFI CFA_XSP16 add(XSP16, 18)
        MOV       DPTR,#ZDO_Config_Node_Descriptor + 2
        MOVX      A,@DPTR
        MOV       ?V2,A
        MOV       R0,#?V2
        LCALL     ?PUSH_XSTACK_I_ONE
          CFI CFA_XSP16 add(XSP16, 19)
        MOV       DPL,R6
        MOV       DPH,R7
        MOVX      A,@DPTR
        MOV       R1,A
        MOV       DPL,?V0
        MOV       DPH,?V1
        MOVX      A,@DPTR
        MOV       R4,A
        INC       DPTR
        MOVX      A,@DPTR
        MOV       R5,A
        MOV       A,?V0
        ADD       A,#0xb
        MOV       R2,A
        CLR       A
        ADDC      A,?V1
        MOV       R3,A
        LCALL     `??NLME_JoinRequest::?relay`; Banked call to: NLME_JoinRequest
        MOV       A,#0x4
        LCALL     ?DEALLOC_XSTACK8
          CFI CFA_XSP16 add(XSP16, 15)
        LJMP      ??ZDApp_ProcessOSALMsg_10 & 0xFFFF
// 1183             {
// 1184               ZDApp_NetworkInit( (uint16)(NWK_START_DELAY
// 1185                                           + ((uint16)(osal_rand()& EXTENDED_JOINING_RANDOM_MASK))) );
// 1186             }
// 1187           } // if ( devStartMode == MODE_JOIN )
// 1188           else if ( devStartMode == MODE_REJOIN )
??ZDApp_ProcessOSALMsg_9:
        XRL       A,#0x3
        JZ        $+5
        LJMP      ??CrossCallReturnLabel_35 & 0xFFFF
// 1189           {
// 1190             ZStatus_t rejoinStatus;
// 1191 
// 1192             // Transition state machine to correct rejoin state based on previous state before network discovery
// 1193             if ( ZDApp_RestoreNwkKey( FALSE )== TRUE )
        ; Setup parameters for call to function ZDApp_RestoreNwkKey
        MOV       R1,#0x0
        LCALL     `??ZDApp_RestoreNwkKey::?relay`; Banked call to: ZDApp_RestoreNwkKey
        MOV       A,R1
        XRL       A,#0x1
        MOV       DPTR,#prevDevState
        JNZ       ??ZDApp_ProcessOSALMsg_11
// 1194             {
// 1195               if ( prevDevState == DEV_NWK_SEC_REJOIN_CURR_CHANNEL )
        MOVX      A,@DPTR
        XRL       A,#0x4
        JNZ       ??ZDApp_ProcessOSALMsg_12
// 1196               {
// 1197                 ZDApp_ChangeState(DEV_NWK_SEC_REJOIN_ALL_CHANNEL);
        ; Setup parameters for call to function ZDApp_ChangeState
        MOV       R1,#0xd
        SJMP      ??ZDApp_ProcessOSALMsg_13
// 1198               }
// 1199               else
// 1200               {
// 1201                 ZDApp_ChangeState( DEV_NWK_SEC_REJOIN_CURR_CHANNEL );
??ZDApp_ProcessOSALMsg_12:
        ; Setup parameters for call to function ZDApp_ChangeState
        MOV       R1,#0x4
        SJMP      ??ZDApp_ProcessOSALMsg_13
// 1202               }
// 1203             }
// 1204             else
// 1205             {
// 1206               if( prevDevState == DEV_NWK_SEC_REJOIN_ALL_CHANNEL )
??ZDApp_ProcessOSALMsg_11:
        MOVX      A,@DPTR
        XRL       A,#0xd
        JNZ       ??ZDApp_ProcessOSALMsg_14
// 1207               {
// 1208                 ZDApp_ChangeState( DEV_NWK_TC_REJOIN_CURR_CHANNEL );
        ; Setup parameters for call to function ZDApp_ChangeState
        MOV       R1,#0xe
        SJMP      ??ZDApp_ProcessOSALMsg_13
// 1209               }
// 1210               else
// 1211               {
// 1212                 ZDApp_ChangeState( DEV_NWK_TC_REJOIN_ALL_CHANNEL );
??ZDApp_ProcessOSALMsg_14:
        ; Setup parameters for call to function ZDApp_ChangeState
        MOV       R1,#0xf
??ZDApp_ProcessOSALMsg_13:
        LCALL     `??ZDApp_ChangeState::?relay`; Banked call to: ZDApp_ChangeState
// 1213               }
// 1214             }
// 1215 
// 1216             // Before trying to do rejoin, check if the device has a valid short address
// 1217             // If not, generate a random short address for itself
// 1218             if ( _NIB.nwkDevAddress == INVALID_NODE_ADDR )
        MOV       DPTR,#_NIB + 20
        MOVX      A,@DPTR
        XRL       A,#0xfe
        JNZ       ??ZDApp_ProcessOSALMsg_15
        INC       DPTR
        MOVX      A,@DPTR
        CPL       A
??ZDApp_ProcessOSALMsg_15:
        JNZ       ??ZDApp_ProcessOSALMsg_16
// 1219             {
// 1220               uint16 commNwkAddr;
// 1221 
// 1222               // Verify if the Network address has been commissioned by external tool
// 1223               if ( ( osal_nv_read( ZCD_NV_COMMISSIONED_NWK_ADDR, 0,
// 1224                                  sizeof(commNwkAddr),
// 1225                                  (void*)&commNwkAddr ) == ZSUCCESS )   &&
// 1226                    ( commNwkAddr != INVALID_NODE_ADDR ) )
        ; Setup parameters for call to function osal_nv_read
        MOV       A,#0x1
        LCALL     ?XSTACK_DISP100_8
        MOV       ?V2,R0
        MOV       ?V3,R1
        MOV       R0,#?V2
        LCALL     ?PUSH_XSTACK_I_TWO
          CFI CFA_XSP16 add(XSP16, 17)
        MOV       ?V2,#0x2
        MOV       ?V3,#0x0
        MOV       R0,#?V2
        LCALL     ?PUSH_XSTACK_I_TWO
          CFI CFA_XSP16 add(XSP16, 19)
        MOV       R4,#0x0
        MOV       R5,#0x0
        MOV       R2,#0x49
        LCALL     ?Subroutine37 & 0xFFFF
??CrossCallReturnLabel_43:
        LCALL     ?DEALLOC_XSTACK8
          CFI CFA_XSP16 add(XSP16, 15)
        MOV       A,R1
        JNZ       ??ZDApp_ProcessOSALMsg_17
        MOV       A,#0x1
        LCALL     ?XSTACK_DISP0_8
        MOVX      A,@DPTR
        XRL       A,#0xfe
        JNZ       ??ZDApp_ProcessOSALMsg_18
        INC       DPTR
        MOVX      A,@DPTR
        CPL       A
??ZDApp_ProcessOSALMsg_18:
        JZ        ??ZDApp_ProcessOSALMsg_17
// 1227               {
// 1228                 _NIB.nwkDevAddress = commNwkAddr;
        MOV       A,#0x1
        LCALL     ?XSTACK_DISP0_8
        LCALL     ??Subroutine66_0 & 0xFFFF
??CrossCallReturnLabel_122:
        MOV       DPTR,#_NIB + 20
        LCALL     ??Subroutine60_0 & 0xFFFF
// 1229 
// 1230                 // clear Allocate address bit because device has a commissioned address
// 1231                 _NIB.CapabilityFlags &= ~CAPINFO_ALLOC_ADDR;
??CrossCallReturnLabel_99:
        MOV       DPTR,#_NIB + 14
        MOVX      A,@DPTR
        CLR       0xE0 /* A   */.7
        SJMP      ??ZDApp_ProcessOSALMsg_19
// 1232               }
// 1233               else
// 1234               {
// 1235                 _NIB.nwkDevAddress = osal_rand();
??ZDApp_ProcessOSALMsg_17:
        ; Setup parameters for call to function osal_rand
        LCALL     `??osal_rand::?relay`; Banked call to: osal_rand
        MOV       DPTR,#_NIB + 20
        MOV       A,R2
        MOVX      @DPTR,A
        INC       DPTR
        MOV       A,R3
??ZDApp_ProcessOSALMsg_19:
        MOVX      @DPTR,A
// 1236               }
// 1237 
// 1238               ZMacSetReq( ZMacShortAddress, (byte*)&_NIB.nwkDevAddress );
        ; Setup parameters for call to function ZMacSetReq
        MOV       R2,#(_NIB + 20) & 0xff
        MOV       R3,#((_NIB + 20) >> 8) & 0xff
        MOV       R1,#0x53
        LCALL     `??ZMacSetReq::?relay`; Banked call to: ZMacSetReq
// 1239             }
// 1240 
// 1241             // Check if the device has a valid PanID, if not, set it to the discovered Pan
// 1242             if ( _NIB.nwkPanId == 0xFFFF )
??ZDApp_ProcessOSALMsg_16:
        MOV       DPTR,#_NIB + 33
        MOVX      A,@DPTR
        CPL       A
        JNZ       ??ZDApp_ProcessOSALMsg_20
        INC       DPTR
        MOVX      A,@DPTR
        CPL       A
??ZDApp_ProcessOSALMsg_20:
        JNZ       ??ZDApp_ProcessOSALMsg_21
// 1243             {
// 1244               _NIB.nwkPanId = pChosenNwk->panId;
        MOV       DPL,?V0
        MOV       DPH,?V1
        LCALL     ??Subroutine66_0 & 0xFFFF
??CrossCallReturnLabel_123:
        MOV       DPTR,#_NIB + 33
        LCALL     ??Subroutine60_0 & 0xFFFF
// 1245               ZMacSetReq( ZMacPanId, (byte*)&(_NIB.nwkPanId) );
??CrossCallReturnLabel_100:
        ; Setup parameters for call to function ZMacSetReq
        MOV       R2,#(_NIB + 33) & 0xff
        MOV       R3,#((_NIB + 33) >> 8) & 0xff
        MOV       R1,#0x50
        LCALL     `??ZMacSetReq::?relay`; Banked call to: ZMacSetReq
// 1246             }
// 1247 
// 1248             tmp = true;
??ZDApp_ProcessOSALMsg_21:
        MOV       DPL,?XSP + 0
        MOV       DPH,?XSP + 1
        MOV       A,#0x1
        MOVX      @DPTR,A
// 1249             ZMacSetReq( ZMacRxOnIdle, &tmp ); // Set receiver always on during rejoin
        ; Setup parameters for call to function ZMacSetReq
        MOV       R2,?XSP + 0
        MOV       R3,?XSP + 1
        MOV       R1,#0x52
        LCALL     `??ZMacSetReq::?relay`; Banked call to: ZMacSetReq
// 1250 
// 1251             // Perform Secure or Unsecure Rejoin depending on available configuration
// 1252             if ( ZG_SECURE_ENABLED && ( ZDApp_RestoreNwkKey( TRUE ) == TRUE ) )
        ; Setup parameters for call to function ZDApp_RestoreNwkKey
        MOV       R1,#0x1
        LCALL     `??ZDApp_RestoreNwkKey::?relay`; Banked call to: ZDApp_RestoreNwkKey
        MOV       A,R1
        XRL       A,#0x1
        MOV       DPL,R6
        MOV       DPH,R7
        JNZ       ??ZDApp_ProcessOSALMsg_22
// 1253             {
// 1254               rejoinStatus = NLME_ReJoinRequest( ZDO_UseExtendedPANID, pChosenNwk->logicalChannel);
        ; Setup parameters for call to function NLME_ReJoinRequest
        MOVX      A,@DPTR
        MOV       R1,A
        MOV       R2,#ZDO_UseExtendedPANID & 0xff
        MOV       R3,#(ZDO_UseExtendedPANID >> 8) & 0xff
        LCALL     `??NLME_ReJoinRequest::?relay`; Banked call to: NLME_ReJoinRequest
        SJMP      ??ZDApp_ProcessOSALMsg_10
// 1255             }
// 1256             else
// 1257             {
// 1258               rejoinStatus = NLME_ReJoinRequestUnsecure( ZDO_UseExtendedPANID, pChosenNwk->logicalChannel);
??ZDApp_ProcessOSALMsg_22:
        ; Setup parameters for call to function NLME_ReJoinRequestUnsecure
        MOVX      A,@DPTR
        MOV       R1,A
        MOV       R2,#ZDO_UseExtendedPANID & 0xff
        MOV       R3,#(ZDO_UseExtendedPANID >> 8) & 0xff
        LCALL     `??NLME_ReJoinRequestUnsecure::?relay`; Banked call to: NLME_ReJoinRequestUnsecure
??ZDApp_ProcessOSALMsg_10:
        MOV       A,R1
// 1259             }
// 1260 
// 1261             if ( rejoinStatus != ZSuccess )
        JZ        ??CrossCallReturnLabel_35
// 1262             {
// 1263               ZDApp_NetworkInit( (uint16)(NWK_START_DELAY
// 1264                                           + ((uint16)(osal_rand()& EXTENDED_JOINING_RANDOM_MASK))) );
        ; Setup parameters for call to function osal_rand
        LCALL     ?Subroutine34 & 0xFFFF
// 1265             }
// 1266           } // else if ( devStartMode == MODE_REJOIN )
// 1267 
// 1268           // The receiver is on, turn network layer polling off.
// 1269           if ( ZDO_Config_Node_Descriptor.CapabilityFlags & CAPINFO_RCVR_ON_IDLE )
??CrossCallReturnLabel_35:
        MOV       DPTR,#ZDO_Config_Node_Descriptor + 2
        MOVX      A,@DPTR
        MOV       C,0xE0 /* A   */.3
        JNC       ??ZDApp_ProcessOSALMsg_23
// 1270           {
// 1271             // for an End Device with NO Child Table Management process or for a Router
// 1272             if ( ( ZG_DEVICE_RTR_TYPE )  ||
// 1273                  ( (ZG_DEVICE_ENDDEVICE_TYPE) && ( zgChildAgingEnable == FALSE ) ) )
        MOV       DPTR,#zgDeviceLogicalType
        MOVX      A,@DPTR
        JZ        ??ZDApp_ProcessOSALMsg_24
        XRL       A,#0x1
        JZ        ??ZDApp_ProcessOSALMsg_24
        MOV       DPTR,#zgChildAgingEnable
        MOVX      A,@DPTR
        JZ        $+5
        LJMP      ??ZDApp_ProcessOSALMsg_5 & 0xFFFF
// 1274             {
// 1275               NLME_SetPollRate( 0 );
??ZDApp_ProcessOSALMsg_24:
        ; Setup parameters for call to function NLME_SetPollRate
        MOV       DPTR,#__Constant_0
        LCALL     ?XLOAD_R2345
        LCALL     ?Subroutine36 & 0xFFFF
// 1276               NLME_SetQueuedPollRate( 0 );
// 1277               NLME_SetResponseRate( 0 );
// 1278             }
// 1279           }
??CrossCallReturnLabel_40:
        SJMP      ??ZDApp_ProcessOSALMsg_5
// 1280           else
// 1281           {
// 1282             if ( (ZG_SECURE_ENABLED) && (devStartMode == MODE_JOIN) )
??ZDApp_ProcessOSALMsg_23:
        MOV       DPTR,#devStartMode
        MOVX      A,@DPTR
        JNZ       ??ZDApp_ProcessOSALMsg_5
// 1283             {
// 1284               ZDApp_SavedPollRate = zgPollRate;
        MOV       DPTR,#zgPollRate
        LCALL     ?XLOAD_R0123
        MOV       DPTR,#ZDApp_SavedPollRate
        LCALL     ?XSTORE_R0123
// 1285               NLME_SetPollRate( zgRejoinPollRate );
        ; Setup parameters for call to function NLME_SetPollRate
        MOV       DPTR,#zgRejoinPollRate
        MOVX      A,@DPTR
        MOV       ?V0,A
        INC       DPTR
        MOVX      A,@DPTR
        MOV       R2,?V0
        MOV       R3,A
        CLR       A
        MOV       R4,A
        MOV       R5,A
        LCALL     `??NLME_SetPollRate::?relay`; Banked call to: NLME_SetPollRate
        SJMP      ??ZDApp_ProcessOSALMsg_5
// 1286             }
// 1287           }
// 1288         }
// 1289         else
// 1290         {
// 1291           if ( continueJoining )
??ZDApp_ProcessOSALMsg_8:
        MOV       DPTR,#continueJoining
        MOVX      A,@DPTR
        JZ        ??ZDApp_ProcessOSALMsg_5
// 1292           {
// 1293 #if defined ( MANAGED_SCAN )
// 1294             ZDApp_NetworkInit( MANAGEDSCAN_DELAY_BETWEEN_SCANS );
// 1295 #else
// 1296             zdoDiscCounter++;
        MOV       DPTR,#zdoDiscCounter
        MOVX      A,@DPTR
        INC       A
        MOVX      @DPTR,A
// 1297             ZDApp_NetworkInit( (uint16)(BEACON_REQUEST_DELAY
// 1298                                         + ((uint16)(osal_rand()& BEACON_REQ_DELAY_MASK))) );
        ; Setup parameters for call to function osal_rand
        LCALL     `??osal_rand::?relay`; Banked call to: osal_rand
        ; Setup parameters for call to function ZDApp_NetworkInit
        MOV       A,R2
        ADD       A,#0x64
        MOV       R2,A
        CLR       A
        ADDC      A,#0x0
        MOV       R3,A
        SJMP      ??ZDApp_ProcessOSALMsg_25
// 1299 #endif
// 1300           }
// 1301         }
// 1302       }
// 1303       break;
// 1304 
// 1305     case ZDO_NWK_JOIN_IND:
// 1306       if ( ZG_BUILD_JOINING_TYPE && ZG_DEVICE_JOINING_TYPE )
??ZDApp_ProcessOSALMsg_1:
        MOV       DPTR,#zgDeviceLogicalType
        MOVX      A,@DPTR
        XRL       A,#0x1
        JZ        ??ZDApp_ProcessOSALMsg_26
        MOVX      A,@DPTR
        XRL       A,#0x2
        JNZ       ??ZDApp_ProcessOSALMsg_5
// 1307       {
// 1308         ZDApp_ProcessNetworkJoin();
??ZDApp_ProcessOSALMsg_26:
        ; Setup parameters for call to function ZDApp_ProcessNetworkJoin
        LCALL     `??ZDApp_ProcessNetworkJoin::?relay`; Banked call to: ZDApp_ProcessNetworkJoin
        SJMP      ??ZDApp_ProcessOSALMsg_5
// 1309       }
// 1310       break;
// 1311 
// 1312     case ZDO_NWK_JOIN_REQ:
// 1313       if ( ZG_BUILD_JOINING_TYPE && ZG_DEVICE_JOINING_TYPE )
??ZDApp_ProcessOSALMsg_2:
        MOV       DPTR,#zgDeviceLogicalType
        MOVX      A,@DPTR
        XRL       A,#0x1
        JZ        ??ZDApp_ProcessOSALMsg_27
        MOVX      A,@DPTR
        XRL       A,#0x2
        JNZ       ??ZDApp_ProcessOSALMsg_5
// 1314       {
// 1315         retryCnt = 0;
??ZDApp_ProcessOSALMsg_27:
        MOV       DPTR,#retryCnt
        CLR       A
        LCALL     ?Subroutine14 & 0xFFFF
// 1316         devStartMode = MODE_RESUME;
// 1317         _tmpRejoinState = true;
??CrossCallReturnLabel_4:
        LCALL     ?Subroutine11 & 0xFFFF
// 1318         osal_cpyExtAddr( ZDO_UseExtendedPANID, _NIB.extendedPANID );
// 1319         zgDefaultStartingScanDuration = BEACON_ORDER_60_MSEC;
??CrossCallReturnLabel_2:
        MOV       DPTR,#zgDefaultStartingScanDuration
        MOV       A,#0x2
        MOVX      @DPTR,A
// 1320         ZDApp_NetworkInit( 0 );
        ; Setup parameters for call to function ZDApp_NetworkInit
        MOV       R2,#0x0
        MOV       R3,#0x0
??ZDApp_ProcessOSALMsg_25:
        LCALL     `??ZDApp_NetworkInit::?relay`; Banked call to: ZDApp_NetworkInit
        SJMP      ??ZDApp_ProcessOSALMsg_5
// 1321       }
// 1322       break;
// 1323 
// 1324     default:
// 1325       if ( ZG_SECURE_ENABLED )
// 1326         ZDApp_ProcessSecMsg( msgPtr );
??ZDApp_ProcessOSALMsg_6:
        ; Setup parameters for call to function ZDApp_ProcessSecMsg
        LCALL     `??ZDApp_ProcessSecMsg::?relay`; Banked call to: ZDApp_ProcessSecMsg
// 1327       break;
// 1328   }
// 1329 
// 1330 }
??ZDApp_ProcessOSALMsg_5:
        MOV       A,#0x3
        LJMP      ??Subroutine71_0 & 0xFFFF
          CFI EndBlock cfiBlock12
// 1331 
// 1332 /*********************************************************************
// 1333  * @fn      ZDApp_ProcessMsgCBs()
// 1334  *
// 1335  * @brief   Process response messages
// 1336  *
// 1337  * @param   none
// 1338  *
// 1339  * @return  none
// 1340  */

        RSEG BANKED_CODE:HUGECODE:NOROOT(0)
// 1341 void ZDApp_ProcessMsgCBs( zdoIncomingMsg_t *inMsg )
ZDApp_ProcessMsgCBs:
          CFI Block cfiBlock13 Using cfiCommon0
          CFI Function ZDApp_ProcessMsgCBs
        CODE
// 1342 {
        FUNCALL ZDApp_ProcessMsgCBs, ZDO_ParseAddrRsp
        LOCFRAME ISTACK, 0, STACK
        LOCFRAME PSTACK, 0, STACK
        LOCFRAME XSTACK, 35, STACK
        LOCFRAME IOVERLAY, 0, STATIC
        LOCFRAME DOVERLAY, 0, STATIC
        ARGFRAME ISTACK, 0, STACK
        ARGFRAME PSTACK, 0, STACK
        ARGFRAME XSTACK, 35, STACK
        ARGFRAME IOVERLAY, 0, STATIC
        ARGFRAME DOVERLAY, 0, STATIC
        FUNCALL ZDApp_ProcessMsgCBs, ZDO_UpdateAddrManager
        LOCFRAME ISTACK, 0, STACK
        LOCFRAME PSTACK, 0, STACK
        LOCFRAME XSTACK, 35, STACK
        LOCFRAME IOVERLAY, 0, STATIC
        LOCFRAME DOVERLAY, 0, STATIC
        ARGFRAME ISTACK, 0, STACK
        ARGFRAME PSTACK, 0, STACK
        ARGFRAME XSTACK, 35, STACK
        ARGFRAME IOVERLAY, 0, STATIC
        ARGFRAME DOVERLAY, 0, STATIC
        FUNCALL ZDApp_ProcessMsgCBs, ZDApp_ProcessPendingBindReq
        LOCFRAME ISTACK, 0, STACK
        LOCFRAME PSTACK, 0, STACK
        LOCFRAME XSTACK, 35, STACK
        LOCFRAME IOVERLAY, 0, STATIC
        LOCFRAME DOVERLAY, 0, STATIC
        ARGFRAME ISTACK, 0, STACK
        ARGFRAME PSTACK, 0, STACK
        ARGFRAME XSTACK, 35, STACK
        ARGFRAME IOVERLAY, 0, STATIC
        ARGFRAME DOVERLAY, 0, STATIC
        FUNCALL ZDApp_ProcessMsgCBs, osal_mem_free
        LOCFRAME ISTACK, 0, STACK
        LOCFRAME PSTACK, 0, STACK
        LOCFRAME XSTACK, 35, STACK
        LOCFRAME IOVERLAY, 0, STATIC
        LOCFRAME DOVERLAY, 0, STATIC
        ARGFRAME ISTACK, 0, STACK
        ARGFRAME PSTACK, 0, STACK
        ARGFRAME XSTACK, 35, STACK
        ARGFRAME IOVERLAY, 0, STATIC
        ARGFRAME DOVERLAY, 0, STATIC
        FUNCALL ZDApp_ProcessMsgCBs, ZDO_ParseBindUnbindReq
        LOCFRAME ISTACK, 0, STACK
        LOCFRAME PSTACK, 0, STACK
        LOCFRAME XSTACK, 35, STACK
        LOCFRAME IOVERLAY, 0, STATIC
        LOCFRAME DOVERLAY, 0, STATIC
        ARGFRAME ISTACK, 0, STACK
        ARGFRAME PSTACK, 0, STACK
        ARGFRAME XSTACK, 35, STACK
        ARGFRAME IOVERLAY, 0, STATIC
        ARGFRAME DOVERLAY, 0, STATIC
        FUNCALL ZDApp_ProcessMsgCBs, ZDO_ProcessBindUnbindReq
        LOCFRAME ISTACK, 0, STACK
        LOCFRAME PSTACK, 0, STACK
        LOCFRAME XSTACK, 35, STACK
        LOCFRAME IOVERLAY, 0, STATIC
        LOCFRAME DOVERLAY, 0, STATIC
        ARGFRAME ISTACK, 0, STACK
        ARGFRAME PSTACK, 0, STACK
        ARGFRAME XSTACK, 35, STACK
        ARGFRAME IOVERLAY, 0, STATIC
        ARGFRAME DOVERLAY, 0, STATIC
        REQUIRE ?V0
        REQUIRE ?V1
        REQUIRE ?V2
        REQUIRE ?V3
        REQUIRE ?V4
        REQUIRE ?V5
        MOV       A,#-0xe
        LCALL     ?BANKED_ENTER_XDATA
          CFI DPH0 load(1, XDATA, add(CFA_XSP16, literal(-1)))
          CFI DPL0 load(1, XDATA, add(CFA_XSP16, literal(-2)))
          CFI ?BRET_EXT load(1, XDATA, add(CFA_XSP16, literal(-3)))
          CFI ?RET_HIGH load(1, XDATA, add(CFA_XSP16, literal(-4)))
          CFI ?RET_LOW load(1, XDATA, add(CFA_XSP16, literal(-5)))
          CFI R7 load(1, XDATA, add(CFA_XSP16, literal(-6)))
          CFI V5 load(1, XDATA, add(CFA_XSP16, literal(-7)))
          CFI V4 load(1, XDATA, add(CFA_XSP16, literal(-8)))
          CFI V3 load(1, XDATA, add(CFA_XSP16, literal(-9)))
          CFI V2 load(1, XDATA, add(CFA_XSP16, literal(-10)))
          CFI V1 load(1, XDATA, add(CFA_XSP16, literal(-11)))
          CFI V0 load(1, XDATA, add(CFA_XSP16, literal(-12)))
          CFI VB load(1, XDATA, add(CFA_XSP16, literal(-13)))
          CFI R6 load(1, XDATA, add(CFA_XSP16, literal(-14)))
          CFI CFA_SP SP+0
          CFI CFA_XSP16 add(XSP16, 14)
        ; Saved register size: 14
        ; Auto size: 21
        MOV       A,#-0x15
        LCALL     ?ALLOC_XSTACK8
          CFI CFA_XSP16 add(XSP16, 35)
        MOV       A,R2
        MOV       R6,A
        MOV       A,R3
        MOV       R7,A
// 1343   switch ( inMsg->clusterID )
        MOV       A,R2
        ADD       A,#0xc
        MOV       ?V0,A
        CLR       A
        ADDC      A,R7
        MOV       ?V1,A
        MOV       DPL,?V0
        MOV       DPH,A
        MOVX      A,@DPTR
        MOV       ?V2,A
        INC       DPTR
        MOVX      A,@DPTR
        MOV       ?V3,A
        MOV       R0,#?V2
        LCALL     ?US_SWITCH_SPARSE
`?<Jumptable for ZDApp_ProcessMsgCBs>_0`:
        DATA
        DATA16
        DATA
        DATA16
        DATA
        DATA16
        DW        2
        DATA
        DATA16
        DATA
        DATA16
        DATA
        DATA16
        DW        33
        DATA
        DATA16
        DATA
        DATA16
        DW        34
        DATA
        DATA16
        DATA
        DATA16
        DATA
        DATA16
        DW        ??ZDApp_ProcessMsgCBs_0
        DATA
        DATA16
        DATA
        DATA16
        DATA
        DATA16
        DW        32768
        DATA
        DATA16
        DATA
        DATA16
        DW        32769
        DATA
        DATA16
        DATA
        DATA16
        DATA
        DATA16
        DW        ??ZDApp_ProcessMsgCBs_1
        DATA
        DATA16
        DATA
        DATA16
        DATA
        DATA16
        DW        0
        DATA
        DATA16
        DATA
        DATA16
        DW        ??ZDApp_ProcessMsgCBs_2
        CODE
// 1344   {
// 1345 #if defined ( ZDO_NWKADDR_REQUEST ) || defined ( ZDO_IEEEADDR_REQUEST ) || defined ( REFLECTOR )
// 1346     case NWK_addr_rsp:
// 1347     case IEEE_addr_rsp:
// 1348       {
// 1349         ZDO_NwkIEEEAddrResp_t *pAddrRsp;
// 1350 
// 1351         pAddrRsp = ZDO_ParseAddrRsp( inMsg );
??ZDApp_ProcessMsgCBs_1:
        ; Setup parameters for call to function ZDO_ParseAddrRsp
        LCALL     `??ZDO_ParseAddrRsp::?relay`; Banked call to: ZDO_ParseAddrRsp
        MOV       ?V2,R2
        MOV       ?V3,R3
// 1352         if ( pAddrRsp )
        MOV       A,R2
        ORL       A,R3
        JZ        ??ZDApp_ProcessMsgCBs_2
// 1353         {
// 1354           if ( pAddrRsp->status == ZSuccess )
        MOV       A,R2
        ADD       A,#0x3
        MOV       R6,A
        CLR       A
        ADDC      A,?V3
        MOV       R7,A
        MOV       DPL,R2
        MOV       DPH,R3
        MOVX      A,@DPTR
        JNZ       ??ZDApp_ProcessMsgCBs_3
// 1355           {
// 1356             ZDO_UpdateAddrManager( pAddrRsp->nwkAddr, pAddrRsp->extAddr );
        ; Setup parameters for call to function ZDO_UpdateAddrManager
        MOV       A,R6
        MOV       R4,A
        MOV       A,R7
        MOV       R5,A
        LCALL     ?Subroutine22 & 0xFFFF
// 1357           }
??CrossCallReturnLabel_120:
        LCALL     `??ZDO_UpdateAddrManager::?relay`; Banked call to: ZDO_UpdateAddrManager
// 1358 
// 1359 #if !defined ( ZDP_BIND_SKIP_VALIDATION )
// 1360           // look for pending bind entry for NWK_addr_rsp Only
// 1361           if ( inMsg->clusterID == NWK_addr_rsp )
??ZDApp_ProcessMsgCBs_3:
        MOV       DPL,?V0
        MOV       DPH,?V1
        MOVX      A,@DPTR
        JNZ       ??ZDApp_ProcessMsgCBs_4
        INC       DPTR
        MOVX      A,@DPTR
        XRL       A,#0x80
??ZDApp_ProcessMsgCBs_4:
        JNZ       ??ZDApp_ProcessMsgCBs_5
// 1362           {
// 1363 #if defined ( REFLECTOR )
// 1364             ZDApp_ProcessPendingBindReq( pAddrRsp->extAddr );
        ; Setup parameters for call to function ZDApp_ProcessPendingBindReq
        MOV       A,R6
        MOV       R2,A
        MOV       A,R7
        MOV       R3,A
        LCALL     `??ZDApp_ProcessPendingBindReq::?relay`; Banked call to: ZDApp_ProcessPendingBindReq
// 1365 #endif
// 1366           }
// 1367 #endif
// 1368 
// 1369           osal_mem_free( pAddrRsp );
??ZDApp_ProcessMsgCBs_5:
        ; Setup parameters for call to function osal_mem_free
        MOV       R2,?V2
        MOV       R3,?V3
        LCALL     `??osal_mem_free::?relay`; Banked call to: osal_mem_free
        SJMP      ??ZDApp_ProcessMsgCBs_2
// 1370         }
// 1371       }
// 1372       break;
// 1373 #endif
// 1374 
// 1375 #if defined ( REFLECTOR )
// 1376     case Bind_req:
// 1377     case Unbind_req:
// 1378       {
// 1379         ZDO_BindUnbindReq_t bindReq;
// 1380         ZDO_ParseBindUnbindReq( inMsg, &bindReq );
??ZDApp_ProcessMsgCBs_0:
        ; Setup parameters for call to function ZDO_ParseBindUnbindReq
        MOV       R4,?XSP + 0
        MOV       R5,?XSP + 1
        LCALL     `??ZDO_ParseBindUnbindReq::?relay`; Banked call to: ZDO_ParseBindUnbindReq
// 1381         ZDO_ProcessBindUnbindReq( inMsg, &bindReq );
        ; Setup parameters for call to function ZDO_ProcessBindUnbindReq
        MOV       R4,?XSP + 0
        MOV       R5,?XSP + 1
        MOV       A,R6
        MOV       R2,A
        MOV       A,R7
        MOV       R3,A
        LCALL     `??ZDO_ProcessBindUnbindReq::?relay`; Banked call to: ZDO_ProcessBindUnbindReq
// 1382       }
// 1383       break;
// 1384 #endif
// 1385 
// 1386 #if ( ZG_BUILD_COORDINATOR_TYPE )
// 1387     case Bind_rsp:
// 1388     case Unbind_rsp:
// 1389       if (ZG_DEVICE_COORDINATOR_TYPE && matchED)
// 1390       {
// 1391         ZDMatchSendState(
// 1392              (uint8)((inMsg->clusterID == Bind_rsp) ? ZDMATCH_REASON_BIND_RSP : ZDMATCH_REASON_UNBIND_RSP),
// 1393              ZDO_ParseBindRsp(inMsg), inMsg->TransSeq );
// 1394       }
// 1395       break;
// 1396 
// 1397     case End_Device_Bind_req:
// 1398       if (ZG_DEVICE_COORDINATOR_TYPE)
// 1399       {
// 1400         ZDEndDeviceBind_t bindReq;
// 1401         ZDO_ParseEndDeviceBindReq( inMsg, &bindReq );
// 1402         ZDO_MatchEndDeviceBind( &bindReq );
// 1403 
// 1404         // Freeing the cluster lists - if allocated.
// 1405         if ( bindReq.numInClusters )
// 1406           osal_mem_free( bindReq.inClusters );
// 1407         if ( bindReq.numOutClusters )
// 1408           osal_mem_free( bindReq.outClusters );
// 1409       }
// 1410       break;
// 1411 #endif
// 1412   }
// 1413 }
??ZDApp_ProcessMsgCBs_2:
        MOV       A,#0x15
        LCALL     ?DEALLOC_XSTACK8
          CFI CFA_XSP16 add(XSP16, 14)
        LJMP      ?Subroutine1 & 0xFFFF
          CFI EndBlock cfiBlock13
// 1414 
// 1415 /*********************************************************************
// 1416  * @fn      ZDApp_RegisterCBs()
// 1417  *
// 1418  * @brief   Process response messages
// 1419  *
// 1420  * @param   none
// 1421  *
// 1422  * @return  none
// 1423  */

        RSEG BANKED_CODE:HUGECODE:NOROOT(0)
// 1424 void ZDApp_RegisterCBs( void )
ZDApp_RegisterCBs:
          CFI Block cfiBlock14 Using cfiCommon0
          CFI Function ZDApp_RegisterCBs
        CODE
// 1425 {
        FUNCALL ZDApp_RegisterCBs, ZDO_RegisterForZDOMsg
        LOCFRAME ISTACK, 2, STACK
        LOCFRAME PSTACK, 0, STACK
        LOCFRAME XSTACK, 0, STACK
        LOCFRAME IOVERLAY, 0, STATIC
        LOCFRAME DOVERLAY, 0, STATIC
        ARGFRAME ISTACK, 2, STACK
        ARGFRAME PSTACK, 0, STACK
        ARGFRAME XSTACK, 0, STACK
        ARGFRAME IOVERLAY, 0, STATIC
        ARGFRAME DOVERLAY, 0, STATIC
        FUNCALL ZDApp_RegisterCBs, ZDO_RegisterForZDOMsg
        LOCFRAME ISTACK, 2, STACK
        LOCFRAME PSTACK, 0, STACK
        LOCFRAME XSTACK, 0, STACK
        LOCFRAME IOVERLAY, 0, STATIC
        LOCFRAME DOVERLAY, 0, STATIC
        ARGFRAME ISTACK, 2, STACK
        ARGFRAME PSTACK, 0, STACK
        ARGFRAME XSTACK, 0, STACK
        ARGFRAME IOVERLAY, 0, STATIC
        ARGFRAME DOVERLAY, 0, STATIC
        FUNCALL ZDApp_RegisterCBs, ZDO_RegisterForZDOMsg
        LOCFRAME ISTACK, 2, STACK
        LOCFRAME PSTACK, 0, STACK
        LOCFRAME XSTACK, 0, STACK
        LOCFRAME IOVERLAY, 0, STATIC
        LOCFRAME DOVERLAY, 0, STATIC
        ARGFRAME ISTACK, 2, STACK
        ARGFRAME PSTACK, 0, STACK
        ARGFRAME XSTACK, 0, STACK
        ARGFRAME IOVERLAY, 0, STATIC
        ARGFRAME DOVERLAY, 0, STATIC
        FUNCALL ZDApp_RegisterCBs, ZDO_RegisterForZDOMsg
        LOCFRAME ISTACK, 2, STACK
        LOCFRAME PSTACK, 0, STACK
        LOCFRAME XSTACK, 0, STACK
        LOCFRAME IOVERLAY, 0, STATIC
        LOCFRAME DOVERLAY, 0, STATIC
        ARGFRAME ISTACK, 2, STACK
        ARGFRAME PSTACK, 0, STACK
        ARGFRAME XSTACK, 0, STACK
        ARGFRAME IOVERLAY, 0, STATIC
        ARGFRAME DOVERLAY, 0, STATIC
        PUSH      DPL
          CFI DPL0 Frame(CFA_SP, 4)
          CFI CFA_SP SP+-4
        PUSH      DPH
          CFI DPH0 Frame(CFA_SP, 5)
          CFI CFA_SP SP+-5
        ; Saved register size: 2
        ; Auto size: 0
// 1426 #if defined ( ZDO_IEEEADDR_REQUEST ) || defined ( REFLECTOR )
// 1427   ZDO_RegisterForZDOMsg( ZDAppTaskID, IEEE_addr_rsp );
        ; Setup parameters for call to function ZDO_RegisterForZDOMsg
        MOV       R2,#0x1
        LCALL     ?Subroutine27 & 0xFFFF
// 1428 #endif
// 1429 #if defined ( ZDO_NWKADDR_REQUEST ) || defined ( REFLECTOR )
// 1430   ZDO_RegisterForZDOMsg( ZDAppTaskID, NWK_addr_rsp );
??CrossCallReturnLabel_65:
        ; Setup parameters for call to function ZDO_RegisterForZDOMsg
        MOV       R2,#0x0
        LCALL     ?Subroutine27 & 0xFFFF
// 1431 #endif
// 1432 #if ZG_BUILD_COORDINATOR_TYPE
// 1433   ZDO_RegisterForZDOMsg( ZDAppTaskID, Bind_rsp );
// 1434   ZDO_RegisterForZDOMsg( ZDAppTaskID, Unbind_rsp );
// 1435   ZDO_RegisterForZDOMsg( ZDAppTaskID, End_Device_Bind_req );
// 1436 #endif
// 1437 #if defined ( REFLECTOR )
// 1438   ZDO_RegisterForZDOMsg( ZDAppTaskID, Bind_req );
??CrossCallReturnLabel_66:
        ; Setup parameters for call to function ZDO_RegisterForZDOMsg
        MOV       R2,#0x21
        MOV       R3,#0x0
        LCALL     ??Subroutine50_0 & 0xFFFF
// 1439   ZDO_RegisterForZDOMsg( ZDAppTaskID, Unbind_req );
??CrossCallReturnLabel_67:
        ; Setup parameters for call to function ZDO_RegisterForZDOMsg
        MOV       R2,#0x22
        MOV       R3,#0x0
        LCALL     ??Subroutine50_0 & 0xFFFF
// 1440 #endif
// 1441 }
??CrossCallReturnLabel_68:
        LJMP      ??Subroutine56_0 & 0xFFFF
          CFI EndBlock cfiBlock14

        RSEG BANKED_CODE:HUGECODE:NOROOT(0)
?Subroutine27:
          CFI Block cfiCond15 Using cfiCommon0
          CFI Function ZDApp_RegisterCBs
          CFI Conditional ??CrossCallReturnLabel_65
          CFI DPL0 Frame(CFA_SP, 4)
          CFI DPH0 Frame(CFA_SP, 5)
          CFI CFA_SP SP+-7
          CFI Block cfiCond16 Using cfiCommon0
          CFI (cfiCond16) Function ZDApp_RegisterCBs
          CFI (cfiCond16) Conditional ??CrossCallReturnLabel_66
          CFI (cfiCond16) DPL0 Frame(CFA_SP, 4)
          CFI (cfiCond16) DPH0 Frame(CFA_SP, 5)
          CFI (cfiCond16) CFA_SP SP+-7
          CFI Block cfiPicker17 Using cfiCommon1
          CFI (cfiPicker17) NoFunction
          CFI (cfiPicker17) Picker
        MOV       R3,#-0x80
          CFI EndBlock cfiCond15
          CFI EndBlock cfiCond16
          CFI EndBlock cfiPicker17
        REQUIRE ??Subroutine50_0
        ; // Fall through to label ??Subroutine50_0

        RSEG BANKED_CODE:HUGECODE:NOROOT(0)
??Subroutine50_0:
          CFI Block cfiCond18 Using cfiCommon0
          CFI Function ZDApp_RegisterCBs
          CFI Conditional ??CrossCallReturnLabel_67
          CFI DPL0 Frame(CFA_SP, 4)
          CFI DPH0 Frame(CFA_SP, 5)
          CFI CFA_SP SP+-7
          CFI Block cfiCond19 Using cfiCommon0
          CFI (cfiCond19) Function ZDApp_RegisterCBs
          CFI (cfiCond19) Conditional ??CrossCallReturnLabel_68
          CFI (cfiCond19) DPL0 Frame(CFA_SP, 4)
          CFI (cfiCond19) DPH0 Frame(CFA_SP, 5)
          CFI (cfiCond19) CFA_SP SP+-7
          CFI Block cfiCond20 Using cfiCommon0
          CFI (cfiCond20) Function ZDApp_RegisterCBs
          CFI (cfiCond20) Conditional ??CrossCallReturnLabel_65
          CFI (cfiCond20) DPL0 Frame(CFA_SP, 4)
          CFI (cfiCond20) DPH0 Frame(CFA_SP, 5)
          CFI (cfiCond20) CFA_SP SP+-7
          CFI Block cfiCond21 Using cfiCommon0
          CFI (cfiCond21) Function ZDApp_RegisterCBs
          CFI (cfiCond21) Conditional ??CrossCallReturnLabel_66
          CFI (cfiCond21) DPL0 Frame(CFA_SP, 4)
          CFI (cfiCond21) DPH0 Frame(CFA_SP, 5)
          CFI (cfiCond21) CFA_SP SP+-7
          CFI Block cfiPicker22 Using cfiCommon1
          CFI (cfiPicker22) NoFunction
          CFI (cfiPicker22) Picker
        MOV       DPTR,#ZDAppTaskID
        MOVX      A,@DPTR
        MOV       R1,A
        LCALL     `??ZDO_RegisterForZDOMsg::?relay`; Banked call to: ZDO_RegisterForZDOMsg
        RET
          CFI EndBlock cfiCond18
          CFI EndBlock cfiCond19
          CFI EndBlock cfiCond20
          CFI EndBlock cfiCond21
          CFI EndBlock cfiPicker22
// 1442 
// 1443 /*********************************************************************
// 1444  * @fn      ZDApp_ProcessSecMsg()
// 1445  *
// 1446  * @brief   Process the incoming security message.
// 1447  *
// 1448  * @param   msgPtr - message to process
// 1449  *
// 1450  * @return  none
// 1451  */

        RSEG BANKED_CODE:HUGECODE:NOROOT(0)
// 1452 void ZDApp_ProcessSecMsg( osal_event_hdr_t *msgPtr )
ZDApp_ProcessSecMsg:
          CFI Block cfiBlock23 Using cfiCommon0
          CFI Function ZDApp_ProcessSecMsg
        CODE
// 1453 {
        FUNCALL ZDApp_ProcessSecMsg, ZDSecMgrTransportKeyInd
        LOCFRAME ISTACK, 2, STACK
        LOCFRAME PSTACK, 0, STACK
        LOCFRAME XSTACK, 0, STACK
        LOCFRAME IOVERLAY, 0, STATIC
        LOCFRAME DOVERLAY, 0, STATIC
        ARGFRAME ISTACK, 2, STACK
        ARGFRAME PSTACK, 0, STACK
        ARGFRAME XSTACK, 0, STACK
        ARGFRAME IOVERLAY, 0, STATIC
        ARGFRAME DOVERLAY, 0, STATIC
        FUNCALL ZDApp_ProcessSecMsg, ZDSecMgrSwitchKeyInd
        LOCFRAME ISTACK, 2, STACK
        LOCFRAME PSTACK, 0, STACK
        LOCFRAME XSTACK, 0, STACK
        LOCFRAME IOVERLAY, 0, STATIC
        LOCFRAME DOVERLAY, 0, STATIC
        ARGFRAME ISTACK, 2, STACK
        ARGFRAME PSTACK, 0, STACK
        ARGFRAME XSTACK, 0, STACK
        ARGFRAME IOVERLAY, 0, STATIC
        ARGFRAME DOVERLAY, 0, STATIC
        PUSH      DPL
          CFI DPL0 Frame(CFA_SP, 4)
          CFI CFA_SP SP+-4
        PUSH      DPH
          CFI DPH0 Frame(CFA_SP, 5)
          CFI CFA_SP SP+-5
        ; Saved register size: 2
        ; Auto size: 0
// 1454   switch ( msgPtr->event )
        MOV       DPL,R2
        MOV       DPH,R3
        MOVX      A,@DPTR
        ADD       A,#-0x4
        JZ        ??ZDApp_ProcessSecMsg_0
        ADD       A,#-0x4
        JZ        ??ZDApp_ProcessSecMsg_1
        SJMP      ??ZDApp_ProcessSecMsg_2
// 1455   {
// 1456     case ZDO_TRANSPORT_KEY_IND:
// 1457       if ( ZG_BUILD_JOINING_TYPE && ZG_DEVICE_JOINING_TYPE )
??ZDApp_ProcessSecMsg_0:
        MOV       DPTR,#zgDeviceLogicalType
        MOVX      A,@DPTR
        XRL       A,#0x1
        JZ        ??ZDApp_ProcessSecMsg_3
        MOVX      A,@DPTR
        XRL       A,#0x2
        JNZ       ??ZDApp_ProcessSecMsg_2
// 1458       {
// 1459         ZDSecMgrTransportKeyInd( (ZDO_TransportKeyInd_t*)msgPtr );
??ZDApp_ProcessSecMsg_3:
        ; Setup parameters for call to function ZDSecMgrTransportKeyInd
        LCALL     `??ZDSecMgrTransportKeyInd::?relay`; Banked call to: ZDSecMgrTransportKeyInd
        SJMP      ??ZDApp_ProcessSecMsg_2
// 1460       }
// 1461       break;
// 1462 
// 1463     case ZDO_UPDATE_DEVICE_IND:
// 1464       if ( ZG_BUILD_COORDINATOR_TYPE && ZG_DEVICE_COORDINATOR_TYPE )
// 1465       {
// 1466         ZDSecMgrUpdateDeviceInd( (ZDO_UpdateDeviceInd_t*)msgPtr );
// 1467       }
// 1468       break;
// 1469 
// 1470     case ZDO_REMOVE_DEVICE_IND:
// 1471       if ( ZG_BUILD_RTRONLY_TYPE && ( zgDeviceLogicalType == ZG_DEVICETYPE_ROUTER ) )
// 1472       {
// 1473         ZDSecMgrRemoveDeviceInd( (ZDO_RemoveDeviceInd_t*)msgPtr );
// 1474       }
// 1475       break;
// 1476 
// 1477     case ZDO_REQUEST_KEY_IND:
// 1478       if ( ( ZG_CHECK_SECURITY_MODE == ZG_SECURITY_SE_STANDARD ) )
// 1479       {
// 1480         if ( ZG_BUILD_COORDINATOR_TYPE && ZG_DEVICE_COORDINATOR_TYPE )
// 1481         {
// 1482           ZDSecMgrRequestKeyInd( (ZDO_RequestKeyInd_t*)msgPtr );
// 1483         }
// 1484       }
// 1485       break;
// 1486 
// 1487     case ZDO_SWITCH_KEY_IND:
// 1488       if ( ZG_BUILD_JOINING_TYPE && ZG_DEVICE_JOINING_TYPE )
??ZDApp_ProcessSecMsg_1:
        MOV       DPTR,#zgDeviceLogicalType
        MOVX      A,@DPTR
        XRL       A,#0x1
        JZ        ??ZDApp_ProcessSecMsg_4
        MOVX      A,@DPTR
        XRL       A,#0x2
        JNZ       ??ZDApp_ProcessSecMsg_2
// 1489       {
// 1490         ZDSecMgrSwitchKeyInd( (ZDO_SwitchKeyInd_t*)msgPtr );
??ZDApp_ProcessSecMsg_4:
        ; Setup parameters for call to function ZDSecMgrSwitchKeyInd
        LCALL     `??ZDSecMgrSwitchKeyInd::?relay`; Banked call to: ZDSecMgrSwitchKeyInd
// 1491       }
// 1492       break;
// 1493 
// 1494     default:
// 1495       // Unsupported messages
// 1496       break;
// 1497   }
// 1498 }
??ZDApp_ProcessSecMsg_2:
        LJMP      ??Subroutine56_0 & 0xFFFF
          CFI EndBlock cfiBlock23
// 1499 
// 1500 /*********************************************************************
// 1501  * @fn      ZDApp_ProcessNetworkJoin()
// 1502  *
// 1503  * @brief
// 1504  *
// 1505  *   Save off the Network key information.
// 1506  *
// 1507  * @param   none
// 1508  *
// 1509  * @return  none
// 1510  */

        RSEG BANKED_CODE:HUGECODE:NOROOT(0)
// 1511 void ZDApp_ProcessNetworkJoin( void )
ZDApp_ProcessNetworkJoin:
          CFI Block cfiBlock24 Using cfiCommon0
          CFI Function ZDApp_ProcessNetworkJoin
        CODE
// 1512 {
        FUNCALL ZDApp_ProcessNetworkJoin, osal_set_event
        LOCFRAME ISTACK, 0, STACK
        LOCFRAME PSTACK, 0, STACK
        LOCFRAME XSTACK, 14, STACK
        LOCFRAME IOVERLAY, 0, STATIC
        LOCFRAME DOVERLAY, 0, STATIC
        ARGFRAME ISTACK, 0, STACK
        ARGFRAME PSTACK, 0, STACK
        ARGFRAME XSTACK, 14, STACK
        ARGFRAME IOVERLAY, 0, STATIC
        ARGFRAME DOVERLAY, 0, STATIC
        FUNCALL ZDApp_ProcessNetworkJoin, ZDApp_RestoreNwkKey
        LOCFRAME ISTACK, 0, STACK
        LOCFRAME PSTACK, 0, STACK
        LOCFRAME XSTACK, 14, STACK
        LOCFRAME IOVERLAY, 0, STATIC
        LOCFRAME DOVERLAY, 0, STATIC
        ARGFRAME ISTACK, 0, STACK
        ARGFRAME PSTACK, 0, STACK
        ARGFRAME XSTACK, 14, STACK
        ARGFRAME IOVERLAY, 0, STATIC
        ARGFRAME DOVERLAY, 0, STATIC
        FUNCALL ZDApp_ProcessNetworkJoin, ZDApp_AnnounceNewAddress
        LOCFRAME ISTACK, 0, STACK
        LOCFRAME PSTACK, 0, STACK
        LOCFRAME XSTACK, 14, STACK
        LOCFRAME IOVERLAY, 0, STATIC
        LOCFRAME DOVERLAY, 0, STATIC
        ARGFRAME ISTACK, 0, STACK
        ARGFRAME PSTACK, 0, STACK
        ARGFRAME XSTACK, 14, STACK
        ARGFRAME IOVERLAY, 0, STATIC
        ARGFRAME DOVERLAY, 0, STATIC
        FUNCALL ZDApp_ProcessNetworkJoin, ZDApp_ChangeState
        LOCFRAME ISTACK, 0, STACK
        LOCFRAME PSTACK, 0, STACK
        LOCFRAME XSTACK, 14, STACK
        LOCFRAME IOVERLAY, 0, STATIC
        LOCFRAME DOVERLAY, 0, STATIC
        ARGFRAME ISTACK, 0, STACK
        ARGFRAME PSTACK, 0, STACK
        ARGFRAME XSTACK, 14, STACK
        ARGFRAME IOVERLAY, 0, STATIC
        ARGFRAME DOVERLAY, 0, STATIC
        FUNCALL ZDApp_ProcessNetworkJoin, NLME_GetShortAddr
        LOCFRAME ISTACK, 0, STACK
        LOCFRAME PSTACK, 0, STACK
        LOCFRAME XSTACK, 14, STACK
        LOCFRAME IOVERLAY, 0, STATIC
        LOCFRAME DOVERLAY, 0, STATIC
        ARGFRAME ISTACK, 0, STACK
        ARGFRAME PSTACK, 0, STACK
        ARGFRAME XSTACK, 14, STACK
        ARGFRAME IOVERLAY, 0, STATIC
        ARGFRAME DOVERLAY, 0, STATIC
        FUNCALL ZDApp_ProcessNetworkJoin, ZMacSetReq
        LOCFRAME ISTACK, 0, STACK
        LOCFRAME PSTACK, 0, STACK
        LOCFRAME XSTACK, 14, STACK
        LOCFRAME IOVERLAY, 0, STATIC
        LOCFRAME DOVERLAY, 0, STATIC
        ARGFRAME ISTACK, 0, STACK
        ARGFRAME PSTACK, 0, STACK
        ARGFRAME XSTACK, 14, STACK
        ARGFRAME IOVERLAY, 0, STATIC
