###############################################################################
#
# IAR C/C++ Compiler V10.30.1.6000 for 8051               31/Oct/2019  14:59:29
# Copyright 2004-2018 IAR Systems AB.
# PC-locked license - IAR Embedded Workbench for 8051
#
#    Core               =  plain
#    Code model         =  banked
#    Data model         =  large
#    Calling convention =  xdata reentrant
#    Constant location  =  data_rom
#    Dptr setup         =  1,16
#                          
#    Source file        =  
#        C:\Users\hhhho\Desktop\Z-Stack1.2.2a-spp-v001-AD\Projects\zstack\Prj\SampleApp\Source\OLED.c
#    Command line       =  
#        -f C:\Users\hhhho\AppData\Local\Temp\EW2A00.tmp
#        (C:\Users\hhhho\Desktop\Z-Stack1.2.2a-spp-v001-AD\Projects\zstack\Prj\SampleApp\Source\OLED.c
#        -D ZTOOL_P1 -D SECURE=1 -D xNV_INIT -D xNV_RESTORE -D
#        LCD_SUPPORTED=FALSE -D MULTICAST_ENABLED=FALSE -D FEATURE_SYSTEM_STATS
#        -lC
#        C:\Users\hhhho\Desktop\Z-Stack1.2.2a-spp-v001-AD\Projects\zstack\Prj\SampleApp\CC2530DB\CoordinatorEB\List
#        -lA
#        C:\Users\hhhho\Desktop\Z-Stack1.2.2a-spp-v001-AD\Projects\zstack\Prj\SampleApp\CC2530DB\CoordinatorEB\List
#        --diag_suppress Pe001,Pa010 -o
#        C:\Users\hhhho\Desktop\Z-Stack1.2.2a-spp-v001-AD\Projects\zstack\Prj\SampleApp\CC2530DB\CoordinatorEB\Obj
#        -e --debug --core=plain --dptr=16,1 --data_model=large
#        --code_model=banked --calling_convention=xdata_reentrant
#        --place_constants=data_rom --nr_virtual_regs 16 -f
#        C:\Users\hhhho\Desktop\Z-Stack1.2.2a-spp-v001-AD\Projects\zstack\Prj\SampleApp\CC2530DB\..\..\..\Tools\CC2530DB\f8wCoord.cfg
#        (-DCPU32MHZ -DROOT=__near_func -DMAC_CFG_APP_PENDING_QUEUE=TRUE
#        -DMAC_CFG_TX_DATA_MAX=5 -DMAC_CFG_TX_MAX=8 -DMAC_CFG_RX_MAX=5
#        -DZDO_COORDINATOR -DRTR_NWK) -f
#        C:\Users\hhhho\Desktop\Z-Stack1.2.2a-spp-v001-AD\Projects\zstack\Prj\SampleApp\CC2530DB\..\..\..\Tools\CC2530DB\f8wConfig.cfg
#        (-DZIGBEEPRO -DSECURE=1 -DZG_SECURE_DYNAMIC=0 -DREFLECTOR
#        -DDEFAULT_CHANLIST=0x00000800 -DZDAPP_CONFIG_PAN_ID=0xFFFF
#        -DNWK_START_DELAY=100 -DEXTENDED_JOINING_RANDOM_MASK=0x007F
#        -DBEACON_REQUEST_DELAY=100 -DBEACON_REQ_DELAY_MASK=0x00FF
#        -DLINK_STATUS_JITTER_MASK=0x007F -DROUTE_EXPIRY_TIME=30
#        -DAPSC_ACK_WAIT_DURATION_POLLED=3000 -DNWK_INDIRECT_MSG_TIMEOUT=7
#        -DMAX_RREQ_ENTRIES=8 -DAPSC_MAX_FRAME_RETRIES=3
#        -DNWK_MAX_DATA_RETRIES=2 -DMAX_POLL_FAILURE_RETRIES=2 -DMAX_BCAST=9
#        -DAPS_MAX_GROUPS=16 -DMAX_RTG_ENTRIES=40 -DNWK_MAX_BINDING_ENTRIES=4
#        -DMAX_BINDING_CLUSTER_IDS=4 "-DDEFAULT_KEY={0x01, 0x03, 0x05, 0x07,
#        0x09, 0x0B, 0x0D, 0x0F, 0x00, 0x02, 0x04, 0x06, 0x08, 0x0A, 0x0C,
#        0x0D}" -DMAC_MAX_FRAME_SIZE=116 -DZDNWKMGR_MIN_TRANSMISSIONS=20
#        "-DCONST=const __code" -DGENERIC=__generic -DRFD_RCVC_ALWAYS_ON=FALSE
#        -DPOLL_RATE=1000 -DQUEUED_POLL_RATE=100 -DRESPONSE_POLL_RATE=100
#        -DREJOIN_POLL_RATE=440 -DREJOIN_BACKOFF=900000 -DREJOIN_SCAN=900000)
#        -f
#        C:\Users\hhhho\Desktop\Z-Stack1.2.2a-spp-v001-AD\Projects\zstack\Prj\SampleApp\CC2530DB\..\..\..\Tools\CC2530DB\f8wZCL.cfg
#        -I
#        C:\Users\hhhho\Desktop\Z-Stack1.2.2a-spp-v001-AD\Projects\zstack\Prj\SampleApp\CC2530DB\
#        -I
#        C:\Users\hhhho\Desktop\Z-Stack1.2.2a-spp-v001-AD\Projects\zstack\Prj\SampleApp\CC2530DB\..\Source\
#        -I
#        C:\Users\hhhho\Desktop\Z-Stack1.2.2a-spp-v001-AD\Projects\zstack\Prj\SampleApp\CC2530DB\..\..\Source\
#        -I
#        C:\Users\hhhho\Desktop\Z-Stack1.2.2a-spp-v001-AD\Projects\zstack\Prj\SampleApp\CC2530DB\..\..\..\ZMain\TI2530DB\
#        -I
#        C:\Users\hhhho\Desktop\Z-Stack1.2.2a-spp-v001-AD\Projects\zstack\Prj\SampleApp\CC2530DB\..\..\..\..\..\Components\hal\include\
#        -I
#        C:\Users\hhhho\Desktop\Z-Stack1.2.2a-spp-v001-AD\Projects\zstack\Prj\SampleApp\CC2530DB\..\..\..\..\..\Components\hal\target\CC2530EB\
#        -I
#        C:\Users\hhhho\Desktop\Z-Stack1.2.2a-spp-v001-AD\Projects\zstack\Prj\SampleApp\CC2530DB\..\..\..\..\..\Components\mac\include\
#        -I
#        C:\Users\hhhho\Desktop\Z-Stack1.2.2a-spp-v001-AD\Projects\zstack\Prj\SampleApp\CC2530DB\..\..\..\..\..\Components\mac\high_level\
#        -I
#        C:\Users\hhhho\Desktop\Z-Stack1.2.2a-spp-v001-AD\Projects\zstack\Prj\SampleApp\CC2530DB\..\..\..\..\..\Components\mac\low_level\srf04\
#        -I
#        C:\Users\hhhho\Desktop\Z-Stack1.2.2a-spp-v001-AD\Projects\zstack\Prj\SampleApp\CC2530DB\..\..\..\..\..\Components\mac\low_level\srf04\single_chip\
#        -I
#        C:\Users\hhhho\Desktop\Z-Stack1.2.2a-spp-v001-AD\Projects\zstack\Prj\SampleApp\CC2530DB\..\..\..\..\..\Components\mt\
#        -I
#        C:\Users\hhhho\Desktop\Z-Stack1.2.2a-spp-v001-AD\Projects\zstack\Prj\SampleApp\CC2530DB\..\..\..\..\..\Components\osal\include\
#        -I
#        C:\Users\hhhho\Desktop\Z-Stack1.2.2a-spp-v001-AD\Projects\zstack\Prj\SampleApp\CC2530DB\..\..\..\..\..\Components\services\saddr\
#        -I
#        C:\Users\hhhho\Desktop\Z-Stack1.2.2a-spp-v001-AD\Projects\zstack\Prj\SampleApp\CC2530DB\..\..\..\..\..\Components\services\sdata\
#        -I
#        C:\Users\hhhho\Desktop\Z-Stack1.2.2a-spp-v001-AD\Projects\zstack\Prj\SampleApp\CC2530DB\..\..\..\..\..\Components\stack\af\
#        -I
#        C:\Users\hhhho\Desktop\Z-Stack1.2.2a-spp-v001-AD\Projects\zstack\Prj\SampleApp\CC2530DB\..\..\..\..\..\Components\stack\nwk\
#        -I
#        C:\Users\hhhho\Desktop\Z-Stack1.2.2a-spp-v001-AD\Projects\zstack\Prj\SampleApp\CC2530DB\..\..\..\..\..\Components\stack\sapi\
#        -I
#        C:\Users\hhhho\Desktop\Z-Stack1.2.2a-spp-v001-AD\Projects\zstack\Prj\SampleApp\CC2530DB\..\..\..\..\..\Components\stack\sec\
#        -I
#        C:\Users\hhhho\Desktop\Z-Stack1.2.2a-spp-v001-AD\Projects\zstack\Prj\SampleApp\CC2530DB\..\..\..\..\..\Components\stack\sys\
#        -I
#        C:\Users\hhhho\Desktop\Z-Stack1.2.2a-spp-v001-AD\Projects\zstack\Prj\SampleApp\CC2530DB\..\..\..\..\..\Components\stack\zcl\
#        -I
#        C:\Users\hhhho\Desktop\Z-Stack1.2.2a-spp-v001-AD\Projects\zstack\Prj\SampleApp\CC2530DB\..\..\..\..\..\Components\stack\zdo\
#        -I
#        C:\Users\hhhho\Desktop\Z-Stack1.2.2a-spp-v001-AD\Projects\zstack\Prj\SampleApp\CC2530DB\..\..\..\..\..\Components\zmac\
#        -I
#        C:\Users\hhhho\Desktop\Z-Stack1.2.2a-spp-v001-AD\Projects\zstack\Prj\SampleApp\CC2530DB\..\..\..\..\..\Components\zmac\f8w\
#        -Ohz --require_prototypes)
#    Locale             =  Chinese (Simplified)_CHN.936
#    List file          =  
#        C:\Users\hhhho\Desktop\Z-Stack1.2.2a-spp-v001-AD\Projects\zstack\Prj\SampleApp\CC2530DB\CoordinatorEB\List\OLED.lst
#    Object file        =  
#        C:\Users\hhhho\Desktop\Z-Stack1.2.2a-spp-v001-AD\Projects\zstack\Prj\SampleApp\CC2530DB\CoordinatorEB\Obj\OLED.r51
#
###############################################################################

C:\Users\hhhho\Desktop\Z-Stack1.2.2a-spp-v001-AD\Projects\zstack\Prj\SampleApp\Source\OLED.c
      1          #include "iic.h"
      2          #include "OLED.h"
      3          
      4          
      5          //常用ASCII表
      6          //偏移量32
      7          //ASCII字符集
      8          //偏移量32
      9          //大小:12*6
     10          /************************************6*8的点阵************************************/

   \                                 In  segment XDATA_ROM_C, align 1
     11          const unsigned char F6x8[][6] =		
   \                     F6x8:
   \   000000   00           DB 0
   \   000001   00           DB 0
   \   000002   00           DB 0
   \   000003   00           DB 0
   \   000004   00           DB 0
   \   000005   00           DB 0
   \   000006   00           DB 0
   \   000007   00           DB 0
   \   000008   00           DB 0
   \   000009   2F           DB 47
   \   00000A   00           DB 0
   \   00000B   00           DB 0
   \   00000C   00           DB 0
   \   00000D   00           DB 0
   \   00000E   07           DB 7
   \   00000F   00           DB 0
   \   000010   07           DB 7
   \   000011   00           DB 0
   \   000012   00           DB 0
   \   000013   14           DB 20
   \   000014   7F           DB 127
   \   000015   14           DB 20
   \   000016   7F           DB 127
   \   000017   14           DB 20
   \   000018   00           DB 0
   \   000019   24           DB 36
   \   00001A   2A           DB 42
   \   00001B   7F           DB 127
   \   00001C   2A           DB 42
   \   00001D   12           DB 18
   \   00001E   00           DB 0
   \   00001F   62           DB 98
   \   000020   64           DB 100
   \   000021   08           DB 8
   \   000022   13           DB 19
   \   000023   23           DB 35
   \   000024   00           DB 0
   \   000025   36           DB 54
   \   000026   49           DB 73
   \   000027   55           DB 85
   \   000028   22           DB 34
   \   000029   50           DB 80
   \   00002A   00           DB 0
   \   00002B   00           DB 0
   \   00002C   05           DB 5
   \   00002D   03           DB 3
   \   00002E   00           DB 0
   \   00002F   00           DB 0
   \   000030   00           DB 0
   \   000031   00           DB 0
   \   000032   1C           DB 28
   \   000033   22           DB 34
   \   000034   41           DB 65
   \   000035   00           DB 0
   \   000036   00           DB 0
   \   000037   00           DB 0
   \   000038   41           DB 65
   \   000039   22           DB 34
   \   00003A   1C           DB 28
   \   00003B   00           DB 0
   \   00003C   00           DB 0
   \   00003D   14           DB 20
   \   00003E   08           DB 8
   \   00003F   3E           DB 62
   \   000040   08           DB 8
   \   000041   14           DB 20
   \   000042   00           DB 0
   \   000043   08           DB 8
   \   000044   08           DB 8
   \   000045   3E           DB 62
   \   000046   08           DB 8
   \   000047   08           DB 8
   \   000048   00           DB 0
   \   000049   00           DB 0
   \   00004A   00           DB 0
   \   00004B   A0           DB 160
   \   00004C   60           DB 96
   \   00004D   00           DB 0
   \   00004E   00           DB 0
   \   00004F   08           DB 8
   \   000050   08           DB 8
   \   000051   08           DB 8
   \   000052   08           DB 8
   \   000053   08           DB 8
   \   000054   00           DB 0
   \   000055   00           DB 0
   \   000056   60           DB 96
   \   000057   60           DB 96
   \   000058   00           DB 0
   \   000059   00           DB 0
   \   00005A   00           DB 0
   \   00005B   20           DB 32
   \   00005C   10           DB 16
   \   00005D   08           DB 8
   \   00005E   04           DB 4
   \   00005F   02           DB 2
   \   000060   00           DB 0
   \   000061   3E           DB 62
   \   000062   51           DB 81
   \   000063   49           DB 73
   \   000064   45           DB 69
   \   000065   3E           DB 62
   \   000066   00           DB 0
   \   000067   00           DB 0
   \   000068   42           DB 66
   \   000069   7F           DB 127
   \   00006A   40           DB 64
   \   00006B   00           DB 0
   \   00006C   00           DB 0
   \   00006D   42           DB 66
   \   00006E   61           DB 97
   \   00006F   51           DB 81
   \   000070   49           DB 73
   \   000071   46           DB 70
   \   000072   00           DB 0
   \   000073   21           DB 33
   \   000074   41           DB 65
   \   000075   45           DB 69
   \   000076   4B           DB 75
   \   000077   31           DB 49
   \   000078   00           DB 0
   \   000079   18           DB 24
   \   00007A   14           DB 20
   \   00007B   12           DB 18
   \   00007C   7F           DB 127
   \   00007D   10           DB 16
   \   00007E   00           DB 0
   \   00007F   27           DB 39
   \   000080   45           DB 69
   \   000081   45           DB 69
   \   000082   45           DB 69
   \   000083   39           DB 57
   \   000084   00           DB 0
   \   000085   3C           DB 60
   \   000086   4A           DB 74
   \   000087   49           DB 73
   \   000088   49           DB 73
   \   000089   30           DB 48
   \   00008A   00           DB 0
   \   00008B   01           DB 1
   \   00008C   71           DB 113
   \   00008D   09           DB 9
   \   00008E   05           DB 5
   \   00008F   03           DB 3
   \   000090   00           DB 0
   \   000091   36           DB 54
   \   000092   49           DB 73
   \   000093   49           DB 73
   \   000094   49           DB 73
   \   000095   36           DB 54
   \   000096   00           DB 0
   \   000097   06           DB 6
   \   000098   49           DB 73
   \   000099   49           DB 73
   \   00009A   29           DB 41
   \   00009B   1E           DB 30
   \   00009C   00           DB 0
   \   00009D   00           DB 0
   \   00009E   36           DB 54
   \   00009F   36           DB 54
   \   0000A0   00           DB 0
   \   0000A1   00           DB 0
   \   0000A2   00           DB 0
   \   0000A3   00           DB 0
   \   0000A4   56           DB 86
   \   0000A5   36           DB 54
   \   0000A6   00           DB 0
   \   0000A7   00           DB 0
   \   0000A8   00           DB 0
   \   0000A9   08           DB 8
   \   0000AA   14           DB 20
   \   0000AB   22           DB 34
   \   0000AC   41           DB 65
   \   0000AD   00           DB 0
   \   0000AE   00           DB 0
   \   0000AF   14           DB 20
   \   0000B0   14           DB 20
   \   0000B1   14           DB 20
   \   0000B2   14           DB 20
   \   0000B3   14           DB 20
   \   0000B4   00           DB 0
   \   0000B5   00           DB 0
   \   0000B6   41           DB 65
   \   0000B7   22           DB 34
   \   0000B8   14           DB 20
   \   0000B9   08           DB 8
   \   0000BA   00           DB 0
   \   0000BB   02           DB 2
   \   0000BC   01           DB 1
   \   0000BD   51           DB 81
   \   0000BE   09           DB 9
   \   0000BF   06           DB 6
   \   0000C0   00           DB 0
   \   0000C1   32           DB 50
   \   0000C2   49           DB 73
   \   0000C3   59           DB 89
   \   0000C4   51           DB 81
   \   0000C5   3E           DB 62
   \   0000C6   00           DB 0
   \   0000C7   7C           DB 124
   \   0000C8   12           DB 18
   \   0000C9   11           DB 17
   \   0000CA   12           DB 18
   \   0000CB   7C           DB 124
   \   0000CC   00           DB 0
   \   0000CD   7F           DB 127
   \   0000CE   49           DB 73
   \   0000CF   49           DB 73
   \   0000D0   49           DB 73
   \   0000D1   36           DB 54
   \   0000D2   00           DB 0
   \   0000D3   3E           DB 62
   \   0000D4   41           DB 65
   \   0000D5   41           DB 65
   \   0000D6   41           DB 65
   \   0000D7   22           DB 34
   \   0000D8   00           DB 0
   \   0000D9   7F           DB 127
   \   0000DA   41           DB 65
   \   0000DB   41           DB 65
   \   0000DC   22           DB 34
   \   0000DD   1C           DB 28
   \   0000DE   00           DB 0
   \   0000DF   7F           DB 127
   \   0000E0   49           DB 73
   \   0000E1   49           DB 73
   \   0000E2   49           DB 73
   \   0000E3   41           DB 65
   \   0000E4   00           DB 0
   \   0000E5   7F           DB 127
   \   0000E6   09           DB 9
   \   0000E7   09           DB 9
   \   0000E8   09           DB 9
   \   0000E9   01           DB 1
   \   0000EA   00           DB 0
   \   0000EB   3E           DB 62
   \   0000EC   41           DB 65
   \   0000ED   49           DB 73
   \   0000EE   49           DB 73
   \   0000EF   7A           DB 122
   \   0000F0   00           DB 0
   \   0000F1   7F           DB 127
   \   0000F2   08           DB 8
   \   0000F3   08           DB 8
   \   0000F4   08           DB 8
   \   0000F5   7F           DB 127
   \   0000F6   00           DB 0
   \   0000F7   00           DB 0
   \   0000F8   41           DB 65
   \   0000F9   7F           DB 127
   \   0000FA   41           DB 65
   \   0000FB   00           DB 0
   \   0000FC   00           DB 0
   \   0000FD   20           DB 32
   \   0000FE   40           DB 64
   \   0000FF   41           DB 65
   \   000100   3F           DB 63
   \   000101   01           DB 1
   \   000102   00           DB 0
   \   000103   7F           DB 127
   \   000104   08           DB 8
   \   000105   14           DB 20
   \   000106   22           DB 34
   \   000107   41           DB 65
   \   000108   00           DB 0
   \   000109   7F           DB 127
   \   00010A   40           DB 64
   \   00010B   40           DB 64
   \   00010C   40           DB 64
   \   00010D   40           DB 64
   \   00010E   00           DB 0
   \   00010F   7F           DB 127
   \   000110   02           DB 2
   \   000111   0C           DB 12
   \   000112   02           DB 2
   \   000113   7F           DB 127
   \   000114   00           DB 0
   \   000115   7F           DB 127
   \   000116   04           DB 4
   \   000117   08           DB 8
   \   000118   10           DB 16
   \   000119   7F           DB 127
   \   00011A   00           DB 0
   \   00011B   3E           DB 62
   \   00011C   41           DB 65
   \   00011D   41           DB 65
   \   00011E   41           DB 65
   \   00011F   3E           DB 62
   \   000120   00           DB 0
   \   000121   7F           DB 127
   \   000122   09           DB 9
   \   000123   09           DB 9
   \   000124   09           DB 9
   \   000125   06           DB 6
   \   000126   00           DB 0
   \   000127   3E           DB 62
   \   000128   41           DB 65
   \   000129   51           DB 81
   \   00012A   21           DB 33
   \   00012B   5E           DB 94
   \   00012C   00           DB 0
   \   00012D   7F           DB 127
   \   00012E   09           DB 9
   \   00012F   19           DB 25
   \   000130   29           DB 41
   \   000131   46           DB 70
   \   000132   00           DB 0
   \   000133   46           DB 70
   \   000134   49           DB 73
   \   000135   49           DB 73
   \   000136   49           DB 73
   \   000137   31           DB 49
   \   000138   00           DB 0
   \   000139   01           DB 1
   \   00013A   01           DB 1
   \   00013B   7F           DB 127
   \   00013C   01           DB 1
   \   00013D   01           DB 1
   \   00013E   00           DB 0
   \   00013F   3F           DB 63
   \   000140   40           DB 64
   \   000141   40           DB 64
   \   000142   40           DB 64
   \   000143   3F           DB 63
   \   000144   00           DB 0
   \   000145   1F           DB 31
   \   000146   20           DB 32
   \   000147   40           DB 64
   \   000148   20           DB 32
   \   000149   1F           DB 31
   \   00014A   00           DB 0
   \   00014B   3F           DB 63
   \   00014C   40           DB 64
   \   00014D   38           DB 56
   \   00014E   40           DB 64
   \   00014F   3F           DB 63
   \   000150   00           DB 0
   \   000151   63           DB 99
   \   000152   14           DB 20
   \   000153   08           DB 8
   \   000154   14           DB 20
   \   000155   63           DB 99
   \   000156   00           DB 0
   \   000157   07           DB 7
   \   000158   08           DB 8
   \   000159   70           DB 112
   \   00015A   08           DB 8
   \   00015B   07           DB 7
   \   00015C   00           DB 0
   \   00015D   61           DB 97
   \   00015E   51           DB 81
   \   00015F   49           DB 73
   \   000160   45           DB 69
   \   000161   43           DB 67
   \   000162   00           DB 0
   \   000163   00           DB 0
   \   000164   7F           DB 127
   \   000165   41           DB 65
   \   000166   41           DB 65
   \   000167   00           DB 0
   \   000168   00           DB 0
   \   000169   55           DB 85
   \   00016A   2A           DB 42
   \   00016B   55           DB 85
   \   00016C   2A           DB 42
   \   00016D   55           DB 85
   \   00016E   00           DB 0
   \   00016F   00           DB 0
   \   000170   41           DB 65
   \   000171   41           DB 65
   \   000172   7F           DB 127
   \   000173   00           DB 0
   \   000174   00           DB 0
   \   000175   04           DB 4
   \   000176   02           DB 2
   \   000177   01           DB 1
   \   000178   02           DB 2
   \   000179   04           DB 4
   \   00017A   00           DB 0
   \   00017B   40           DB 64
   \   00017C   40           DB 64
   \   00017D   40           DB 64
   \   00017E   40           DB 64
   \   00017F   40           DB 64
   \   000180   00           DB 0
   \   000181   00           DB 0
   \   000182   01           DB 1
   \   000183   02           DB 2
   \   000184   04           DB 4
   \   000185   00           DB 0
   \   000186   00           DB 0
   \   000187   20           DB 32
   \   000188   54           DB 84
   \   000189   54           DB 84
   \   00018A   54           DB 84
   \   00018B   78           DB 120
   \   00018C   00           DB 0
   \   00018D   7F           DB 127
   \   00018E   48           DB 72
   \   00018F   44           DB 68
   \   000190   44           DB 68
   \   000191   38           DB 56
   \   000192   00           DB 0
   \   000193   38           DB 56
   \   000194   44           DB 68
   \   000195   44           DB 68
   \   000196   44           DB 68
   \   000197   20           DB 32
   \   000198   00           DB 0
   \   000199   38           DB 56
   \   00019A   44           DB 68
   \   00019B   44           DB 68
   \   00019C   48           DB 72
   \   00019D   7F           DB 127
   \   00019E   00           DB 0
   \   00019F   38           DB 56
   \   0001A0   54           DB 84
   \   0001A1   54           DB 84
   \   0001A2   54           DB 84
   \   0001A3   18           DB 24
   \   0001A4   00           DB 0
   \   0001A5   08           DB 8
   \   0001A6   7E           DB 126
   \   0001A7   09           DB 9
   \   0001A8   01           DB 1
   \   0001A9   02           DB 2
   \   0001AA   00           DB 0
   \   0001AB   18           DB 24
   \   0001AC   A4           DB 164
   \   0001AD   A4           DB 164
   \   0001AE   A4           DB 164
   \   0001AF   7C           DB 124
   \   0001B0   00           DB 0
   \   0001B1   7F           DB 127
   \   0001B2   08           DB 8
   \   0001B3   04           DB 4
   \   0001B4   04           DB 4
   \   0001B5   78           DB 120
   \   0001B6   00           DB 0
   \   0001B7   00           DB 0
   \   0001B8   44           DB 68
   \   0001B9   7D           DB 125
   \   0001BA   40           DB 64
   \   0001BB   00           DB 0
   \   0001BC   00           DB 0
   \   0001BD   40           DB 64
   \   0001BE   80           DB 128
   \   0001BF   84           DB 132
   \   0001C0   7D           DB 125
   \   0001C1   00           DB 0
   \   0001C2   00           DB 0
   \   0001C3   7F           DB 127
   \   0001C4   10           DB 16
   \   0001C5   28           DB 40
   \   0001C6   44           DB 68
   \   0001C7   00           DB 0
   \   0001C8   00           DB 0
   \   0001C9   00           DB 0
   \   0001CA   41           DB 65
   \   0001CB   7F           DB 127
   \   0001CC   40           DB 64
   \   0001CD   00           DB 0
   \   0001CE   00           DB 0
   \   0001CF   7C           DB 124
   \   0001D0   04           DB 4
   \   0001D1   18           DB 24
   \   0001D2   04           DB 4
   \   0001D3   78           DB 120
   \   0001D4   00           DB 0
   \   0001D5   7C           DB 124
   \   0001D6   08           DB 8
   \   0001D7   04           DB 4
   \   0001D8   04           DB 4
   \   0001D9   78           DB 120
   \   0001DA   00           DB 0
   \   0001DB   38           DB 56
   \   0001DC   44           DB 68
   \   0001DD   44           DB 68
   \   0001DE   44           DB 68
   \   0001DF   38           DB 56
   \   0001E0   00           DB 0
   \   0001E1   FC           DB 252
   \   0001E2   24           DB 36
   \   0001E3   24           DB 36
   \   0001E4   24           DB 36
   \   0001E5   18           DB 24
   \   0001E6   00           DB 0
   \   0001E7   18           DB 24
   \   0001E8   24           DB 36
   \   0001E9   24           DB 36
   \   0001EA   18           DB 24
   \   0001EB   FC           DB 252
   \   0001EC   00           DB 0
   \   0001ED   7C           DB 124
   \   0001EE   08           DB 8
   \   0001EF   04           DB 4
   \   0001F0   04           DB 4
   \   0001F1   08           DB 8
   \   0001F2   00           DB 0
   \   0001F3   48           DB 72
   \   0001F4   54           DB 84
   \   0001F5   54           DB 84
   \   0001F6   54           DB 84
   \   0001F7   20           DB 32
   \   0001F8   00           DB 0
   \   0001F9   04           DB 4
   \   0001FA   3F           DB 63
   \   0001FB   44           DB 68
   \   0001FC   40           DB 64
   \   0001FD   20           DB 32
   \   0001FE   00           DB 0
   \   0001FF   3C           DB 60
   \   000200   40           DB 64
   \   000201   40           DB 64
   \   000202   20           DB 32
   \   000203   7C           DB 124
   \   000204   00           DB 0
   \   000205   1C           DB 28
   \   000206   20           DB 32
   \   000207   40           DB 64
   \   000208   20           DB 32
   \   000209   1C           DB 28
   \   00020A   00           DB 0
   \   00020B   3C           DB 60
   \   00020C   40           DB 64
   \   00020D   30           DB 48
   \   00020E   40           DB 64
   \   00020F   3C           DB 60
   \   000210   00           DB 0
   \   000211   44           DB 68
   \   000212   28           DB 40
   \   000213   10           DB 16
   \   000214   28           DB 40
   \   000215   44           DB 68
   \   000216   00           DB 0
   \   000217   1C           DB 28
   \   000218   A0           DB 160
   \   000219   A0           DB 160
   \   00021A   A0           DB 160
   \   00021B   7C           DB 124
   \   00021C   00           DB 0
   \   00021D   44           DB 68
   \   00021E   64           DB 100
   \   00021F   54           DB 84
   \   000220   4C           DB 76
   \   000221   44           DB 68
   \   000222   14           DB 20
   \   000223   14           DB 20
   \   000224   14           DB 20
   \   000225   14           DB 20
   \   000226   14           DB 20
   \   000227   14           DB 20
     12          {
     13          0x00, 0x00, 0x00, 0x00, 0x00, 0x00,// sp
     14          0x00, 0x00, 0x00, 0x2f, 0x00, 0x00,// !
     15          0x00, 0x00, 0x07, 0x00, 0x07, 0x00,// "
     16          0x00, 0x14, 0x7f, 0x14, 0x7f, 0x14,// #
     17          0x00, 0x24, 0x2a, 0x7f, 0x2a, 0x12,// $
     18          0x00, 0x62, 0x64, 0x08, 0x13, 0x23,// %
     19          0x00, 0x36, 0x49, 0x55, 0x22, 0x50,// &
     20          0x00, 0x00, 0x05, 0x03, 0x00, 0x00,// '
     21          0x00, 0x00, 0x1c, 0x22, 0x41, 0x00,// (
     22          0x00, 0x00, 0x41, 0x22, 0x1c, 0x00,// )
     23          0x00, 0x14, 0x08, 0x3E, 0x08, 0x14,// *
     24          0x00, 0x08, 0x08, 0x3E, 0x08, 0x08,// +
     25          0x00, 0x00, 0x00, 0xA0, 0x60, 0x00,// ,
     26          0x00, 0x08, 0x08, 0x08, 0x08, 0x08,// -
     27          0x00, 0x00, 0x60, 0x60, 0x00, 0x00,// .
     28          0x00, 0x20, 0x10, 0x08, 0x04, 0x02,// /
     29          0x00, 0x3E, 0x51, 0x49, 0x45, 0x3E,// 0
     30          0x00, 0x00, 0x42, 0x7F, 0x40, 0x00,// 1
     31          0x00, 0x42, 0x61, 0x51, 0x49, 0x46,// 2
     32          0x00, 0x21, 0x41, 0x45, 0x4B, 0x31,// 3
     33          0x00, 0x18, 0x14, 0x12, 0x7F, 0x10,// 4
     34          0x00, 0x27, 0x45, 0x45, 0x45, 0x39,// 5
     35          0x00, 0x3C, 0x4A, 0x49, 0x49, 0x30,// 6
     36          0x00, 0x01, 0x71, 0x09, 0x05, 0x03,// 7
     37          0x00, 0x36, 0x49, 0x49, 0x49, 0x36,// 8
     38          0x00, 0x06, 0x49, 0x49, 0x29, 0x1E,// 9
     39          0x00, 0x00, 0x36, 0x36, 0x00, 0x00,// :
     40          0x00, 0x00, 0x56, 0x36, 0x00, 0x00,// ;
     41          0x00, 0x08, 0x14, 0x22, 0x41, 0x00,// <
     42          0x00, 0x14, 0x14, 0x14, 0x14, 0x14,// =
     43          0x00, 0x00, 0x41, 0x22, 0x14, 0x08,// >
     44          0x00, 0x02, 0x01, 0x51, 0x09, 0x06,// ?
     45          0x00, 0x32, 0x49, 0x59, 0x51, 0x3E,// @
     46          0x00, 0x7C, 0x12, 0x11, 0x12, 0x7C,// A
     47          0x00, 0x7F, 0x49, 0x49, 0x49, 0x36,// B
     48          0x00, 0x3E, 0x41, 0x41, 0x41, 0x22,// C
     49          0x00, 0x7F, 0x41, 0x41, 0x22, 0x1C,// D
     50          0x00, 0x7F, 0x49, 0x49, 0x49, 0x41,// E
     51          0x00, 0x7F, 0x09, 0x09, 0x09, 0x01,// F
     52          0x00, 0x3E, 0x41, 0x49, 0x49, 0x7A,// G
     53          0x00, 0x7F, 0x08, 0x08, 0x08, 0x7F,// H
     54          0x00, 0x00, 0x41, 0x7F, 0x41, 0x00,// I
     55          0x00, 0x20, 0x40, 0x41, 0x3F, 0x01,// J
     56          0x00, 0x7F, 0x08, 0x14, 0x22, 0x41,// K
     57          0x00, 0x7F, 0x40, 0x40, 0x40, 0x40,// L
     58          0x00, 0x7F, 0x02, 0x0C, 0x02, 0x7F,// M
     59          0x00, 0x7F, 0x04, 0x08, 0x10, 0x7F,// N
     60          0x00, 0x3E, 0x41, 0x41, 0x41, 0x3E,// O
     61          0x00, 0x7F, 0x09, 0x09, 0x09, 0x06,// P
     62          0x00, 0x3E, 0x41, 0x51, 0x21, 0x5E,// Q
     63          0x00, 0x7F, 0x09, 0x19, 0x29, 0x46,// R
     64          0x00, 0x46, 0x49, 0x49, 0x49, 0x31,// S
     65          0x00, 0x01, 0x01, 0x7F, 0x01, 0x01,// T
     66          0x00, 0x3F, 0x40, 0x40, 0x40, 0x3F,// U
     67          0x00, 0x1F, 0x20, 0x40, 0x20, 0x1F,// V
     68          0x00, 0x3F, 0x40, 0x38, 0x40, 0x3F,// W
     69          0x00, 0x63, 0x14, 0x08, 0x14, 0x63,// X
     70          0x00, 0x07, 0x08, 0x70, 0x08, 0x07,// Y
     71          0x00, 0x61, 0x51, 0x49, 0x45, 0x43,// Z
     72          0x00, 0x00, 0x7F, 0x41, 0x41, 0x00,// [
     73          0x00, 0x55, 0x2A, 0x55, 0x2A, 0x55,// 55
     74          0x00, 0x00, 0x41, 0x41, 0x7F, 0x00,// ]
     75          0x00, 0x04, 0x02, 0x01, 0x02, 0x04,// ^
     76          0x00, 0x40, 0x40, 0x40, 0x40, 0x40,// _
     77          0x00, 0x00, 0x01, 0x02, 0x04, 0x00,// '
     78          0x00, 0x20, 0x54, 0x54, 0x54, 0x78,// a
     79          0x00, 0x7F, 0x48, 0x44, 0x44, 0x38,// b
     80          0x00, 0x38, 0x44, 0x44, 0x44, 0x20,// c
     81          0x00, 0x38, 0x44, 0x44, 0x48, 0x7F,// d
     82          0x00, 0x38, 0x54, 0x54, 0x54, 0x18,// e
     83          0x00, 0x08, 0x7E, 0x09, 0x01, 0x02,// f
     84          0x00, 0x18, 0xA4, 0xA4, 0xA4, 0x7C,// g
     85          0x00, 0x7F, 0x08, 0x04, 0x04, 0x78,// h
     86          0x00, 0x00, 0x44, 0x7D, 0x40, 0x00,// i
     87          0x00, 0x40, 0x80, 0x84, 0x7D, 0x00,// j
     88          0x00, 0x7F, 0x10, 0x28, 0x44, 0x00,// k
     89          0x00, 0x00, 0x41, 0x7F, 0x40, 0x00,// l
     90          0x00, 0x7C, 0x04, 0x18, 0x04, 0x78,// m
     91          0x00, 0x7C, 0x08, 0x04, 0x04, 0x78,// n
     92          0x00, 0x38, 0x44, 0x44, 0x44, 0x38,// o
     93          0x00, 0xFC, 0x24, 0x24, 0x24, 0x18,// p
     94          0x00, 0x18, 0x24, 0x24, 0x18, 0xFC,// q
     95          0x00, 0x7C, 0x08, 0x04, 0x04, 0x08,// r
     96          0x00, 0x48, 0x54, 0x54, 0x54, 0x20,// s
     97          0x00, 0x04, 0x3F, 0x44, 0x40, 0x20,// t
     98          0x00, 0x3C, 0x40, 0x40, 0x20, 0x7C,// u
     99          0x00, 0x1C, 0x20, 0x40, 0x20, 0x1C,// v
    100          0x00, 0x3C, 0x40, 0x30, 0x40, 0x3C,// w
    101          0x00, 0x44, 0x28, 0x10, 0x28, 0x44,// x
    102          0x00, 0x1C, 0xA0, 0xA0, 0xA0, 0x7C,// y
    103          0x00, 0x44, 0x64, 0x54, 0x4C, 0x44,// z
    104          0x14, 0x14, 0x14, 0x14, 0x14, 0x14,// horiz lines
    105          };
    106          /****************************************8*16的点阵************************************/

   \                                 In  segment XDATA_ROM_C, align 1
    107          const unsigned char F8X16[]=	  
   \                     F8X16:
   \   000000   00           DB 0
   \   000001   00           DB 0
   \   000002   00           DB 0
   \   000003   00           DB 0
   \   000004   00           DB 0
   \   000005   00           DB 0
   \   000006   00           DB 0
   \   000007   00           DB 0
   \   000008   00           DB 0
   \   000009   00           DB 0
   \   00000A   00           DB 0
   \   00000B   00           DB 0
   \   00000C   00           DB 0
   \   00000D   00           DB 0
   \   00000E   00           DB 0
   \   00000F   00           DB 0
   \   000010   00           DB 0
   \   000011   00           DB 0
   \   000012   00           DB 0
   \   000013   F8           DB 248
   \   000014   00           DB 0
   \   000015   00           DB 0
   \   000016   00           DB 0
   \   000017   00           DB 0
   \   000018   00           DB 0
   \   000019   00           DB 0
   \   00001A   00           DB 0
   \   00001B   33           DB 51
   \   00001C   30           DB 48
   \   00001D   00           DB 0
   \   00001E   00           DB 0
   \   00001F   00           DB 0
   \   000020   00           DB 0
   \   000021   10           DB 16
   \   000022   0C           DB 12
   \   000023   06           DB 6
   \   000024   10           DB 16
   \   000025   0C           DB 12
   \   000026   06           DB 6
   \   000027   00           DB 0
   \   000028   00           DB 0
   \   000029   00           DB 0
   \   00002A   00           DB 0
   \   00002B   00           DB 0
   \   00002C   00           DB 0
   \   00002D   00           DB 0
   \   00002E   00           DB 0
   \   00002F   00           DB 0
   \   000030   40           DB 64
   \   000031   C0           DB 192
   \   000032   78           DB 120
   \   000033   40           DB 64
   \   000034   C0           DB 192
   \   000035   78           DB 120
   \   000036   40           DB 64
   \   000037   00           DB 0
   \   000038   04           DB 4
   \   000039   3F           DB 63
   \   00003A   04           DB 4
   \   00003B   04           DB 4
   \   00003C   3F           DB 63
   \   00003D   04           DB 4
   \   00003E   04           DB 4
   \   00003F   00           DB 0
   \   000040   00           DB 0
   \   000041   70           DB 112
   \   000042   88           DB 136
   \   000043   FC           DB 252
   \   000044   08           DB 8
   \   000045   30           DB 48
   \   000046   00           DB 0
   \   000047   00           DB 0
   \   000048   00           DB 0
   \   000049   18           DB 24
   \   00004A   20           DB 32
   \   00004B   FF           DB 255
   \   00004C   21           DB 33
   \   00004D   1E           DB 30
   \   00004E   00           DB 0
   \   00004F   00           DB 0
   \   000050   F0           DB 240
   \   000051   08           DB 8
   \   000052   F0           DB 240
   \   000053   00           DB 0
   \   000054   E0           DB 224
   \   000055   18           DB 24
   \   000056   00           DB 0
   \   000057   00           DB 0
   \   000058   00           DB 0
   \   000059   21           DB 33
   \   00005A   1C           DB 28
   \   00005B   03           DB 3
   \   00005C   1E           DB 30
   \   00005D   21           DB 33
   \   00005E   1E           DB 30
   \   00005F   00           DB 0
   \   000060   00           DB 0
   \   000061   F0           DB 240
   \   000062   08           DB 8
   \   000063   88           DB 136
   \   000064   70           DB 112
   \   000065   00           DB 0
   \   000066   00           DB 0
   \   000067   00           DB 0
   \   000068   1E           DB 30
   \   000069   21           DB 33
   \   00006A   23           DB 35
   \   00006B   24           DB 36
   \   00006C   19           DB 25
   \   00006D   27           DB 39
   \   00006E   21           DB 33
   \   00006F   10           DB 16
   \   000070   10           DB 16
   \   000071   16           DB 22
   \   000072   0E           DB 14
   \   000073   00           DB 0
   \   000074   00           DB 0
   \   000075   00           DB 0
   \   000076   00           DB 0
   \   000077   00           DB 0
   \   000078   00           DB 0
   \   000079   00           DB 0
   \   00007A   00           DB 0
   \   00007B   00           DB 0
   \   00007C   00           DB 0
   \   00007D   00           DB 0
   \   00007E   00           DB 0
   \   00007F   00           DB 0
   \   000080   00           DB 0
   \   000081   00           DB 0
   \   000082   00           DB 0
   \   000083   E0           DB 224
   \   000084   18           DB 24
   \   000085   04           DB 4
   \   000086   02           DB 2
   \   000087   00           DB 0
   \   000088   00           DB 0
   \   000089   00           DB 0
   \   00008A   00           DB 0
   \   00008B   07           DB 7
   \   00008C   18           DB 24
   \   00008D   20           DB 32
   \   00008E   40           DB 64
   \   00008F   00           DB 0
   \   000090   00           DB 0
   \   000091   02           DB 2
   \   000092   04           DB 4
   \   000093   18           DB 24
   \   000094   E0           DB 224
   \   000095   00           DB 0
   \   000096   00           DB 0
   \   000097   00           DB 0
   \   000098   00           DB 0
   \   000099   40           DB 64
   \   00009A   20           DB 32
   \   00009B   18           DB 24
   \   00009C   07           DB 7
   \   00009D   00           DB 0
   \   00009E   00           DB 0
   \   00009F   00           DB 0
   \   0000A0   40           DB 64
   \   0000A1   40           DB 64
   \   0000A2   80           DB 128
   \   0000A3   F0           DB 240
   \   0000A4   80           DB 128
   \   0000A5   40           DB 64
   \   0000A6   40           DB 64
   \   0000A7   00           DB 0
   \   0000A8   02           DB 2
   \   0000A9   02           DB 2
   \   0000AA   01           DB 1
   \   0000AB   0F           DB 15
   \   0000AC   01           DB 1
   \   0000AD   02           DB 2
   \   0000AE   02           DB 2
   \   0000AF   00           DB 0
   \   0000B0   00           DB 0
   \   0000B1   00           DB 0
   \   0000B2   00           DB 0
   \   0000B3   F0           DB 240
   \   0000B4   00           DB 0
   \   0000B5   00           DB 0
   \   0000B6   00           DB 0
   \   0000B7   00           DB 0
   \   0000B8   01           DB 1
   \   0000B9   01           DB 1
   \   0000BA   01           DB 1
   \   0000BB   1F           DB 31
   \   0000BC   01           DB 1
   \   0000BD   01           DB 1
   \   0000BE   01           DB 1
   \   0000BF   00           DB 0
   \   0000C0   00           DB 0
   \   0000C1   00           DB 0
   \   0000C2   00           DB 0
   \   0000C3   00           DB 0
   \   0000C4   00           DB 0
   \   0000C5   00           DB 0
   \   0000C6   00           DB 0
   \   0000C7   00           DB 0
   \   0000C8   80           DB 128
   \   0000C9   B0           DB 176
   \   0000CA   70           DB 112
   \   0000CB   00           DB 0
   \   0000CC   00           DB 0
   \   0000CD   00           DB 0
   \   0000CE   00           DB 0
   \   0000CF   00           DB 0
   \   0000D0   00           DB 0
   \   0000D1   00           DB 0
   \   0000D2   00           DB 0
   \   0000D3   00           DB 0
   \   0000D4   00           DB 0
   \   0000D5   00           DB 0
   \   0000D6   00           DB 0
   \   0000D7   00           DB 0
   \   0000D8   00           DB 0
   \   0000D9   01           DB 1
   \   0000DA   01           DB 1
   \   0000DB   01           DB 1
   \   0000DC   01           DB 1
   \   0000DD   01           DB 1
   \   0000DE   01           DB 1
   \   0000DF   01           DB 1
   \   0000E0   00           DB 0
   \   0000E1   00           DB 0
   \   0000E2   00           DB 0
   \   0000E3   00           DB 0
   \   0000E4   00           DB 0
   \   0000E5   00           DB 0
   \   0000E6   00           DB 0
   \   0000E7   00           DB 0
   \   0000E8   00           DB 0
   \   0000E9   30           DB 48
   \   0000EA   30           DB 48
   \   0000EB   00           DB 0
   \   0000EC   00           DB 0
   \   0000ED   00           DB 0
   \   0000EE   00           DB 0
   \   0000EF   00           DB 0
   \   0000F0   00           DB 0
   \   0000F1   00           DB 0
   \   0000F2   00           DB 0
   \   0000F3   00           DB 0
   \   0000F4   80           DB 128
   \   0000F5   60           DB 96
   \   0000F6   18           DB 24
   \   0000F7   04           DB 4
   \   0000F8   00           DB 0
   \   0000F9   60           DB 96
   \   0000FA   18           DB 24
   \   0000FB   06           DB 6
   \   0000FC   01           DB 1
   \   0000FD   00           DB 0
   \   0000FE   00           DB 0
   \   0000FF   00           DB 0
   \   000100   00           DB 0
   \   000101   E0           DB 224
   \   000102   10           DB 16
   \   000103   08           DB 8
   \   000104   08           DB 8
   \   000105   10           DB 16
   \   000106   E0           DB 224
   \   000107   00           DB 0
   \   000108   00           DB 0
   \   000109   0F           DB 15
   \   00010A   10           DB 16
   \   00010B   20           DB 32
   \   00010C   20           DB 32
   \   00010D   10           DB 16
   \   00010E   0F           DB 15
   \   00010F   00           DB 0
   \   000110   00           DB 0
   \   000111   10           DB 16
   \   000112   10           DB 16
   \   000113   F8           DB 248
   \   000114   00           DB 0
   \   000115   00           DB 0
   \   000116   00           DB 0
   \   000117   00           DB 0
   \   000118   00           DB 0
   \   000119   20           DB 32
   \   00011A   20           DB 32
   \   00011B   3F           DB 63
   \   00011C   20           DB 32
   \   00011D   20           DB 32
   \   00011E   00           DB 0
   \   00011F   00           DB 0
   \   000120   00           DB 0
   \   000121   70           DB 112
   \   000122   08           DB 8
   \   000123   08           DB 8
   \   000124   08           DB 8
   \   000125   88           DB 136
   \   000126   70           DB 112
   \   000127   00           DB 0
   \   000128   00           DB 0
   \   000129   30           DB 48
   \   00012A   28           DB 40
   \   00012B   24           DB 36
   \   00012C   22           DB 34
   \   00012D   21           DB 33
   \   00012E   30           DB 48
   \   00012F   00           DB 0
   \   000130   00           DB 0
   \   000131   30           DB 48
   \   000132   08           DB 8
   \   000133   88           DB 136
   \   000134   88           DB 136
   \   000135   48           DB 72
   \   000136   30           DB 48
   \   000137   00           DB 0
   \   000138   00           DB 0
   \   000139   18           DB 24
   \   00013A   20           DB 32
   \   00013B   20           DB 32
   \   00013C   20           DB 32
   \   00013D   11           DB 17
   \   00013E   0E           DB 14
   \   00013F   00           DB 0
   \   000140   00           DB 0
   \   000141   00           DB 0
   \   000142   C0           DB 192
   \   000143   20           DB 32
   \   000144   10           DB 16
   \   000145   F8           DB 248
   \   000146   00           DB 0
   \   000147   00           DB 0
   \   000148   00           DB 0
   \   000149   07           DB 7
   \   00014A   04           DB 4
   \   00014B   24           DB 36
   \   00014C   24           DB 36
   \   00014D   3F           DB 63
   \   00014E   24           DB 36
   \   00014F   00           DB 0
   \   000150   00           DB 0
   \   000151   F8           DB 248
   \   000152   08           DB 8
   \   000153   88           DB 136
   \   000154   88           DB 136
   \   000155   08           DB 8
   \   000156   08           DB 8
   \   000157   00           DB 0
   \   000158   00           DB 0
   \   000159   19           DB 25
   \   00015A   21           DB 33
   \   00015B   20           DB 32
   \   00015C   20           DB 32
   \   00015D   11           DB 17
   \   00015E   0E           DB 14
   \   00015F   00           DB 0
   \   000160   00           DB 0
   \   000161   E0           DB 224
   \   000162   10           DB 16
   \   000163   88           DB 136
   \   000164   88           DB 136
   \   000165   18           DB 24
   \   000166   00           DB 0
   \   000167   00           DB 0
   \   000168   00           DB 0
   \   000169   0F           DB 15
   \   00016A   11           DB 17
   \   00016B   20           DB 32
   \   00016C   20           DB 32
   \   00016D   11           DB 17
   \   00016E   0E           DB 14
   \   00016F   00           DB 0
   \   000170   00           DB 0
   \   000171   38           DB 56
   \   000172   08           DB 8
   \   000173   08           DB 8
   \   000174   C8           DB 200
   \   000175   38           DB 56
   \   000176   08           DB 8
   \   000177   00           DB 0
   \   000178   00           DB 0
   \   000179   00           DB 0
   \   00017A   00           DB 0
   \   00017B   3F           DB 63
   \   00017C   00           DB 0
   \   00017D   00           DB 0
   \   00017E   00           DB 0
   \   00017F   00           DB 0
   \   000180   00           DB 0
   \   000181   70           DB 112
   \   000182   88           DB 136
   \   000183   08           DB 8
   \   000184   08           DB 8
   \   000185   88           DB 136
   \   000186   70           DB 112
   \   000187   00           DB 0
   \   000188   00           DB 0
   \   000189   1C           DB 28
   \   00018A   22           DB 34
   \   00018B   21           DB 33
   \   00018C   21           DB 33
   \   00018D   22           DB 34
   \   00018E   1C           DB 28
   \   00018F   00           DB 0
   \   000190   00           DB 0
   \   000191   E0           DB 224
   \   000192   10           DB 16
   \   000193   08           DB 8
   \   000194   08           DB 8
   \   000195   10           DB 16
   \   000196   E0           DB 224
   \   000197   00           DB 0
   \   000198   00           DB 0
   \   000199   00           DB 0
   \   00019A   31           DB 49
   \   00019B   22           DB 34
   \   00019C   22           DB 34
   \   00019D   11           DB 17
   \   00019E   0F           DB 15
   \   00019F   00           DB 0
   \   0001A0   00           DB 0
   \   0001A1   00           DB 0
   \   0001A2   00           DB 0
   \   0001A3   C0           DB 192
   \   0001A4   C0           DB 192
   \   0001A5   00           DB 0
   \   0001A6   00           DB 0
   \   0001A7   00           DB 0
   \   0001A8   00           DB 0
   \   0001A9   00           DB 0
   \   0001AA   00           DB 0
   \   0001AB   30           DB 48
   \   0001AC   30           DB 48
   \   0001AD   00           DB 0
   \   0001AE   00           DB 0
   \   0001AF   00           DB 0
   \   0001B0   00           DB 0
   \   0001B1   00           DB 0
   \   0001B2   00           DB 0
   \   0001B3   80           DB 128
   \   0001B4   00           DB 0
   \   0001B5   00           DB 0
   \   0001B6   00           DB 0
   \   0001B7   00           DB 0
   \   0001B8   00           DB 0
   \   0001B9   00           DB 0
   \   0001BA   80           DB 128
   \   0001BB   60           DB 96
   \   0001BC   00           DB 0
   \   0001BD   00           DB 0
   \   0001BE   00           DB 0
   \   0001BF   00           DB 0
   \   0001C0   00           DB 0
   \   0001C1   00           DB 0
   \   0001C2   80           DB 128
   \   0001C3   40           DB 64
   \   0001C4   20           DB 32
   \   0001C5   10           DB 16
   \   0001C6   08           DB 8
   \   0001C7   00           DB 0
   \   0001C8   00           DB 0
   \   0001C9   01           DB 1
   \   0001CA   02           DB 2
   \   0001CB   04           DB 4
   \   0001CC   08           DB 8
   \   0001CD   10           DB 16
   \   0001CE   20           DB 32
   \   0001CF   00           DB 0
   \   0001D0   40           DB 64
   \   0001D1   40           DB 64
   \   0001D2   40           DB 64
   \   0001D3   40           DB 64
   \   0001D4   40           DB 64
   \   0001D5   40           DB 64
   \   0001D6   40           DB 64
   \   0001D7   00           DB 0
   \   0001D8   04           DB 4
   \   0001D9   04           DB 4
   \   0001DA   04           DB 4
   \   0001DB   04           DB 4
   \   0001DC   04           DB 4
   \   0001DD   04           DB 4
   \   0001DE   04           DB 4
   \   0001DF   00           DB 0
   \   0001E0   00           DB 0
   \   0001E1   08           DB 8
   \   0001E2   10           DB 16
   \   0001E3   20           DB 32
   \   0001E4   40           DB 64
   \   0001E5   80           DB 128
   \   0001E6   00           DB 0
   \   0001E7   00           DB 0
   \   0001E8   00           DB 0
   \   0001E9   20           DB 32
   \   0001EA   10           DB 16
   \   0001EB   08           DB 8
   \   0001EC   04           DB 4
   \   0001ED   02           DB 2
   \   0001EE   01           DB 1
   \   0001EF   00           DB 0
   \   0001F0   00           DB 0
   \   0001F1   70           DB 112
   \   0001F2   48           DB 72
   \   0001F3   08           DB 8
   \   0001F4   08           DB 8
   \   0001F5   08           DB 8
   \   0001F6   F0           DB 240
   \   0001F7   00           DB 0
   \   0001F8   00           DB 0
   \   0001F9   00           DB 0
   \   0001FA   00           DB 0
   \   0001FB   30           DB 48
   \   0001FC   36           DB 54
   \   0001FD   01           DB 1
   \   0001FE   00           DB 0
   \   0001FF   00           DB 0
   \   000200   C0           DB 192
   \   000201   30           DB 48
   \   000202   C8           DB 200
   \   000203   28           DB 40
   \   000204   E8           DB 232
   \   000205   10           DB 16
   \   000206   E0           DB 224
   \   000207   00           DB 0
   \   000208   07           DB 7
   \   000209   18           DB 24
   \   00020A   27           DB 39
   \   00020B   24           DB 36
   \   00020C   23           DB 35
   \   00020D   14           DB 20
   \   00020E   0B           DB 11
   \   00020F   00           DB 0
   \   000210   00           DB 0
   \   000211   00           DB 0
   \   000212   C0           DB 192
   \   000213   38           DB 56
   \   000214   E0           DB 224
   \   000215   00           DB 0
   \   000216   00           DB 0
   \   000217   00           DB 0
   \   000218   20           DB 32
   \   000219   3C           DB 60
   \   00021A   23           DB 35
   \   00021B   02           DB 2
   \   00021C   02           DB 2
   \   00021D   27           DB 39
   \   00021E   38           DB 56
   \   00021F   20           DB 32
   \   000220   08           DB 8
   \   000221   F8           DB 248
   \   000222   88           DB 136
   \   000223   88           DB 136
   \   000224   88           DB 136
   \   000225   70           DB 112
   \   000226   00           DB 0
   \   000227   00           DB 0
   \   000228   20           DB 32
   \   000229   3F           DB 63
   \   00022A   20           DB 32
   \   00022B   20           DB 32
   \   00022C   20           DB 32
   \   00022D   11           DB 17
   \   00022E   0E           DB 14
   \   00022F   00           DB 0
   \   000230   C0           DB 192
   \   000231   30           DB 48
   \   000232   08           DB 8
   \   000233   08           DB 8
   \   000234   08           DB 8
   \   000235   08           DB 8
   \   000236   38           DB 56
   \   000237   00           DB 0
   \   000238   07           DB 7
   \   000239   18           DB 24
   \   00023A   20           DB 32
   \   00023B   20           DB 32
   \   00023C   20           DB 32
   \   00023D   10           DB 16
   \   00023E   08           DB 8
   \   00023F   00           DB 0
   \   000240   08           DB 8
   \   000241   F8           DB 248
   \   000242   08           DB 8
   \   000243   08           DB 8
   \   000244   08           DB 8
   \   000245   10           DB 16
   \   000246   E0           DB 224
   \   000247   00           DB 0
   \   000248   20           DB 32
   \   000249   3F           DB 63
   \   00024A   20           DB 32
   \   00024B   20           DB 32
   \   00024C   20           DB 32
   \   00024D   10           DB 16
   \   00024E   0F           DB 15
   \   00024F   00           DB 0
   \   000250   08           DB 8
   \   000251   F8           DB 248
   \   000252   88           DB 136
   \   000253   88           DB 136
   \   000254   E8           DB 232
   \   000255   08           DB 8
   \   000256   10           DB 16
   \   000257   00           DB 0
   \   000258   20           DB 32
   \   000259   3F           DB 63
   \   00025A   20           DB 32
   \   00025B   20           DB 32
   \   00025C   23           DB 35
   \   00025D   20           DB 32
   \   00025E   18           DB 24
   \   00025F   00           DB 0
   \   000260   08           DB 8
   \   000261   F8           DB 248
   \   000262   88           DB 136
   \   000263   88           DB 136
   \   000264   E8           DB 232
   \   000265   08           DB 8
   \   000266   10           DB 16
   \   000267   00           DB 0
   \   000268   20           DB 32
   \   000269   3F           DB 63
   \   00026A   20           DB 32
   \   00026B   00           DB 0
   \   00026C   03           DB 3
   \   00026D   00           DB 0
   \   00026E   00           DB 0
   \   00026F   00           DB 0
   \   000270   C0           DB 192
   \   000271   30           DB 48
   \   000272   08           DB 8
   \   000273   08           DB 8
   \   000274   08           DB 8
   \   000275   38           DB 56
   \   000276   00           DB 0
   \   000277   00           DB 0
   \   000278   07           DB 7
   \   000279   18           DB 24
   \   00027A   20           DB 32
   \   00027B   20           DB 32
   \   00027C   22           DB 34
   \   00027D   1E           DB 30
   \   00027E   02           DB 2
   \   00027F   00           DB 0
   \   000280   08           DB 8
   \   000281   F8           DB 248
   \   000282   08           DB 8
   \   000283   00           DB 0
   \   000284   00           DB 0
   \   000285   08           DB 8
   \   000286   F8           DB 248
   \   000287   08           DB 8
   \   000288   20           DB 32
   \   000289   3F           DB 63
   \   00028A   21           DB 33
   \   00028B   01           DB 1
   \   00028C   01           DB 1
   \   00028D   21           DB 33
   \   00028E   3F           DB 63
   \   00028F   20           DB 32
   \   000290   00           DB 0
   \   000291   08           DB 8
   \   000292   08           DB 8
   \   000293   F8           DB 248
   \   000294   08           DB 8
   \   000295   08           DB 8
   \   000296   00           DB 0
   \   000297   00           DB 0
   \   000298   00           DB 0
   \   000299   20           DB 32
   \   00029A   20           DB 32
   \   00029B   3F           DB 63
   \   00029C   20           DB 32
   \   00029D   20           DB 32
   \   00029E   00           DB 0
   \   00029F   00           DB 0
   \   0002A0   00           DB 0
   \   0002A1   00           DB 0
   \   0002A2   08           DB 8
   \   0002A3   08           DB 8
   \   0002A4   F8           DB 248
   \   0002A5   08           DB 8
   \   0002A6   08           DB 8
   \   0002A7   00           DB 0
   \   0002A8   C0           DB 192
   \   0002A9   80           DB 128
   \   0002AA   80           DB 128
   \   0002AB   80           DB 128
   \   0002AC   7F           DB 127
   \   0002AD   00           DB 0
   \   0002AE   00           DB 0
   \   0002AF   00           DB 0
   \   0002B0   08           DB 8
   \   0002B1   F8           DB 248
   \   0002B2   88           DB 136
   \   0002B3   C0           DB 192
   \   0002B4   28           DB 40
   \   0002B5   18           DB 24
   \   0002B6   08           DB 8
   \   0002B7   00           DB 0
   \   0002B8   20           DB 32
   \   0002B9   3F           DB 63
   \   0002BA   20           DB 32
   \   0002BB   01           DB 1
   \   0002BC   26           DB 38
   \   0002BD   38           DB 56
   \   0002BE   20           DB 32
   \   0002BF   00           DB 0
   \   0002C0   08           DB 8
   \   0002C1   F8           DB 248
   \   0002C2   08           DB 8
   \   0002C3   00           DB 0
   \   0002C4   00           DB 0
   \   0002C5   00           DB 0
   \   0002C6   00           DB 0
   \   0002C7   00           DB 0
   \   0002C8   20           DB 32
   \   0002C9   3F           DB 63
   \   0002CA   20           DB 32
   \   0002CB   20           DB 32
   \   0002CC   20           DB 32
   \   0002CD   20           DB 32
   \   0002CE   30           DB 48
   \   0002CF   00           DB 0
   \   0002D0   08           DB 8
   \   0002D1   F8           DB 248
   \   0002D2   F8           DB 248
   \   0002D3   00           DB 0
   \   0002D4   F8           DB 248
   \   0002D5   F8           DB 248
   \   0002D6   08           DB 8
   \   0002D7   00           DB 0
   \   0002D8   20           DB 32
   \   0002D9   3F           DB 63
   \   0002DA   00           DB 0
   \   0002DB   3F           DB 63
   \   0002DC   00           DB 0
   \   0002DD   3F           DB 63
   \   0002DE   20           DB 32
   \   0002DF   00           DB 0
   \   0002E0   08           DB 8
   \   0002E1   F8           DB 248
   \   0002E2   30           DB 48
   \   0002E3   C0           DB 192
   \   0002E4   00           DB 0
   \   0002E5   08           DB 8
   \   0002E6   F8           DB 248
   \   0002E7   08           DB 8
   \   0002E8   20           DB 32
   \   0002E9   3F           DB 63
   \   0002EA   20           DB 32
   \   0002EB   00           DB 0
   \   0002EC   07           DB 7
   \   0002ED   18           DB 24
   \   0002EE   3F           DB 63
   \   0002EF   00           DB 0
   \   0002F0   E0           DB 224
   \   0002F1   10           DB 16
   \   0002F2   08           DB 8
   \   0002F3   08           DB 8
   \   0002F4   08           DB 8
   \   0002F5   10           DB 16
   \   0002F6   E0           DB 224
   \   0002F7   00           DB 0
   \   0002F8   0F           DB 15
   \   0002F9   10           DB 16
   \   0002FA   20           DB 32
   \   0002FB   20           DB 32
   \   0002FC   20           DB 32
   \   0002FD   10           DB 16
   \   0002FE   0F           DB 15
   \   0002FF   00           DB 0
   \   000300   08           DB 8
   \   000301   F8           DB 248
   \   000302   08           DB 8
   \   000303   08           DB 8
   \   000304   08           DB 8
   \   000305   08           DB 8
   \   000306   F0           DB 240
   \   000307   00           DB 0
   \   000308   20           DB 32
   \   000309   3F           DB 63
   \   00030A   21           DB 33
   \   00030B   01           DB 1
   \   00030C   01           DB 1
   \   00030D   01           DB 1
   \   00030E   00           DB 0
   \   00030F   00           DB 0
   \   000310   E0           DB 224
   \   000311   10           DB 16
   \   000312   08           DB 8
   \   000313   08           DB 8
   \   000314   08           DB 8
   \   000315   10           DB 16
   \   000316   E0           DB 224
   \   000317   00           DB 0
   \   000318   0F           DB 15
   \   000319   18           DB 24
   \   00031A   24           DB 36
   \   00031B   24           DB 36
   \   00031C   38           DB 56
   \   00031D   50           DB 80
   \   00031E   4F           DB 79
   \   00031F   00           DB 0
   \   000320   08           DB 8
   \   000321   F8           DB 248
   \   000322   88           DB 136
   \   000323   88           DB 136
   \   000324   88           DB 136
   \   000325   88           DB 136
   \   000326   70           DB 112
   \   000327   00           DB 0
   \   000328   20           DB 32
   \   000329   3F           DB 63
   \   00032A   20           DB 32
   \   00032B   00           DB 0
   \   00032C   03           DB 3
   \   00032D   0C           DB 12
   \   00032E   30           DB 48
   \   00032F   20           DB 32
   \   000330   00           DB 0
   \   000331   70           DB 112
   \   000332   88           DB 136
   \   000333   08           DB 8
   \   000334   08           DB 8
   \   000335   08           DB 8
   \   000336   38           DB 56
   \   000337   00           DB 0
   \   000338   00           DB 0
   \   000339   38           DB 56
   \   00033A   20           DB 32
   \   00033B   21           DB 33
   \   00033C   21           DB 33
   \   00033D   22           DB 34
   \   00033E   1C           DB 28
   \   00033F   00           DB 0
   \   000340   18           DB 24
   \   000341   08           DB 8
   \   000342   08           DB 8
   \   000343   F8           DB 248
   \   000344   08           DB 8
   \   000345   08           DB 8
   \   000346   18           DB 24
   \   000347   00           DB 0
   \   000348   00           DB 0
   \   000349   00           DB 0
   \   00034A   20           DB 32
   \   00034B   3F           DB 63
   \   00034C   20           DB 32
   \   00034D   00           DB 0
   \   00034E   00           DB 0
   \   00034F   00           DB 0
   \   000350   08           DB 8
   \   000351   F8           DB 248
   \   000352   08           DB 8
   \   000353   00           DB 0
   \   000354   00           DB 0
   \   000355   08           DB 8
   \   000356   F8           DB 248
   \   000357   08           DB 8
   \   000358   00           DB 0
   \   000359   1F           DB 31
   \   00035A   20           DB 32
   \   00035B   20           DB 32
   \   00035C   20           DB 32
   \   00035D   20           DB 32
   \   00035E   1F           DB 31
   \   00035F   00           DB 0
   \   000360   08           DB 8
   \   000361   78           DB 120
   \   000362   88           DB 136
   \   000363   00           DB 0
   \   000364   00           DB 0
   \   000365   C8           DB 200
   \   000366   38           DB 56
   \   000367   08           DB 8
   \   000368   00           DB 0
   \   000369   00           DB 0
   \   00036A   07           DB 7
   \   00036B   38           DB 56
   \   00036C   0E           DB 14
   \   00036D   01           DB 1
   \   00036E   00           DB 0
   \   00036F   00           DB 0
   \   000370   F8           DB 248
   \   000371   08           DB 8
   \   000372   00           DB 0
   \   000373   F8           DB 248
   \   000374   00           DB 0
   \   000375   08           DB 8
   \   000376   F8           DB 248
   \   000377   00           DB 0
   \   000378   03           DB 3
   \   000379   3C           DB 60
   \   00037A   07           DB 7
   \   00037B   00           DB 0
   \   00037C   07           DB 7
   \   00037D   3C           DB 60
   \   00037E   03           DB 3
   \   00037F   00           DB 0
   \   000380   08           DB 8
   \   000381   18           DB 24
   \   000382   68           DB 104
   \   000383   80           DB 128
   \   000384   80           DB 128
   \   000385   68           DB 104
   \   000386   18           DB 24
   \   000387   08           DB 8
   \   000388   20           DB 32
   \   000389   30           DB 48
   \   00038A   2C           DB 44
   \   00038B   03           DB 3
   \   00038C   03           DB 3
   \   00038D   2C           DB 44
   \   00038E   30           DB 48
   \   00038F   20           DB 32
   \   000390   08           DB 8
   \   000391   38           DB 56
   \   000392   C8           DB 200
   \   000393   00           DB 0
   \   000394   C8           DB 200
   \   000395   38           DB 56
   \   000396   08           DB 8
   \   000397   00           DB 0
   \   000398   00           DB 0
   \   000399   00           DB 0
   \   00039A   20           DB 32
   \   00039B   3F           DB 63
   \   00039C   20           DB 32
   \   00039D   00           DB 0
   \   00039E   00           DB 0
   \   00039F   00           DB 0
   \   0003A0   10           DB 16
   \   0003A1   08           DB 8
   \   0003A2   08           DB 8
   \   0003A3   08           DB 8
   \   0003A4   C8           DB 200
   \   0003A5   38           DB 56
   \   0003A6   08           DB 8
   \   0003A7   00           DB 0
   \   0003A8   20           DB 32
   \   0003A9   38           DB 56
   \   0003AA   26           DB 38
   \   0003AB   21           DB 33
   \   0003AC   20           DB 32
   \   0003AD   20           DB 32
   \   0003AE   18           DB 24
   \   0003AF   00           DB 0
   \   0003B0   00           DB 0
   \   0003B1   00           DB 0
   \   0003B2   00           DB 0
   \   0003B3   FE           DB 254
   \   0003B4   02           DB 2
   \   0003B5   02           DB 2
   \   0003B6   02           DB 2
   \   0003B7   00           DB 0
   \   0003B8   00           DB 0
   \   0003B9   00           DB 0
   \   0003BA   00           DB 0
   \   0003BB   7F           DB 127
   \   0003BC   40           DB 64
   \   0003BD   40           DB 64
   \   0003BE   40           DB 64
   \   0003BF   00           DB 0
   \   0003C0   00           DB 0
   \   0003C1   0C           DB 12
   \   0003C2   30           DB 48
   \   0003C3   C0           DB 192
   \   0003C4   00           DB 0
   \   0003C5   00           DB 0
   \   0003C6   00           DB 0
   \   0003C7   00           DB 0
   \   0003C8   00           DB 0
   \   0003C9   00           DB 0
   \   0003CA   00           DB 0
   \   0003CB   01           DB 1
   \   0003CC   06           DB 6
   \   0003CD   38           DB 56
   \   0003CE   C0           DB 192
   \   0003CF   00           DB 0
   \   0003D0   00           DB 0
   \   0003D1   02           DB 2
   \   0003D2   02           DB 2
   \   0003D3   02           DB 2
   \   0003D4   FE           DB 254
   \   0003D5   00           DB 0
   \   0003D6   00           DB 0
   \   0003D7   00           DB 0
   \   0003D8   00           DB 0
   \   0003D9   40           DB 64
   \   0003DA   40           DB 64
   \   0003DB   40           DB 64
   \   0003DC   7F           DB 127
   \   0003DD   00           DB 0
   \   0003DE   00           DB 0
   \   0003DF   00           DB 0
   \   0003E0   00           DB 0
   \   0003E1   00           DB 0
   \   0003E2   04           DB 4
   \   0003E3   02           DB 2
   \   0003E4   02           DB 2
   \   0003E5   02           DB 2
   \   0003E6   04           DB 4
   \   0003E7   00           DB 0
   \   0003E8   00           DB 0
   \   0003E9   00           DB 0
   \   0003EA   00           DB 0
   \   0003EB   00           DB 0
   \   0003EC   00           DB 0
   \   0003ED   00           DB 0
   \   0003EE   00           DB 0
   \   0003EF   00           DB 0
   \   0003F0   00           DB 0
   \   0003F1   00           DB 0
   \   0003F2   00           DB 0
   \   0003F3   00           DB 0
   \   0003F4   00           DB 0
   \   0003F5   00           DB 0
   \   0003F6   00           DB 0
   \   0003F7   00           DB 0
   \   0003F8   80           DB 128
   \   0003F9   80           DB 128
   \   0003FA   80           DB 128
   \   0003FB   80           DB 128
   \   0003FC   80           DB 128
   \   0003FD   80           DB 128
   \   0003FE   80           DB 128
   \   0003FF   80           DB 128
   \   000400   00           DB 0
   \   000401   02           DB 2
   \   000402   02           DB 2
   \   000403   04           DB 4
   \   000404   00           DB 0
   \   000405   00           DB 0
   \   000406   00           DB 0
   \   000407   00           DB 0
   \   000408   00           DB 0
   \   000409   00           DB 0
   \   00040A   00           DB 0
   \   00040B   00           DB 0
   \   00040C   00           DB 0
   \   00040D   00           DB 0
   \   00040E   00           DB 0
   \   00040F   00           DB 0
   \   000410   00           DB 0
   \   000411   00           DB 0
   \   000412   80           DB 128
   \   000413   80           DB 128
   \   000414   80           DB 128
   \   000415   80           DB 128
   \   000416   00           DB 0
   \   000417   00           DB 0
   \   000418   00           DB 0
   \   000419   19           DB 25
   \   00041A   24           DB 36
   \   00041B   22           DB 34
   \   00041C   22           DB 34
   \   00041D   22           DB 34
   \   00041E   3F           DB 63
   \   00041F   20           DB 32
   \   000420   08           DB 8
   \   000421   F8           DB 248
   \   000422   00           DB 0
   \   000423   80           DB 128
   \   000424   80           DB 128
   \   000425   00           DB 0
   \   000426   00           DB 0
   \   000427   00           DB 0
   \   000428   00           DB 0
   \   000429   3F           DB 63
   \   00042A   11           DB 17
   \   00042B   20           DB 32
   \   00042C   20           DB 32
   \   00042D   11           DB 17
   \   00042E   0E           DB 14
   \   00042F   00           DB 0
   \   000430   00           DB 0
   \   000431   00           DB 0
   \   000432   00           DB 0
   \   000433   80           DB 128
   \   000434   80           DB 128
   \   000435   80           DB 128
   \   000436   00           DB 0
   \   000437   00           DB 0
   \   000438   00           DB 0
   \   000439   0E           DB 14
   \   00043A   11           DB 17
   \   00043B   20           DB 32
   \   00043C   20           DB 32
   \   00043D   20           DB 32
   \   00043E   11           DB 17
   \   00043F   00           DB 0
   \   000440   00           DB 0
   \   000441   00           DB 0
   \   000442   00           DB 0
   \   000443   80           DB 128
   \   000444   80           DB 128
   \   000445   88           DB 136
   \   000446   F8           DB 248
   \   000447   00           DB 0
   \   000448   00           DB 0
   \   000449   0E           DB 14
   \   00044A   11           DB 17
   \   00044B   20           DB 32
   \   00044C   20           DB 32
   \   00044D   10           DB 16
   \   00044E   3F           DB 63
   \   00044F   20           DB 32
   \   000450   00           DB 0
   \   000451   00           DB 0
   \   000452   80           DB 128
   \   000453   80           DB 128
   \   000454   80           DB 128
   \   000455   80           DB 128
   \   000456   00           DB 0
   \   000457   00           DB 0
   \   000458   00           DB 0
   \   000459   1F           DB 31
   \   00045A   22           DB 34
   \   00045B   22           DB 34
   \   00045C   22           DB 34
   \   00045D   22           DB 34
   \   00045E   13           DB 19
   \   00045F   00           DB 0
   \   000460   00           DB 0
   \   000461   80           DB 128
   \   000462   80           DB 128
   \   000463   F0           DB 240
   \   000464   88           DB 136
   \   000465   88           DB 136
   \   000466   88           DB 136
   \   000467   18           DB 24
   \   000468   00           DB 0
   \   000469   20           DB 32
   \   00046A   20           DB 32
   \   00046B   3F           DB 63
   \   00046C   20           DB 32
   \   00046D   20           DB 32
   \   00046E   00           DB 0
   \   00046F   00           DB 0
   \   000470   00           DB 0
   \   000471   00           DB 0
   \   000472   80           DB 128
   \   000473   80           DB 128
   \   000474   80           DB 128
   \   000475   80           DB 128
   \   000476   80           DB 128
   \   000477   00           DB 0
   \   000478   00           DB 0
   \   000479   6B           DB 107
   \   00047A   94           DB 148
   \   00047B   94           DB 148
   \   00047C   94           DB 148
   \   00047D   93           DB 147
   \   00047E   60           DB 96
   \   00047F   00           DB 0
   \   000480   08           DB 8
   \   000481   F8           DB 248
   \   000482   00           DB 0
   \   000483   80           DB 128
   \   000484   80           DB 128
   \   000485   80           DB 128
   \   000486   00           DB 0
   \   000487   00           DB 0
   \   000488   20           DB 32
   \   000489   3F           DB 63
   \   00048A   21           DB 33
   \   00048B   00           DB 0
   \   00048C   00           DB 0
   \   00048D   20           DB 32
   \   00048E   3F           DB 63
   \   00048F   20           DB 32
   \   000490   00           DB 0
   \   000491   80           DB 128
   \   000492   98           DB 152
   \   000493   98           DB 152
   \   000494   00           DB 0
   \   000495   00           DB 0
   \   000496   00           DB 0
   \   000497   00           DB 0
   \   000498   00           DB 0
   \   000499   20           DB 32
   \   00049A   20           DB 32
   \   00049B   3F           DB 63
   \   00049C   20           DB 32
   \   00049D   20           DB 32
   \   00049E   00           DB 0
   \   00049F   00           DB 0
   \   0004A0   00           DB 0
   \   0004A1   00           DB 0
   \   0004A2   00           DB 0
   \   0004A3   80           DB 128
   \   0004A4   98           DB 152
   \   0004A5   98           DB 152
   \   0004A6   00           DB 0
   \   0004A7   00           DB 0
   \   0004A8   00           DB 0
   \   0004A9   C0           DB 192
   \   0004AA   80           DB 128
   \   0004AB   80           DB 128
   \   0004AC   80           DB 128
   \   0004AD   7F           DB 127
   \   0004AE   00           DB 0
   \   0004AF   00           DB 0
   \   0004B0   08           DB 8
   \   0004B1   F8           DB 248
   \   0004B2   00           DB 0
   \   0004B3   00           DB 0
   \   0004B4   80           DB 128
   \   0004B5   80           DB 128
   \   0004B6   80           DB 128
   \   0004B7   00           DB 0
   \   0004B8   20           DB 32
   \   0004B9   3F           DB 63
   \   0004BA   24           DB 36
   \   0004BB   02           DB 2
   \   0004BC   2D           DB 45
   \   0004BD   30           DB 48
   \   0004BE   20           DB 32
   \   0004BF   00           DB 0
   \   0004C0   00           DB 0
   \   0004C1   08           DB 8
   \   0004C2   08           DB 8
   \   0004C3   F8           DB 248
   \   0004C4   00           DB 0
   \   0004C5   00           DB 0
   \   0004C6   00           DB 0
   \   0004C7   00           DB 0
   \   0004C8   00           DB 0
   \   0004C9   20           DB 32
   \   0004CA   20           DB 32
   \   0004CB   3F           DB 63
   \   0004CC   20           DB 32
   \   0004CD   20           DB 32
   \   0004CE   00           DB 0
   \   0004CF   00           DB 0
   \   0004D0   80           DB 128
   \   0004D1   80           DB 128
   \   0004D2   80           DB 128
   \   0004D3   80           DB 128
   \   0004D4   80           DB 128
   \   0004D5   80           DB 128
   \   0004D6   80           DB 128
   \   0004D7   00           DB 0
   \   0004D8   20           DB 32
   \   0004D9   3F           DB 63
   \   0004DA   20           DB 32
   \   0004DB   00           DB 0
   \   0004DC   3F           DB 63
   \   0004DD   20           DB 32
   \   0004DE   00           DB 0
   \   0004DF   3F           DB 63
   \   0004E0   80           DB 128
   \   0004E1   80           DB 128
   \   0004E2   00           DB 0
   \   0004E3   80           DB 128
   \   0004E4   80           DB 128
   \   0004E5   80           DB 128
   \   0004E6   00           DB 0
   \   0004E7   00           DB 0
   \   0004E8   20           DB 32
   \   0004E9   3F           DB 63
   \   0004EA   21           DB 33
   \   0004EB   00           DB 0
   \   0004EC   00           DB 0
   \   0004ED   20           DB 32
   \   0004EE   3F           DB 63
   \   0004EF   20           DB 32
   \   0004F0   00           DB 0
   \   0004F1   00           DB 0
   \   0004F2   80           DB 128
   \   0004F3   80           DB 128
   \   0004F4   80           DB 128
   \   0004F5   80           DB 128
   \   0004F6   00           DB 0
   \   0004F7   00           DB 0
   \   0004F8   00           DB 0
   \   0004F9   1F           DB 31
   \   0004FA   20           DB 32
   \   0004FB   20           DB 32
   \   0004FC   20           DB 32
   \   0004FD   20           DB 32
   \   0004FE   1F           DB 31
   \   0004FF   00           DB 0
   \   000500   80           DB 128
   \   000501   80           DB 128
   \   000502   00           DB 0
   \   000503   80           DB 128
   \   000504   80           DB 128
   \   000505   00           DB 0
   \   000506   00           DB 0
   \   000507   00           DB 0
   \   000508   80           DB 128
   \   000509   FF           DB 255
   \   00050A   A1           DB 161
   \   00050B   20           DB 32
   \   00050C   20           DB 32
   \   00050D   11           DB 17
   \   00050E   0E           DB 14
   \   00050F   00           DB 0
   \   000510   00           DB 0
   \   000511   00           DB 0
   \   000512   00           DB 0
   \   000513   80           DB 128
   \   000514   80           DB 128
   \   000515   80           DB 128
   \   000516   80           DB 128
   \   000517   00           DB 0
   \   000518   00           DB 0
   \   000519   0E           DB 14
   \   00051A   11           DB 17
   \   00051B   20           DB 32
   \   00051C   20           DB 32
   \   00051D   A0           DB 160
   \   00051E   FF           DB 255
   \   00051F   80           DB 128
   \   000520   80           DB 128
   \   000521   80           DB 128
   \   000522   80           DB 128
   \   000523   00           DB 0
   \   000524   80           DB 128
   \   000525   80           DB 128
   \   000526   80           DB 128
   \   000527   00           DB 0
   \   000528   20           DB 32
   \   000529   20           DB 32
   \   00052A   3F           DB 63
   \   00052B   21           DB 33
   \   00052C   20           DB 32
   \   00052D   00           DB 0
   \   00052E   01           DB 1
   \   00052F   00           DB 0
   \   000530   00           DB 0
   \   000531   00           DB 0
   \   000532   80           DB 128
   \   000533   80           DB 128
   \   000534   80           DB 128
   \   000535   80           DB 128
   \   000536   80           DB 128
   \   000537   00           DB 0
   \   000538   00           DB 0
   \   000539   33           DB 51
   \   00053A   24           DB 36
   \   00053B   24           DB 36
   \   00053C   24           DB 36
   \   00053D   24           DB 36
   \   00053E   19           DB 25
   \   00053F   00           DB 0
   \   000540   00           DB 0
   \   000541   80           DB 128
   \   000542   80           DB 128
   \   000543   E0           DB 224
   \   000544   80           DB 128
   \   000545   80           DB 128
   \   000546   00           DB 0
   \   000547   00           DB 0
   \   000548   00           DB 0
   \   000549   00           DB 0
   \   00054A   00           DB 0
   \   00054B   1F           DB 31
   \   00054C   20           DB 32
   \   00054D   20           DB 32
   \   00054E   00           DB 0
   \   00054F   00           DB 0
   \   000550   80           DB 128
   \   000551   80           DB 128
   \   000552   00           DB 0
   \   000553   00           DB 0
   \   000554   00           DB 0
   \   000555   80           DB 128
   \   000556   80           DB 128
   \   000557   00           DB 0
   \   000558   00           DB 0
   \   000559   1F           DB 31
   \   00055A   20           DB 32
   \   00055B   20           DB 32
   \   00055C   20           DB 32
   \   00055D   10           DB 16
   \   00055E   3F           DB 63
   \   00055F   20           DB 32
   \   000560   80           DB 128
   \   000561   80           DB 128
   \   000562   80           DB 128
   \   000563   00           DB 0
   \   000564   00           DB 0
   \   000565   80           DB 128
   \   000566   80           DB 128
   \   000567   80           DB 128
   \   000568   00           DB 0
   \   000569   01           DB 1
   \   00056A   0E           DB 14
   \   00056B   30           DB 48
   \   00056C   08           DB 8
   \   00056D   06           DB 6
   \   00056E   01           DB 1
   \   00056F   00           DB 0
   \   000570   80           DB 128
   \   000571   80           DB 128
   \   000572   00           DB 0
   \   000573   80           DB 128
   \   000574   00           DB 0
   \   000575   80           DB 128
   \   000576   80           DB 128
   \   000577   80           DB 128
   \   000578   0F           DB 15
   \   000579   30           DB 48
   \   00057A   0C           DB 12
   \   00057B   03           DB 3
   \   00057C   0C           DB 12
   \   00057D   30           DB 48
   \   00057E   0F           DB 15
   \   00057F   00           DB 0
   \   000580   00           DB 0
   \   000581   80           DB 128
   \   000582   80           DB 128
   \   000583   00           DB 0
   \   000584   80           DB 128
   \   000585   80           DB 128
   \   000586   80           DB 128
   \   000587   00           DB 0
   \   000588   00           DB 0
   \   000589   20           DB 32
   \   00058A   31           DB 49
   \   00058B   2E           DB 46
   \   00058C   0E           DB 14
   \   00058D   31           DB 49
   \   00058E   20           DB 32
   \   00058F   00           DB 0
   \   000590   80           DB 128
   \   000591   80           DB 128
   \   000592   80           DB 128
   \   000593   00           DB 0
   \   000594   00           DB 0
   \   000595   80           DB 128
   \   000596   80           DB 128
   \   000597   80           DB 128
   \   000598   80           DB 128
   \   000599   81           DB 129
   \   00059A   8E           DB 142
   \   00059B   70           DB 112
   \   00059C   18           DB 24
   \   00059D   06           DB 6
   \   00059E   01           DB 1
   \   00059F   00           DB 0
   \   0005A0   00           DB 0
   \   0005A1   80           DB 128
   \   0005A2   80           DB 128
   \   0005A3   80           DB 128
   \   0005A4   80           DB 128
   \   0005A5   80           DB 128
   \   0005A6   80           DB 128
   \   0005A7   00           DB 0
   \   0005A8   00           DB 0
   \   0005A9   21           DB 33
   \   0005AA   30           DB 48
   \   0005AB   2C           DB 44
   \   0005AC   22           DB 34
   \   0005AD   21           DB 33
   \   0005AE   30           DB 48
   \   0005AF   00           DB 0
   \   0005B0   00           DB 0
   \   0005B1   00           DB 0
   \   0005B2   00           DB 0
   \   0005B3   00           DB 0
   \   0005B4   80           DB 128
   \   0005B5   7C           DB 124
   \   0005B6   02           DB 2
   \   0005B7   02           DB 2
   \   0005B8   00           DB 0
   \   0005B9   00           DB 0
   \   0005BA   00           DB 0
   \   0005BB   00           DB 0
   \   0005BC   00           DB 0
   \   0005BD   3F           DB 63
   \   0005BE   40           DB 64
   \   0005BF   40           DB 64
   \   0005C0   00           DB 0
   \   0005C1   00           DB 0
   \   0005C2   00           DB 0
   \   0005C3   00           DB 0
   \   0005C4   FF           DB 255
   \   0005C5   00           DB 0
   \   0005C6   00           DB 0
   \   0005C7   00           DB 0
   \   0005C8   00           DB 0
   \   0005C9   00           DB 0
   \   0005CA   00           DB 0
   \   0005CB   00           DB 0
   \   0005CC   FF           DB 255
   \   0005CD   00           DB 0
   \   0005CE   00           DB 0
   \   0005CF   00           DB 0
   \   0005D0   00           DB 0
   \   0005D1   02           DB 2
   \   0005D2   02           DB 2
   \   0005D3   7C           DB 124
   \   0005D4   80           DB 128
   \   0005D5   00           DB 0
   \   0005D6   00           DB 0
   \   0005D7   00           DB 0
   \   0005D8   00           DB 0
   \   0005D9   40           DB 64
   \   0005DA   40           DB 64
   \   0005DB   3F           DB 63
   \   0005DC   00           DB 0
   \   0005DD   00           DB 0
   \   0005DE   00           DB 0
   \   0005DF   00           DB 0
   \   0005E0   00           DB 0
   \   0005E1   06           DB 6
   \   0005E2   01           DB 1
   \   0005E3   01           DB 1
   \   0005E4   02           DB 2
   \   0005E5   02           DB 2
   \   0005E6   04           DB 4
   \   0005E7   04           DB 4
   \   0005E8   00           DB 0
   \   0005E9   00           DB 0
   \   0005EA   00           DB 0
   \   0005EB   00           DB 0
   \   0005EC   00           DB 0
   \   0005ED   00           DB 0
   \   0005EE   00           DB 0
   \   0005EF   00           DB 0
    108          {
    109            0x00,0x00,0x00,0x00,0x00,0x00,0x00,0x00,0x00,0x00,0x00,0x00,0x00,0x00,0x00,0x00,// 0
    110            0x00,0x00,0x00,0xF8,0x00,0x00,0x00,0x00,0x00,0x00,0x00,0x33,0x30,0x00,0x00,0x00,//! 1
    111            0x00,0x10,0x0C,0x06,0x10,0x0C,0x06,0x00,0x00,0x00,0x00,0x00,0x00,0x00,0x00,0x00,//" 2
    112            0x40,0xC0,0x78,0x40,0xC0,0x78,0x40,0x00,0x04,0x3F,0x04,0x04,0x3F,0x04,0x04,0x00,//# 3
    113            0x00,0x70,0x88,0xFC,0x08,0x30,0x00,0x00,0x00,0x18,0x20,0xFF,0x21,0x1E,0x00,0x00,//$ 4
    114            0xF0,0x08,0xF0,0x00,0xE0,0x18,0x00,0x00,0x00,0x21,0x1C,0x03,0x1E,0x21,0x1E,0x00,//% 5
    115            0x00,0xF0,0x08,0x88,0x70,0x00,0x00,0x00,0x1E,0x21,0x23,0x24,0x19,0x27,0x21,0x10,//& 6
    116            0x10,0x16,0x0E,0x00,0x00,0x00,0x00,0x00,0x00,0x00,0x00,0x00,0x00,0x00,0x00,0x00,//' 7
    117            0x00,0x00,0x00,0xE0,0x18,0x04,0x02,0x00,0x00,0x00,0x00,0x07,0x18,0x20,0x40,0x00,//( 8
    118            0x00,0x02,0x04,0x18,0xE0,0x00,0x00,0x00,0x00,0x40,0x20,0x18,0x07,0x00,0x00,0x00,//) 9
    119            0x40,0x40,0x80,0xF0,0x80,0x40,0x40,0x00,0x02,0x02,0x01,0x0F,0x01,0x02,0x02,0x00,//* 10
    120            0x00,0x00,0x00,0xF0,0x00,0x00,0x00,0x00,0x01,0x01,0x01,0x1F,0x01,0x01,0x01,0x00,//+ 11
    121            0x00,0x00,0x00,0x00,0x00,0x00,0x00,0x00,0x80,0xB0,0x70,0x00,0x00,0x00,0x00,0x00,//, 12
    122            0x00,0x00,0x00,0x00,0x00,0x00,0x00,0x00,0x00,0x01,0x01,0x01,0x01,0x01,0x01,0x01,//- 13
    123            0x00,0x00,0x00,0x00,0x00,0x00,0x00,0x00,0x00,0x30,0x30,0x00,0x00,0x00,0x00,0x00,//. 14
    124            0x00,0x00,0x00,0x00,0x80,0x60,0x18,0x04,0x00,0x60,0x18,0x06,0x01,0x00,0x00,0x00,/// 15
    125            0x00,0xE0,0x10,0x08,0x08,0x10,0xE0,0x00,0x00,0x0F,0x10,0x20,0x20,0x10,0x0F,0x00,//0 16
    126            0x00,0x10,0x10,0xF8,0x00,0x00,0x00,0x00,0x00,0x20,0x20,0x3F,0x20,0x20,0x00,0x00,//1 17
    127            0x00,0x70,0x08,0x08,0x08,0x88,0x70,0x00,0x00,0x30,0x28,0x24,0x22,0x21,0x30,0x00,//2 18
    128            0x00,0x30,0x08,0x88,0x88,0x48,0x30,0x00,0x00,0x18,0x20,0x20,0x20,0x11,0x0E,0x00,//3 19
    129            0x00,0x00,0xC0,0x20,0x10,0xF8,0x00,0x00,0x00,0x07,0x04,0x24,0x24,0x3F,0x24,0x00,//4 20
    130            0x00,0xF8,0x08,0x88,0x88,0x08,0x08,0x00,0x00,0x19,0x21,0x20,0x20,0x11,0x0E,0x00,//5 21
    131            0x00,0xE0,0x10,0x88,0x88,0x18,0x00,0x00,0x00,0x0F,0x11,0x20,0x20,0x11,0x0E,0x00,//6 22
    132            0x00,0x38,0x08,0x08,0xC8,0x38,0x08,0x00,0x00,0x00,0x00,0x3F,0x00,0x00,0x00,0x00,//7 23
    133            0x00,0x70,0x88,0x08,0x08,0x88,0x70,0x00,0x00,0x1C,0x22,0x21,0x21,0x22,0x1C,0x00,//8 24
    134            0x00,0xE0,0x10,0x08,0x08,0x10,0xE0,0x00,0x00,0x00,0x31,0x22,0x22,0x11,0x0F,0x00,//9 25
    135            0x00,0x00,0x00,0xC0,0xC0,0x00,0x00,0x00,0x00,0x00,0x00,0x30,0x30,0x00,0x00,0x00,//: 26
    136            0x00,0x00,0x00,0x80,0x00,0x00,0x00,0x00,0x00,0x00,0x80,0x60,0x00,0x00,0x00,0x00,//; 27
    137            0x00,0x00,0x80,0x40,0x20,0x10,0x08,0x00,0x00,0x01,0x02,0x04,0x08,0x10,0x20,0x00,//< 28
    138            0x40,0x40,0x40,0x40,0x40,0x40,0x40,0x00,0x04,0x04,0x04,0x04,0x04,0x04,0x04,0x00,//= 29
    139            0x00,0x08,0x10,0x20,0x40,0x80,0x00,0x00,0x00,0x20,0x10,0x08,0x04,0x02,0x01,0x00,//> 30
    140            0x00,0x70,0x48,0x08,0x08,0x08,0xF0,0x00,0x00,0x00,0x00,0x30,0x36,0x01,0x00,0x00,//? 31
    141            0xC0,0x30,0xC8,0x28,0xE8,0x10,0xE0,0x00,0x07,0x18,0x27,0x24,0x23,0x14,0x0B,0x00,//@ 32
    142            0x00,0x00,0xC0,0x38,0xE0,0x00,0x00,0x00,0x20,0x3C,0x23,0x02,0x02,0x27,0x38,0x20,//A 33
    143            0x08,0xF8,0x88,0x88,0x88,0x70,0x00,0x00,0x20,0x3F,0x20,0x20,0x20,0x11,0x0E,0x00,//B 34
    144            0xC0,0x30,0x08,0x08,0x08,0x08,0x38,0x00,0x07,0x18,0x20,0x20,0x20,0x10,0x08,0x00,//C 35
    145            0x08,0xF8,0x08,0x08,0x08,0x10,0xE0,0x00,0x20,0x3F,0x20,0x20,0x20,0x10,0x0F,0x00,//D 36
    146            0x08,0xF8,0x88,0x88,0xE8,0x08,0x10,0x00,0x20,0x3F,0x20,0x20,0x23,0x20,0x18,0x00,//E 37
    147            0x08,0xF8,0x88,0x88,0xE8,0x08,0x10,0x00,0x20,0x3F,0x20,0x00,0x03,0x00,0x00,0x00,//F 38
    148            0xC0,0x30,0x08,0x08,0x08,0x38,0x00,0x00,0x07,0x18,0x20,0x20,0x22,0x1E,0x02,0x00,//G 39
    149            0x08,0xF8,0x08,0x00,0x00,0x08,0xF8,0x08,0x20,0x3F,0x21,0x01,0x01,0x21,0x3F,0x20,//H 40
    150            0x00,0x08,0x08,0xF8,0x08,0x08,0x00,0x00,0x00,0x20,0x20,0x3F,0x20,0x20,0x00,0x00,//I 41
    151            0x00,0x00,0x08,0x08,0xF8,0x08,0x08,0x00,0xC0,0x80,0x80,0x80,0x7F,0x00,0x00,0x00,//J 42
    152            0x08,0xF8,0x88,0xC0,0x28,0x18,0x08,0x00,0x20,0x3F,0x20,0x01,0x26,0x38,0x20,0x00,//K 43
    153            0x08,0xF8,0x08,0x00,0x00,0x00,0x00,0x00,0x20,0x3F,0x20,0x20,0x20,0x20,0x30,0x00,//L 44
    154            0x08,0xF8,0xF8,0x00,0xF8,0xF8,0x08,0x00,0x20,0x3F,0x00,0x3F,0x00,0x3F,0x20,0x00,//M 45
    155            0x08,0xF8,0x30,0xC0,0x00,0x08,0xF8,0x08,0x20,0x3F,0x20,0x00,0x07,0x18,0x3F,0x00,//N 46
    156            0xE0,0x10,0x08,0x08,0x08,0x10,0xE0,0x00,0x0F,0x10,0x20,0x20,0x20,0x10,0x0F,0x00,//O 47
    157            0x08,0xF8,0x08,0x08,0x08,0x08,0xF0,0x00,0x20,0x3F,0x21,0x01,0x01,0x01,0x00,0x00,//P 48
    158            0xE0,0x10,0x08,0x08,0x08,0x10,0xE0,0x00,0x0F,0x18,0x24,0x24,0x38,0x50,0x4F,0x00,//Q 49
    159            0x08,0xF8,0x88,0x88,0x88,0x88,0x70,0x00,0x20,0x3F,0x20,0x00,0x03,0x0C,0x30,0x20,//R 50
    160            0x00,0x70,0x88,0x08,0x08,0x08,0x38,0x00,0x00,0x38,0x20,0x21,0x21,0x22,0x1C,0x00,//S 51
    161            0x18,0x08,0x08,0xF8,0x08,0x08,0x18,0x00,0x00,0x00,0x20,0x3F,0x20,0x00,0x00,0x00,//T 52
    162            0x08,0xF8,0x08,0x00,0x00,0x08,0xF8,0x08,0x00,0x1F,0x20,0x20,0x20,0x20,0x1F,0x00,//U 53
    163            0x08,0x78,0x88,0x00,0x00,0xC8,0x38,0x08,0x00,0x00,0x07,0x38,0x0E,0x01,0x00,0x00,//V 54
    164            0xF8,0x08,0x00,0xF8,0x00,0x08,0xF8,0x00,0x03,0x3C,0x07,0x00,0x07,0x3C,0x03,0x00,//W 55
    165            0x08,0x18,0x68,0x80,0x80,0x68,0x18,0x08,0x20,0x30,0x2C,0x03,0x03,0x2C,0x30,0x20,//X 56
    166            0x08,0x38,0xC8,0x00,0xC8,0x38,0x08,0x00,0x00,0x00,0x20,0x3F,0x20,0x00,0x00,0x00,//Y 57
    167            0x10,0x08,0x08,0x08,0xC8,0x38,0x08,0x00,0x20,0x38,0x26,0x21,0x20,0x20,0x18,0x00,//Z 58
    168            0x00,0x00,0x00,0xFE,0x02,0x02,0x02,0x00,0x00,0x00,0x00,0x7F,0x40,0x40,0x40,0x00,//[ 59
    169            0x00,0x0C,0x30,0xC0,0x00,0x00,0x00,0x00,0x00,0x00,0x00,0x01,0x06,0x38,0xC0,0x00,//\ 60
    170            0x00,0x02,0x02,0x02,0xFE,0x00,0x00,0x00,0x00,0x40,0x40,0x40,0x7F,0x00,0x00,0x00,//] 61
    171            0x00,0x00,0x04,0x02,0x02,0x02,0x04,0x00,0x00,0x00,0x00,0x00,0x00,0x00,0x00,0x00,//^ 62
    172            0x00,0x00,0x00,0x00,0x00,0x00,0x00,0x00,0x80,0x80,0x80,0x80,0x80,0x80,0x80,0x80,//_ 63
    173            0x00,0x02,0x02,0x04,0x00,0x00,0x00,0x00,0x00,0x00,0x00,0x00,0x00,0x00,0x00,0x00,//` 64
    174            0x00,0x00,0x80,0x80,0x80,0x80,0x00,0x00,0x00,0x19,0x24,0x22,0x22,0x22,0x3F,0x20,//a 65
    175            0x08,0xF8,0x00,0x80,0x80,0x00,0x00,0x00,0x00,0x3F,0x11,0x20,0x20,0x11,0x0E,0x00,//b 66
    176            0x00,0x00,0x00,0x80,0x80,0x80,0x00,0x00,0x00,0x0E,0x11,0x20,0x20,0x20,0x11,0x00,//c 67
    177            0x00,0x00,0x00,0x80,0x80,0x88,0xF8,0x00,0x00,0x0E,0x11,0x20,0x20,0x10,0x3F,0x20,//d 68
    178            0x00,0x00,0x80,0x80,0x80,0x80,0x00,0x00,0x00,0x1F,0x22,0x22,0x22,0x22,0x13,0x00,//e 69
    179            0x00,0x80,0x80,0xF0,0x88,0x88,0x88,0x18,0x00,0x20,0x20,0x3F,0x20,0x20,0x00,0x00,//f 70
    180            0x00,0x00,0x80,0x80,0x80,0x80,0x80,0x00,0x00,0x6B,0x94,0x94,0x94,0x93,0x60,0x00,//g 71
    181            0x08,0xF8,0x00,0x80,0x80,0x80,0x00,0x00,0x20,0x3F,0x21,0x00,0x00,0x20,0x3F,0x20,//h 72
    182            0x00,0x80,0x98,0x98,0x00,0x00,0x00,0x00,0x00,0x20,0x20,0x3F,0x20,0x20,0x00,0x00,//i 73
    183            0x00,0x00,0x00,0x80,0x98,0x98,0x00,0x00,0x00,0xC0,0x80,0x80,0x80,0x7F,0x00,0x00,//j 74
    184            0x08,0xF8,0x00,0x00,0x80,0x80,0x80,0x00,0x20,0x3F,0x24,0x02,0x2D,0x30,0x20,0x00,//k 75
    185            0x00,0x08,0x08,0xF8,0x00,0x00,0x00,0x00,0x00,0x20,0x20,0x3F,0x20,0x20,0x00,0x00,//l 76
    186            0x80,0x80,0x80,0x80,0x80,0x80,0x80,0x00,0x20,0x3F,0x20,0x00,0x3F,0x20,0x00,0x3F,//m 77
    187            0x80,0x80,0x00,0x80,0x80,0x80,0x00,0x00,0x20,0x3F,0x21,0x00,0x00,0x20,0x3F,0x20,//n 78
    188            0x00,0x00,0x80,0x80,0x80,0x80,0x00,0x00,0x00,0x1F,0x20,0x20,0x20,0x20,0x1F,0x00,//o 79
    189            0x80,0x80,0x00,0x80,0x80,0x00,0x00,0x00,0x80,0xFF,0xA1,0x20,0x20,0x11,0x0E,0x00,//p 80
    190            0x00,0x00,0x00,0x80,0x80,0x80,0x80,0x00,0x00,0x0E,0x11,0x20,0x20,0xA0,0xFF,0x80,//q 81
    191            0x80,0x80,0x80,0x00,0x80,0x80,0x80,0x00,0x20,0x20,0x3F,0x21,0x20,0x00,0x01,0x00,//r 82
    192            0x00,0x00,0x80,0x80,0x80,0x80,0x80,0x00,0x00,0x33,0x24,0x24,0x24,0x24,0x19,0x00,//s 83
    193            0x00,0x80,0x80,0xE0,0x80,0x80,0x00,0x00,0x00,0x00,0x00,0x1F,0x20,0x20,0x00,0x00,//t 84
    194            0x80,0x80,0x00,0x00,0x00,0x80,0x80,0x00,0x00,0x1F,0x20,0x20,0x20,0x10,0x3F,0x20,//u 85
    195            0x80,0x80,0x80,0x00,0x00,0x80,0x80,0x80,0x00,0x01,0x0E,0x30,0x08,0x06,0x01,0x00,//v 86
    196            0x80,0x80,0x00,0x80,0x00,0x80,0x80,0x80,0x0F,0x30,0x0C,0x03,0x0C,0x30,0x0F,0x00,//w 87
    197            0x00,0x80,0x80,0x00,0x80,0x80,0x80,0x00,0x00,0x20,0x31,0x2E,0x0E,0x31,0x20,0x00,//x 88
    198            0x80,0x80,0x80,0x00,0x00,0x80,0x80,0x80,0x80,0x81,0x8E,0x70,0x18,0x06,0x01,0x00,//y 89
    199            0x00,0x80,0x80,0x80,0x80,0x80,0x80,0x00,0x00,0x21,0x30,0x2C,0x22,0x21,0x30,0x00,//z 90
    200            0x00,0x00,0x00,0x00,0x80,0x7C,0x02,0x02,0x00,0x00,0x00,0x00,0x00,0x3F,0x40,0x40,//{ 91
    201            0x00,0x00,0x00,0x00,0xFF,0x00,0x00,0x00,0x00,0x00,0x00,0x00,0xFF,0x00,0x00,0x00,//| 92
    202            0x00,0x02,0x02,0x7C,0x80,0x00,0x00,0x00,0x00,0x40,0x40,0x3F,0x00,0x00,0x00,0x00,//} 93
    203            0x00,0x06,0x01,0x01,0x02,0x02,0x04,0x04,0x00,0x00,0x00,0x00,0x00,0x00,0x00,0x00,//~ 94
    204          };
    205          

   \                                 In  segment XDATA_I, align 1, keep-with-next
    206          unsigned char Hzk[][32]={
   \                     Hzk:
   \   000000                DS 448
   \   0001C0                REQUIRE `?<Initializer for Hzk>`
   \   0001C0                REQUIRE __INIT_XDATA_I
    207          {0x00,0x00,0xF0,0x10,0x10,0x10,0x10,0xFF,0x10,0x10,0x10,0x10,0xF0,0x00,0x00,0x00},
    208          {0x00,0x00,0x0F,0x04,0x04,0x04,0x04,0xFF,0x04,0x04,0x04,0x04,0x0F,0x00,0x00,0x00},/*"中",0*/
    209          
    210          {0x40,0x40,0x40,0x5F,0x55,0x55,0x55,0x75,0x55,0x55,0x55,0x5F,0x40,0x40,0x40,0x00},
    211          {0x00,0x40,0x20,0x0F,0x09,0x49,0x89,0x79,0x09,0x09,0x09,0x0F,0x20,0x40,0x00,0x00},/*"景",1*/
    212          
    213          {0x00,0xFE,0x02,0x42,0x4A,0xCA,0x4A,0x4A,0xCA,0x4A,0x4A,0x42,0x02,0xFE,0x00,0x00},
    214          {0x00,0xFF,0x40,0x50,0x4C,0x43,0x40,0x40,0x4F,0x50,0x50,0x5C,0x40,0xFF,0x00,0x00},/*"园",2*/
    215          
    216          {0x00,0x00,0xF8,0x88,0x88,0x88,0x88,0xFF,0x88,0x88,0x88,0x88,0xF8,0x00,0x00,0x00},
    217          {0x00,0x00,0x1F,0x08,0x08,0x08,0x08,0x7F,0x88,0x88,0x88,0x88,0x9F,0x80,0xF0,0x00},/*"电",3*/
    218          
    219          {0x80,0x82,0x82,0x82,0x82,0x82,0x82,0xE2,0xA2,0x92,0x8A,0x86,0x82,0x80,0x80,0x00},
    220          {0x00,0x00,0x00,0x00,0x00,0x40,0x80,0x7F,0x00,0x00,0x00,0x00,0x00,0x00,0x00,0x00},/*"子",4*/
    221          
    222          {0x24,0x24,0xA4,0xFE,0xA3,0x22,0x00,0x22,0xCC,0x00,0x00,0xFF,0x00,0x00,0x00,0x00},
    223          {0x08,0x06,0x01,0xFF,0x00,0x01,0x04,0x04,0x04,0x04,0x04,0xFF,0x02,0x02,0x02,0x00},/*"科",5*/
    224          
    225          {0x10,0x10,0x10,0xFF,0x10,0x90,0x08,0x88,0x88,0x88,0xFF,0x88,0x88,0x88,0x08,0x00},
    226          {0x04,0x44,0x82,0x7F,0x01,0x80,0x80,0x40,0x43,0x2C,0x10,0x28,0x46,0x81,0x80,0x00},/*"技",6*/
    227          };
    228          
    229          
    230          
    231          /**********************************************
    232          // IIC Write Command
    233          **********************************************/

   \                                 In  segment BANKED_CODE, align 1, keep-with-next
    234          void Write_IIC_Command(unsigned char IIC_Command){
   \                     Write_IIC_Command:
   \   000000   74F7         MOV       A,#-0x9
   \   000002   12....       LCALL     ?BANKED_ENTER_XDATA
   \   000005                ; Saved register size: 9
   \   000005                ; Auto size: 0
   \   000005   12....       LCALL     ?Subroutine6 & 0xFFFF
    235            OLED_Start();
    236            OLED_SendByte(0x78);            //Slave address,SA0=0
    237          	
    238            OLED_SendByte(0x00);			//write command
   \                     ??CrossCallReturnLabel_7:
   \   000008                ; Setup parameters for call to function OLED_SendByte
   \   000008   7900         MOV       R1,#0x0
   \   00000A   02....       LJMP      ?Subroutine0 & 0xFFFF
    239          
    240            OLED_SendByte(IIC_Command); 
    241          
    242            OLED_Stop();
    243          }

   \                                 In  segment BANKED_CODE, align 1, keep-with-next
   \                     ?Subroutine6:
   \   000000   E9           MOV       A,R1
   \   000001   FE           MOV       R6,A
   \   000002                ; Setup parameters for call to function OLED_Start
   \   000002                ; Setup parameters for call to function OLED_Start
   \   000002   12....       LCALL     `??OLED_Start::?relay`; Banked call to: OLED_Start
   \   000005                ; Setup parameters for call to function OLED_SendByte
   \   000005                ; Setup parameters for call to function OLED_SendByte
   \   000005   7978         MOV       R1,#0x78
   \   000007   12....       LCALL     `??OLED_SendByte::?relay`; Banked call to: OLED_SendByte
   \   00000A   22           RET

   \                                 In  segment BANKED_CODE, align 1, keep-with-next
   \                     ?Subroutine0:
   \   000000   12....       LCALL     `??OLED_SendByte::?relay`; Banked call to: OLED_SendByte
   \   000003                ; Setup parameters for call to function OLED_SendByte
   \   000003                ; Setup parameters for call to function OLED_SendByte
   \   000003   EE           MOV       A,R6
   \   000004   F9           MOV       R1,A
   \   000005   12....       LCALL     `??OLED_SendByte::?relay`; Banked call to: OLED_SendByte
   \   000008                ; Setup parameters for call to function OLED_Stop
   \   000008                ; Setup parameters for call to function OLED_Stop
   \   000008   12....       LCALL     `??OLED_Stop::?relay`; Banked call to: OLED_Stop
   \   00000B                REQUIRE ??Subroutine16_0
   \   00000B                ; // Fall through to label ??Subroutine16_0

   \                                 In  segment BANKED_CODE, align 1, keep-with-next
   \                     ??Subroutine16_0:
   \   000000   7F01         MOV       R7,#0x1
   \   000002   02....       LJMP      ?BANKED_LEAVE_XDATA
    244          /**********************************************
    245          // IIC Write Data
    246          **********************************************/

   \                                 In  segment BANKED_CODE, align 1, keep-with-next
    247          void Write_IIC_Data(unsigned char IIC_Data){
   \                     Write_IIC_Data:
   \   000000   74F7         MOV       A,#-0x9
   \   000002   12....       LCALL     ?BANKED_ENTER_XDATA
   \   000005                ; Saved register size: 9
   \   000005                ; Auto size: 0
   \   000005   12....       LCALL     ?Subroutine6 & 0xFFFF
    248            OLED_Start();
    249            OLED_SendByte(0x78);			//D/C#=0; R/W#=0
    250          
    251            OLED_SendByte(0x40);			//write data
   \                     ??CrossCallReturnLabel_8:
   \   000008                ; Setup parameters for call to function OLED_SendByte
   \   000008   7940         MOV       R1,#0x40
   \   00000A   02....       LJMP      ?Subroutine0 & 0xFFFF
    252          	
    253            OLED_SendByte(IIC_Data);
    254          
    255            OLED_Stop();
    256          }

   \                                 In  segment BANKED_CODE, align 1, keep-with-next
    257          void OLED_WR_Byte(unsigned dat,unsigned cmd){
   \                     OLED_WR_Byte:
   \   000000   C082         PUSH      DPL
   \   000002   C083         PUSH      DPH
   \   000004                ; Saved register size: 2
   \   000004                ; Auto size: 0
    258            if(cmd){
   \   000004   EC           MOV       A,R4
   \   000005   4D           ORL       A,R5
   \   000006   6007         JZ        ??OLED_WR_Byte_0
    259              Write_IIC_Data(dat);
   \   000008                ; Setup parameters for call to function Write_IIC_Data
   \   000008   EA           MOV       A,R2
   \   000009   F9           MOV       R1,A
   \   00000A   12....       LCALL     `??Write_IIC_Data::?relay`; Banked call to: Write_IIC_Data
   \   00000D   8005         SJMP      ??OLED_WR_Byte_1
    260            }
    261            else{
    262              Write_IIC_Command(dat);
   \                     ??OLED_WR_Byte_0:
   \   00000F                ; Setup parameters for call to function Write_IIC_Command
   \   00000F   EA           MOV       A,R2
   \   000010   F9           MOV       R1,A
   \   000011   12....       LCALL     `??Write_IIC_Command::?relay`; Banked call to: Write_IIC_Command
    263            }
    264          }
   \                     ??OLED_WR_Byte_1:
   \   000014   02....       LJMP      ??Subroutine18_0 & 0xFFFF

   \                                 In  segment BANKED_CODE, align 1, keep-with-next
   \                     ??Subroutine18_0:
   \   000000   D083         POP       DPH
   \   000002   D082         POP       DPL
   \   000004   02....       LJMP      ?BRET
    265          
    266          /********************************************
    267          // fill_Picture
    268          ********************************************/

   \                                 In  segment BANKED_CODE, align 1, keep-with-next
    269          void fill_picture(unsigned char fill_Data){
   \                     fill_picture:
   \   000000                REQUIRE ?V0
   \   000000   74F7         MOV       A,#-0x9
   \   000002   12....       LCALL     ?BANKED_ENTER_XDATA
   \   000005                ; Saved register size: 9
   \   000005                ; Auto size: 0
   \   000005   89..         MOV       ?V0,R1
    270            unsigned char m,n;
    271            for(m=0;m<8;m++)
   \   000007   7F00         MOV       R7,#0x0
    272            {
    273              OLED_WR_Byte(0xb0+m,0);		//page0-page1
   \                     ??fill_picture_0:
   \   000009                ; Setup parameters for call to function OLED_WR_Byte
   \   000009   12....       LCALL     ?Subroutine3 & 0xFFFF
    274              OLED_WR_Byte(0x00,0);		//low column start address
    275              OLED_WR_Byte(0x10,0);		//high column start address
    276              for(n=0;n<128;n++)
    277              {
    278                OLED_WR_Byte(fill_Data,1);
   \                     ??CrossCallReturnLabel_0:
   \   00000C                ; Setup parameters for call to function OLED_WR_Byte
   \   00000C   7C01         MOV       R4,#0x1
   \   00000E   7D00         MOV       R5,#0x0
   \   000010   AA..         MOV       R2,?V0
   \   000012   7B00         MOV       R3,#0x0
   \   000014   12....       LCALL     `??OLED_WR_Byte::?relay`; Banked call to: OLED_WR_Byte
    279              }
   \   000017   DEF3         DJNZ      R6,??CrossCallReturnLabel_0
    280            }
   \   000019   0F           INC       R7
   \   00001A   EF           MOV       A,R7
   \   00001B   C3           CLR       C
   \   00001C   9408         SUBB      A,#0x8
   \   00001E   40E9         JC        ??fill_picture_0
    281          }
   \   000020   80..         SJMP      ??Subroutine16_0

   \                                 In  segment BANKED_CODE, align 1, keep-with-next
   \                     ?Subroutine3:
   \   000000   7C00         MOV       R4,#0x0
   \   000002   7D00         MOV       R5,#0x0
   \   000004   EF           MOV       A,R7
   \   000005   24B0         ADD       A,#-0x50
   \   000007   FA           MOV       R2,A
   \   000008   E4           CLR       A
   \   000009   3400         ADDC      A,#0x0
   \   00000B   FB           MOV       R3,A
   \   00000C   12....       LCALL     ?Subroutine14 & 0xFFFF
   \                     ??CrossCallReturnLabel_43:
   \   00000F   12....       LCALL     ?Subroutine12 & 0xFFFF
   \                     ??CrossCallReturnLabel_38:
   \   000012   7E80         MOV       R6,#-0x80
   \   000014   22           RET

   \                                 In  segment BANKED_CODE, align 1, keep-with-next
   \                     ?Subroutine15:
   \   000000   7B00         MOV       R3,#0x0
   \   000002                REQUIRE ??Subroutine19_0
   \   000002                ; // Fall through to label ??Subroutine19_0

   \                                 In  segment BANKED_CODE, align 1, keep-with-next
   \                     ??Subroutine19_0:
   \   000000   12....       LCALL     `??OLED_WR_Byte::?relay`; Banked call to: OLED_WR_Byte
   \   000003                ; Setup parameters for call to function OLED_WR_Byte
   \   000003                ; Setup parameters for call to function OLED_WR_Byte
   \   000003                ; Setup parameters for call to function OLED_WR_Byte
   \   000003                ; Setup parameters for call to function OLED_WR_Byte
   \   000003                ; Setup parameters for call to function OLED_WR_Byte
   \   000003                ; Setup parameters for call to function OLED_WR_Byte
   \   000003                ; Setup parameters for call to function OLED_WR_Byte
   \   000003                ; Setup parameters for call to function OLED_WR_Byte
   \   000003                ; Setup parameters for call to function OLED_WR_Byte
   \   000003                ; Setup parameters for call to function OLED_WR_Byte
   \   000003                ; Setup parameters for call to function OLED_WR_Byte
   \   000003                ; Setup parameters for call to function OLED_WR_Byte
   \   000003                ; Setup parameters for call to function OLED_WR_Byte
   \   000003                ; Setup parameters for call to function OLED_WR_Byte
   \   000003                ; Setup parameters for call to function OLED_WR_Byte
   \   000003                ; Setup parameters for call to function OLED_WR_Byte
   \   000003                ; Setup parameters for call to function OLED_WR_Byte
   \   000003                ; Setup parameters for call to function OLED_WR_Byte
   \   000003                ; Setup parameters for call to function OLED_WR_Byte
   \   000003                ; Setup parameters for call to function OLED_WR_Byte
   \   000003                ; Setup parameters for call to function OLED_WR_Byte
   \   000003                ; Setup parameters for call to function OLED_WR_Byte
   \   000003                ; Setup parameters for call to function OLED_WR_Byte
   \   000003                ; Setup parameters for call to function OLED_WR_Byte
   \   000003                ; Setup parameters for call to function OLED_WR_Byte
   \   000003                ; Setup parameters for call to function OLED_WR_Byte
   \   000003                ; Setup parameters for call to function OLED_WR_Byte
   \   000003                ; Setup parameters for call to function OLED_WR_Byte
   \   000003                ; Setup parameters for call to function OLED_WR_Byte
   \   000003                ; Setup parameters for call to function OLED_WR_Byte
   \   000003                ; Setup parameters for call to function OLED_WR_Byte
   \   000003                ; Setup parameters for call to function OLED_WR_Byte
   \   000003                ; Setup parameters for call to function OLED_WR_Byte
   \   000003                ; Setup parameters for call to function OLED_WR_Byte
   \   000003                ; Setup parameters for call to function OLED_WR_Byte
   \   000003   7C00         MOV       R4,#0x0
   \   000005   7D00         MOV       R5,#0x0
   \   000007   22           RET

   \                                 In  segment BANKED_CODE, align 1, keep-with-next
   \                     ?Subroutine14:
   \   000000   12....       LCALL     ??Subroutine19_0 & 0xFFFF
   \                     ??CrossCallReturnLabel_48:
   \   000003   7A00         MOV       R2,#0x0
   \   000005   22           RET

   \                                 In  segment BANKED_CODE, align 1, keep-with-next
   \                     ?Subroutine12:
   \   000000   12....       LCALL     ?Subroutine15 & 0xFFFF
   \                     ??CrossCallReturnLabel_46:
   \   000003   7A10         MOV       R2,#0x10
   \   000005   7B00         MOV       R3,#0x0
   \   000007   12....       LCALL     `??OLED_WR_Byte::?relay`; Banked call to: OLED_WR_Byte
   \   00000A   22           RET
    282          
    283          /***********************Delay****************************************/

   \                                 In  segment BANKED_CODE, align 1, keep-with-next
    284          void Delay_50ms(unsigned int Del_50ms){
   \                     Delay_50ms:
   \   000000                ; Saved register size: 0
   \   000000                ; Auto size: 0
   \   000000   8008         SJMP      ??Delay_50ms_0
    285            unsigned int m;
    286            for(;Del_50ms>0;Del_50ms--){
    287              for(m=6245;m>0;m--);
   \                     ??Delay_50ms_1:
   \   000002   EA           MOV       A,R2
   \   000003   24FF         ADD       A,#-0x1
   \   000005   1A           DEC       R2
   \   000006   EB           MOV       A,R3
   \   000007   34FF         ADDC      A,#-0x1
   \   000009   FB           MOV       R3,A
   \                     ??Delay_50ms_0:
   \   00000A   EA           MOV       A,R2
   \   00000B   4B           ORL       A,R3
   \   00000C   70F4         JNZ       ??Delay_50ms_1
    288            }
    289          }
   \   00000E   02....       LJMP      ?BRET
    290          

   \                                 In  segment BANKED_CODE, align 1, keep-with-next
    291          void Delay_1ms(unsigned int Del_1ms){
   \                     Delay_1ms:
   \   000000                ; Saved register size: 0
   \   000000                ; Auto size: 0
    292            unsigned char j;
    293            while(Del_1ms--)
   \                     ??Delay_1ms_0:
   \   000000   EA           MOV       A,R2
   \   000001   F8           MOV       R0,A
   \   000002   EB           MOV       A,R3
   \   000003   F9           MOV       R1,A
   \   000004   E8           MOV       A,R0
   \   000005   24FF         ADD       A,#-0x1
   \   000007   1A           DEC       R2
   \   000008   E9           MOV       A,R1
   \   000009   34FF         ADDC      A,#-0x1
   \   00000B   FB           MOV       R3,A
   \   00000C   E8           MOV       A,R0
   \   00000D   49           ORL       A,R1
   \   00000E   70F0         JNZ       ??Delay_1ms_0
    294            {	
    295              for(j=0;j<123;j++);
    296            }
    297          }
   \   000010   02....       LJMP      ?BRET
    298          
    299          //坐标设置
    300          

   \                                 In  segment BANKED_CODE, align 1, keep-with-next
    301          void OLED_Set_Pos(unsigned char x, unsigned char y){
   \                     OLED_Set_Pos:
   \   000000   74F7         MOV       A,#-0x9
   \   000002   12....       LCALL     ?BANKED_ENTER_XDATA
   \   000005                ; Saved register size: 9
   \   000005                ; Auto size: 0
   \   000005   E9           MOV       A,R1
   \   000006   FE           MOV       R6,A
   \   000007   EA           MOV       A,R2
    302            OLED_WR_Byte(0xb0+y,OLED_CMD);
   \   000008                ; Setup parameters for call to function OLED_WR_Byte
   \   000008   7C00         MOV       R4,#0x0
   \   00000A   7D00         MOV       R5,#0x0
   \   00000C   24B0         ADD       A,#-0x50
   \   00000E   FA           MOV       R2,A
   \   00000F   E4           CLR       A
   \   000010   3400         ADDC      A,#0x0
   \   000012   FB           MOV       R3,A
   \   000013   12....       LCALL     ?Subroutine8 & 0xFFFF
    303            OLED_WR_Byte(((x&0xf0)>>4)|0x10,OLED_CMD);
   \                     ??CrossCallReturnLabel_11:
   \   000016   C4           SWAP      A
   \   000017   540F         ANL       A,#0xf
   \   000019   4410         ORL       A,#0x10
   \   00001B   FA           MOV       R2,A
   \   00001C   7B00         MOV       R3,#0x0
   \   00001E   12....       LCALL     ?Subroutine8 & 0xFFFF
    304            OLED_WR_Byte((x&0x0f),OLED_CMD); 
   \                     ??CrossCallReturnLabel_12:
   \   000021   540F         ANL       A,#0xf
   \   000023   FA           MOV       R2,A
   \   000024   7B00         MOV       R3,#0x0
   \   000026   12....       LCALL     `??OLED_WR_Byte::?relay`; Banked call to: OLED_WR_Byte
    305          }   	  
   \   000029   80..         SJMP      ??Subroutine16_0

   \                                 In  segment BANKED_CODE, align 1, keep-with-next
   \                     ?Subroutine8:
   \   000000   12....       LCALL     ??Subroutine19_0 & 0xFFFF
   \                     ??CrossCallReturnLabel_47:
   \   000003   EE           MOV       A,R6
   \   000004   22           RET
    306          //开启OLED显示    

   \                                 In  segment BANKED_CODE, align 1, keep-with-next
    307          void OLED_Display_On(void){
   \                     OLED_Display_On:
   \   000000   C082         PUSH      DPL
   \   000002   C083         PUSH      DPH
   \   000004                ; Saved register size: 2
   \   000004                ; Auto size: 0
    308            OLED_WR_Byte(0X8D,OLED_CMD);  //SET DCDC命令
   \   000004                ; Setup parameters for call to function OLED_WR_Byte
   \   000004   80..         SJMP      ?Subroutine1
    309            OLED_WR_Byte(0X14,OLED_CMD);  //DCDC ON
    310            OLED_WR_Byte(0XAF,OLED_CMD);  //DISPLAY ON
    311          }

   \                                 In  segment BANKED_CODE, align 1, keep-with-next
   \                     ?Subroutine1:
   \   000000   7C00         MOV       R4,#0x0
   \   000002   7D00         MOV       R5,#0x0
   \   000004   7A8D         MOV       R2,#-0x73
   \   000006   12....       LCALL     ?Subroutine9 & 0xFFFF
   \                     ??CrossCallReturnLabel_13:
   \   000009   7A14         MOV       R2,#0x14
   \   00000B   12....       LCALL     ?Subroutine9 & 0xFFFF
   \                     ??CrossCallReturnLabel_14:
   \   00000E   7AAF         MOV       R2,#-0x51
   \   000010                REQUIRE ??Subroutine17_0
   \   000010                ; // Fall through to label ??Subroutine17_0

   \                                 In  segment BANKED_CODE, align 1, keep-with-next
   \                     ??Subroutine17_0:
   \   000000   7B00         MOV       R3,#0x0
   \   000002   12....       LCALL     `??OLED_WR_Byte::?relay`; Banked call to: OLED_WR_Byte
   \   000005                REQUIRE ??Subroutine18_0
   \   000005                ; // Fall through to label ??Subroutine18_0

   \                                 In  segment BANKED_CODE, align 1, keep-with-next
   \                     ?Subroutine9:
   \   000000   12....       LCALL     ?Subroutine15 & 0xFFFF
   \                     ??CrossCallReturnLabel_45:
   \   000003   22           RET
    312          //关闭OLED显示     

   \                                 In  segment BANKED_CODE, align 1, keep-with-next
    313          void OLED_Display_Off(void){
   \                     OLED_Display_Off:
   \   000000   C082         PUSH      DPL
   \   000002   C083         PUSH      DPH
   \   000004                ; Saved register size: 2
   \   000004                ; Auto size: 0
    314            OLED_WR_Byte(0X8D,OLED_CMD);  //SET DCDC命令
   \   000004                ; Setup parameters for call to function OLED_WR_Byte
   \   000004   7C00         MOV       R4,#0x0
   \   000006   7D00         MOV       R5,#0x0
   \   000008   7A8D         MOV       R2,#-0x73
   \   00000A   12....       LCALL     ?Subroutine4 & 0xFFFF
    315            OLED_WR_Byte(0X10,OLED_CMD);  //DCDC OFF
    316            OLED_WR_Byte(0XAE,OLED_CMD);  //DISPLAY OFF
   \                     ??CrossCallReturnLabel_3:
   \   00000D   7AAE         MOV       R2,#-0x52
   \   00000F   80..         SJMP      ??Subroutine17_0
    317          }		   			 

   \                                 In  segment BANKED_CODE, align 1, keep-with-next
   \                     ?Subroutine4:
   \   000000   12....       LCALL     ?Subroutine12 & 0xFFFF
   \                     ??CrossCallReturnLabel_39:
   \   000003                ; Setup parameters for call to function OLED_WR_Byte
   \   000003                ; Setup parameters for call to function OLED_WR_Byte
   \   000003   7C00         MOV       R4,#0x0
   \   000005   7D00         MOV       R5,#0x0
   \   000007   22           RET
    318          //清屏函数,清完屏,整个屏幕是黑色的!和没点亮一样!!!	  

   \                                 In  segment BANKED_CODE, align 1, keep-with-next
    319          void OLED_Clear(void){  
   \                     OLED_Clear:
   \   000000   74F7         MOV       A,#-0x9
   \   000002   12....       LCALL     ?BANKED_ENTER_XDATA
   \   000005                ; Saved register size: 9
   \   000005                ; Auto size: 0
    320            unsigned char i,n;		    
    321            for(i=0;i<8;i++)  
   \   000005   7F00         MOV       R7,#0x0
    322            {  
    323              OLED_WR_Byte (0xb0+i,OLED_CMD);    //设置页地址（0~7）
   \                     ??OLED_Clear_0:
   \   000007                ; Setup parameters for call to function OLED_WR_Byte
   \   000007   12....       LCALL     ?Subroutine3 & 0xFFFF
    324              OLED_WR_Byte (0x00,OLED_CMD);      //设置显示位置―列低地址
    325              OLED_WR_Byte (0x10,OLED_CMD);      //设置显示位置―列高地址
    326              for(n=0;n<128;n++){
    327                OLED_WR_Byte(0,OLED_DATA); 
   \                     ??CrossCallReturnLabel_1:
   \   00000A                ; Setup parameters for call to function OLED_WR_Byte
   \   00000A   7C01         MOV       R4,#0x1
   \   00000C   7D00         MOV       R5,#0x0
   \   00000E   7A00         MOV       R2,#0x0
   \   000010   7B00         MOV       R3,#0x0
   \   000012   12....       LCALL     `??OLED_WR_Byte::?relay`; Banked call to: OLED_WR_Byte
    328              }
   \   000015   DEF3         DJNZ      R6,??CrossCallReturnLabel_1
    329            } //更新显示
   \   000017   0F           INC       R7
   \   000018   EF           MOV       A,R7
   \   000019   C3           CLR       C
   \   00001A   9408         SUBB      A,#0x8
   \   00001C   40E9         JC        ??OLED_Clear_0
    330          }
   \   00001E   80..         SJMP      ??Subroutine16_0

   \                                 In  segment BANKED_CODE, align 1, keep-with-next
    331          void OLED_On(void){  
   \                     OLED_On:
   \   000000   74F7         MOV       A,#-0x9
   \   000002   12....       LCALL     ?BANKED_ENTER_XDATA
   \   000005                ; Saved register size: 9
   \   000005                ; Auto size: 0
    332            unsigned char i,n;		    
    333            for(i=0;i<8;i++)  
   \   000005   7F00         MOV       R7,#0x0
    334            {  
    335              OLED_WR_Byte (0xb0+i,OLED_CMD);    //设置页地址（0~7）
   \                     ??OLED_On_0:
   \   000007                ; Setup parameters for call to function OLED_WR_Byte
   \   000007   12....       LCALL     ?Subroutine3 & 0xFFFF
    336              OLED_WR_Byte (0x00,OLED_CMD);      //设置显示位置―列低地址
    337              OLED_WR_Byte (0x10,OLED_CMD);      //设置显示位置―列高地址   
    338              for(n=0;n<128;n++){
    339                OLED_WR_Byte(1,OLED_DATA);
   \                     ??CrossCallReturnLabel_2:
   \   00000A                ; Setup parameters for call to function OLED_WR_Byte
   \   00000A   7C01         MOV       R4,#0x1
   \   00000C   7D00         MOV       R5,#0x0
   \   00000E   7A01         MOV       R2,#0x1
   \   000010   7B00         MOV       R3,#0x0
   \   000012   12....       LCALL     `??OLED_WR_Byte::?relay`; Banked call to: OLED_WR_Byte
    340              }
   \   000015   DEF3         DJNZ      R6,??CrossCallReturnLabel_2
    341            } //更新显示
   \   000017   0F           INC       R7
   \   000018   EF           MOV       A,R7
   \   000019   C3           CLR       C
   \   00001A   9408         SUBB      A,#0x8
   \   00001C   40E9         JC        ??OLED_On_0
    342          }
   \   00001E   02....       LJMP      ??Subroutine16_0 & 0xFFFF
    343          //在指定位置显示一个字符,包括部分字符
    344          //x:0~127
    345          //y:0~63
    346          //mode:0,反白显示;1,正常显示				 
    347          //size:选择字体 16/12 

   \                                 In  segment BANKED_CODE, align 1, keep-with-next
    348          void OLED_ShowChar(unsigned char x,unsigned char y,unsigned char chr,unsigned char Char_Size){      	
   \                     OLED_ShowChar:
   \   000000                REQUIRE ?V0
   \   000000                REQUIRE ?V1
   \   000000                REQUIRE ?V2
   \   000000                REQUIRE ?V3
   \   000000                REQUIRE ?V4
   \   000000                REQUIRE ?V6
   \   000000                REQUIRE ?V7
   \   000000   74F0         MOV       A,#-0x10
   \   000002   12....       LCALL     ?BANKED_ENTER_XDATA
   \   000005                ; Saved register size: 16
   \   000005                ; Auto size: 0
   \   000005   E9           MOV       A,R1
   \   000006   FE           MOV       R6,A
   \   000007   8A..         MOV       ?V2,R2
    349            unsigned char c=0,i=0;	
   \   000009   7F00         MOV       R7,#0x0
    350            c=chr-' ';//得到偏移后的值			
   \   00000B   74E0         MOV       A,#-0x20
   \   00000D   2B           ADD       A,R3
   \   00000E   F8           MOV       R0,A
    351            if(x>Max_Column-1){
   \   00000F   E9           MOV       A,R1
   \   000010   C3           CLR       C
   \   000011   9480         SUBB      A,#-0x80
   \   000013   4007         JC        ??OLED_ShowChar_0
    352              x=0;
   \   000015   7E00         MOV       R6,#0x0
    353              y=y+2;
   \   000017   7402         MOV       A,#0x2
   \   000019   2A           ADD       A,R2
   \   00001A   F5..         MOV       ?V2,A
    354            }
    355            if(Char_Size ==16){
   \                     ??OLED_ShowChar_0:
   \   00001C   E8           MOV       A,R0
   \   00001D   F5..         MOV       ?V6,A
   \   00001F   8F..         MOV       ?V7,R7
   \   000021   7410         MOV       A,#0x10
   \   000023   6C           XRL       A,R4
   \   000024   AA..         MOV       R2,?V2
   \   000026   7054         JNZ       ??OLED_ShowChar_1
    356              OLED_Set_Pos(x,y);	
   \   000028                ; Setup parameters for call to function OLED_Set_Pos
   \   000028   EE           MOV       A,R6
   \   000029   F9           MOV       R1,A
   \   00002A   12....       LCALL     `??OLED_Set_Pos::?relay`; Banked call to: OLED_Set_Pos
    357              for(i=0;i<8;i++){
   \   00002D   7404         MOV       A,#0x4
   \   00002F   78..         MOV       R0,#?V6
   \   000031   12....       LCALL     ?S_SHL
   \   000034   85....       MOV       ?V0,?V6
   \   000037   85....       MOV       ?V1,?V7
    358                OLED_WR_Byte(F8X16[c*16+i],OLED_DATA);
   \                     ??OLED_ShowChar_2:
   \   00003A                ; Setup parameters for call to function OLED_WR_Byte
   \   00003A   7C01         MOV       R4,#0x1
   \   00003C   7D00         MOV       R5,#0x0
   \   00003E   EF           MOV       A,R7
   \   00003F   F8           MOV       R0,A
   \   000040   E5..         MOV       A,?V0
   \   000042   28           ADD       A,R0
   \   000043   F8           MOV       R0,A
   \   000044   E4           CLR       A
   \   000045   35..         ADDC      A,?V1
   \   000047   F9           MOV       R1,A
   \   000048   74..         MOV       A,#F8X16 & 0xff
   \   00004A   28           ADD       A,R0
   \   00004B   F582         MOV       DPL,A
   \   00004D   74..         MOV       A,#(F8X16 >> 8) & 0xff
   \   00004F   12....       LCALL     ?Subroutine10 & 0xFFFF
    359              }
   \                     ??CrossCallReturnLabel_34:
   \   000052   40E6         JC        ??OLED_ShowChar_2
    360              OLED_Set_Pos(x,y+1);
   \   000054                ; Setup parameters for call to function OLED_Set_Pos
   \   000054   7401         MOV       A,#0x1
   \   000056   25..         ADD       A,?V2
   \   000058   FA           MOV       R2,A
   \   000059   EE           MOV       A,R6
   \   00005A   F9           MOV       R1,A
   \   00005B   12....       LCALL     `??OLED_Set_Pos::?relay`; Banked call to: OLED_Set_Pos
    361              for(i=0;i<8;i++){
   \   00005E   7F00         MOV       R7,#0x0
    362                OLED_WR_Byte(F8X16[c*16+i+8],OLED_DATA);
   \                     ??OLED_ShowChar_3:
   \   000060                ; Setup parameters for call to function OLED_WR_Byte
   \   000060   7C01         MOV       R4,#0x1
   \   000062   7D00         MOV       R5,#0x0
   \   000064   EF           MOV       A,R7
   \   000065   F8           MOV       R0,A
   \   000066   E5..         MOV       A,?V0
   \   000068   28           ADD       A,R0
   \   000069   F8           MOV       R0,A
   \   00006A   E4           CLR       A
   \   00006B   35..         ADDC      A,?V1
   \   00006D   F9           MOV       R1,A
   \   00006E   74..         MOV       A,#(F8X16 + 8) & 0xff
   \   000070   28           ADD       A,R0
   \   000071   F582         MOV       DPL,A
   \   000073   74..         MOV       A,#((F8X16 + 8) >> 8) & 0xff
   \   000075   12....       LCALL     ?Subroutine10 & 0xFFFF
    363              }
    364            }
   \                     ??CrossCallReturnLabel_35:
   \   000078   5031         JNC       ??OLED_ShowChar_4
   \   00007A   80E4         SJMP      ??OLED_ShowChar_3
    365            else{	
    366              OLED_Set_Pos(x,y);
   \                     ??OLED_ShowChar_1:
   \   00007C                ; Setup parameters for call to function OLED_Set_Pos
   \   00007C   EE           MOV       A,R6
   \   00007D   F9           MOV       R1,A
   \   00007E   12....       LCALL     `??OLED_Set_Pos::?relay`; Banked call to: OLED_Set_Pos
    367              for(i=0;i<6;i++)
    368              OLED_WR_Byte(F6x8[c][i],OLED_DATA);     
   \                     ??OLED_ShowChar_5:
   \   000081                ; Setup parameters for call to function OLED_WR_Byte
   \   000081   7C01         MOV       R4,#0x1
   \   000083   7D00         MOV       R5,#0x0
   \   000085   EF           MOV       A,R7
   \   000086   FA           MOV       R2,A
   \   000087   E5..         MOV       A,?V6
   \   000089   75F006       MOV       B,#0x6
   \   00008C   A4           MUL       AB
   \   00008D   F8           MOV       R0,A
   \   00008E   85F0..       MOV       ?V0,B
   \   000091   A9..         MOV       R1,?V0
   \   000093   74..         MOV       A,#F6x8 & 0xff
   \   000095   28           ADD       A,R0
   \   000096   F8           MOV       R0,A
   \   000097   74..         MOV       A,#(F6x8 >> 8) & 0xff
   \   000099   39           ADDC      A,R1
   \   00009A   F9           MOV       R1,A
   \   00009B   E8           MOV       A,R0
   \   00009C   2A           ADD       A,R2
   \   00009D   F582         MOV       DPL,A
   \   00009F   E4           CLR       A
   \   0000A0   39           ADDC      A,R1
   \   0000A1   12....       LCALL     ?Subroutine11 & 0xFFFF
   \                     ??CrossCallReturnLabel_36:
   \   0000A4   0F           INC       R7
   \   0000A5   EF           MOV       A,R7
   \   0000A6   C3           CLR       C
   \   0000A7   9406         SUBB      A,#0x6
   \   0000A9   40D6         JC        ??OLED_ShowChar_5
    369            }
    370          }
   \                     ??OLED_ShowChar_4:
   \   0000AB                REQUIRE ?Subroutine2
   \   0000AB                ; // Fall through to label ?Subroutine2

   \                                 In  segment BANKED_CODE, align 1, keep-with-next
   \                     ?Subroutine2:
   \   000000   7F08         MOV       R7,#0x8
   \   000002   02....       LJMP      ?BANKED_LEAVE_XDATA

   \                                 In  segment BANKED_CODE, align 1, keep-with-next
   \                     ?Subroutine10:
   \   000000   39           ADDC      A,R1
   \   000001   12....       LCALL     ?Subroutine13 & 0xFFFF
   \                     ??CrossCallReturnLabel_40:
   \   000004   0F           INC       R7
   \   000005   EF           MOV       A,R7
   \   000006   C3           CLR       C
   \   000007   9408         SUBB      A,#0x8
   \   000009   22           RET

   \                                 In  segment BANKED_CODE, align 1, keep-with-next
   \                     ?Subroutine11:
   \   000000   12....       LCALL     ?Subroutine13 & 0xFFFF
   \                     ??CrossCallReturnLabel_42:
   \   000003   22           RET

   \                                 In  segment BANKED_CODE, align 1, keep-with-next
   \                     ?Subroutine13:
   \   000000   F583         MOV       DPH,A
   \   000002   E0           MOVX      A,@DPTR
   \   000003   FA           MOV       R2,A
   \   000004   7B00         MOV       R3,#0x0
   \   000006   12....       LCALL     `??OLED_WR_Byte::?relay`; Banked call to: OLED_WR_Byte
   \   000009   22           RET
    371          //m^n函数

   \                                 In  segment BANKED_CODE, align 1, keep-with-next
    372          unsigned long oled_pow(unsigned char m,unsigned char n){
   \                     oled_pow:
   \   000000                REQUIRE ?V0
   \   000000                REQUIRE ?V1
   \   000000                REQUIRE ?V2
   \   000000                REQUIRE ?V3
   \   000000                REQUIRE ?V4
   \   000000                REQUIRE ?V5
   \   000000                REQUIRE ?V6
   \   000000                REQUIRE ?V7
   \   000000   74F0         MOV       A,#-0x10
   \   000002   12....       LCALL     ?BANKED_ENTER_XDATA
   \   000005                ; Saved register size: 16
   \   000005                ; Auto size: 0
   \   000005   E9           MOV       A,R1
   \   000006   FF           MOV       R7,A
   \   000007   EA           MOV       A,R2
   \   000008   FE           MOV       R6,A
    373            unsigned long result=1;	 
   \   000009   75..01       MOV       ?V4,#0x1
   \   00000C   75..00       MOV       ?V5,#0x0
   \   00000F   75..00       MOV       ?V6,#0x0
   \   000012   75..00       MOV       ?V7,#0x0
   \   000015   8010         SJMP      ??oled_pow_0
    374            while(n--)result*=m;
   \                     ??oled_pow_1:
   \   000017   8F..         MOV       ?V0,R7
   \   000019   E4           CLR       A
   \   00001A   F5..         MOV       ?V1,A
   \   00001C   F5..         MOV       ?V2,A
   \   00001E   F5..         MOV       ?V3,A
   \   000020   78..         MOV       R0,#?V4
   \   000022   79..         MOV       R1,#?V0
   \   000024   12....       LCALL     ?L_MUL
   \                     ??oled_pow_0:
   \   000027   EE           MOV       A,R6
   \   000028   F8           MOV       R0,A
   \   000029   74FF         MOV       A,#-0x1
   \   00002B   28           ADD       A,R0
   \   00002C   FE           MOV       R6,A
   \   00002D   04           INC       A
   \   00002E   70E7         JNZ       ??oled_pow_1
    375            return result;
   \   000030   AA..         MOV       R2,?V4
   \   000032   AB..         MOV       R3,?V5
   \   000034   AC..         MOV       R4,?V6
   \   000036   AD..         MOV       R5,?V7
   \   000038   80..         SJMP      ?Subroutine2
    376          }				  
    377          //显示2个数字
    378          //x,y :起点坐标	 
    379          //len :数字的位数
    380          //size:字体大小
    381          //mode:模式	0,填充模式;1,叠加模式
    382          //num:数值(0~4294967295);	 		  

   \                                 In  segment BANKED_CODE, align 1, keep-with-next
    383          void OLED_ShowNum(unsigned char x,unsigned char y,unsigned long num,unsigned char len,unsigned char size2){         	
   \                     OLED_ShowNum:
   \   000000                REQUIRE ?V0
   \   000000                REQUIRE ?V1
   \   000000                REQUIRE ?V2
   \   000000                REQUIRE ?V3
   \   000000                REQUIRE ?V4
   \   000000                REQUIRE ?V5
   \   000000                REQUIRE ?V6
   \   000000                REQUIRE ?V7
   \   000000                REQUIRE ?V8
   \   000000                REQUIRE ?V9
   \   000000                REQUIRE ?V10
   \   000000                REQUIRE ?V11
   \   000000                REQUIRE ?V12
   \   000000                REQUIRE ?V13
   \   000000                REQUIRE ?V14
   \   000000                REQUIRE ?V15
   \   000000   74E8         MOV       A,#-0x18
   \   000002   12....       LCALL     ?BANKED_ENTER_XDATA
   \   000005                ; Saved register size: 24
   \   000005                ; Auto size: 0
   \   000005   89..         MOV       ?V15,R1
   \   000007   8A..         MOV       ?V14,R2
   \   000009   8B..         MOV       ?V13,R3
   \   00000B   8C..         MOV       ?V12,R4
    384            unsigned char t,temp;
    385            unsigned char enshow=0;
   \   00000D   7F00         MOV       R7,#0x0
    386            for(t=0;t<len;t++){
   \   00000F   7E00         MOV       R6,#0x0
   \   000011   7418         MOV       A,#0x18
   \   000013   12....       LCALL     ?XSTACK_DISP0_8
   \   000016   78..         MOV       R0,#?V4
   \   000018   12....       LCALL     ?L_MOV_X
   \   00001B   800E         SJMP      ??OLED_ShowNum_0
    387              temp=(num/oled_pow(10,len-t-1))%10;
    388              if(enshow==0&&t<(len-1)){
    389                if(temp==0){
    390                  OLED_ShowChar(x+(size2/2)*t,y,' ',size2);
    391                  continue;
    392                }
    393                else{
    394                  enshow=1;
   \                     ??OLED_ShowNum_1:
   \   00001D   7F01         MOV       R7,#0x1
    395                }
    396              }
    397              OLED_ShowChar(x+(size2/2)*t,y,temp+'0',size2);
   \                     ??OLED_ShowNum_2:
   \   00001F                ; Setup parameters for call to function OLED_ShowChar
   \   00001F   AC..         MOV       R4,?V12
   \   000021   7430         MOV       A,#0x30
   \   000023   28           ADD       A,R0
   \   000024   FB           MOV       R3,A
   \                     ??OLED_ShowNum_3:
   \   000025   AA..         MOV       R2,?V14
   \   000027   12....       LCALL     `??OLED_ShowChar::?relay`; Banked call to: OLED_ShowChar
   \   00002A   0E           INC       R6
   \                     ??OLED_ShowNum_0:
   \   00002B   EE           MOV       A,R6
   \   00002C   C3           CLR       C
   \   00002D   95..         SUBB      A,?V13
   \   00002F   5066         JNC       ??OLED_ShowNum_4
   \   000031   85....       MOV       ?V0,?V4
   \   000034   85....       MOV       ?V1,?V5
   \   000037   85....       MOV       ?V2,?V6
   \   00003A   85....       MOV       ?V3,?V7
   \   00003D                ; Setup parameters for call to function oled_pow
   \   00003D   E5..         MOV       A,?V13
   \   00003F   C3           CLR       C
   \   000040   9E           SUBB      A,R6
   \   000041   14           DEC       A
   \   000042   FA           MOV       R2,A
   \   000043   790A         MOV       R1,#0xa
   \   000045   12....       LCALL     `??oled_pow::?relay`; Banked call to: oled_pow
   \   000048   8A..         MOV       ?V8,R2
   \   00004A   8B..         MOV       ?V9,R3
   \   00004C   8C..         MOV       ?V10,R4
   \   00004E   8D..         MOV       ?V11,R5
   \   000050   78..         MOV       R0,#?V0
   \   000052   79..         MOV       R1,#?V8
   \   000054   12....       LCALL     ?UL_DIV_MOD
   \   000057   90....       MOV       DPTR,#__Constant_a
   \   00005A   78..         MOV       R0,#?V8
   \   00005C   12....       LCALL     ?L_MOV_X
   \   00005F   78..         MOV       R0,#?V0
   \   000061   79..         MOV       R1,#?V8
   \   000063   12....       LCALL     ?UL_DIV_MOD
   \   000066   E5..         MOV       A,?V8
   \   000068   F8           MOV       R0,A
   \   000069   EE           MOV       A,R6
   \   00006A   F5F0         MOV       B,A
   \   00006C   E5..         MOV       A,?V12
   \   00006E   C3           CLR       C
   \   00006F   13           RRC       A
   \   000070   A4           MUL       AB
   \   000071   25..         ADD       A,?V15
   \   000073   F9           MOV       R1,A
   \   000074   EF           MOV       A,R7
   \   000075   70A8         JNZ       ??OLED_ShowNum_2
   \   000077   EE           MOV       A,R6
   \   000078   FC           MOV       R4,A
   \   000079   E5..         MOV       A,?V13
   \   00007B   24FF         ADD       A,#-0x1
   \   00007D   FA           MOV       R2,A
   \   00007E   E4           CLR       A
   \   00007F   34FF         ADDC      A,#-0x1
   \   000081   FB           MOV       R3,A
   \   000082   C3           CLR       C
   \   000083   EC           MOV       A,R4
   \   000084   9A           SUBB      A,R2
   \   000085   E4           CLR       A
   \   000086   9B           SUBB      A,R3
   \   000087   A2D2         MOV       C,0xD0 /* PSW */.2
   \   000089   65D0         XRL       A,PSW
   \   00008B   33           RLC       A
   \   00008C   5091         JNC       ??OLED_ShowNum_2
   \   00008E   E8           MOV       A,R0
   \   00008F   708C         JNZ       ??OLED_ShowNum_1
   \   000091                ; Setup parameters for call to function OLED_ShowChar
   \   000091   AC..         MOV       R4,?V12
   \   000093   7B20         MOV       R3,#0x20
   \   000095   808E         SJMP      ??OLED_ShowNum_3
    398            }
    399          } 
   \                     ??OLED_ShowNum_4:
   \   000097   7F10         MOV       R7,#0x10
   \   000099   02....       LJMP      ?BANKED_LEAVE_XDATA
    400          //显示一个字符号串

   \                                 In  segment BANKED_CODE, align 1, keep-with-next
    401          void OLED_ShowString(unsigned char x,unsigned char y,unsigned char *chr,unsigned char Char_Size){
   \                     OLED_ShowString:
   \   000000                REQUIRE ?V0
   \   000000                REQUIRE ?V1
   \   000000                REQUIRE ?V2
   \   000000                REQUIRE ?V3
   \   000000   74F4         MOV       A,#-0xc
   \   000002   12....       LCALL     ?BANKED_ENTER_XDATA
   \   000005                ; Saved register size: 12
   \   000005                ; Auto size: 0
   \   000005   89..         MOV       ?V0,R1
   \   000007   8A..         MOV       ?V2,R2
   \   000009   EC           MOV       A,R4
   \   00000A   FE           MOV       R6,A
   \   00000B   ED           MOV       A,R5
   \   00000C   FF           MOV       R7,A
   \   00000D   8B..         MOV       ?V3,R3
    402            unsigned char j=0;
   \   00000F   75..00       MOV       ?V1,#0x0
   \   000012   801D         SJMP      ??OLED_ShowString_0
    403            while (chr[j]!='\0'){
    404              OLED_ShowChar(x,y,chr[j],Char_Size);
   \                     ??OLED_ShowString_1:
   \   000014                ; Setup parameters for call to function OLED_ShowChar
   \   000014   AC..         MOV       R4,?V3
   \   000016   AA..         MOV       R2,?V2
   \   000018   A9..         MOV       R1,?V0
   \   00001A   12....       LCALL     `??OLED_ShowChar::?relay`; Banked call to: OLED_ShowChar
    405              x+=8;
   \   00001D   7408         MOV       A,#0x8
   \   00001F   25..         ADD       A,?V0
   \   000021   F5..         MOV       ?V0,A
    406              if(x>120){
   \   000023   C3           CLR       C
   \   000024   9479         SUBB      A,#0x79
   \   000026   4007         JC        ??OLED_ShowString_2
    407                x=0;
   \   000028   75..00       MOV       ?V0,#0x0
    408                y+=2;
   \   00002B   05..         INC       ?V2
   \   00002D   05..         INC       ?V2
    409              }
    410              j++;
   \                     ??OLED_ShowString_2:
   \   00002F   05..         INC       ?V1
    411            }
   \                     ??OLED_ShowString_0:
   \   000031   A8..         MOV       R0,?V1
   \   000033   EE           MOV       A,R6
   \   000034   28           ADD       A,R0
   \   000035   F582         MOV       DPL,A
   \   000037   E4           CLR       A
   \   000038   3F           ADDC      A,R7
   \   000039   F583         MOV       DPH,A
   \   00003B   E0           MOVX      A,@DPTR
   \   00003C   FB           MOV       R3,A
   \   00003D   70D5         JNZ       ??OLED_ShowString_1
    412          }
   \   00003F   7F04         MOV       R7,#0x4
   \   000041   02....       LJMP      ?BANKED_LEAVE_XDATA
    413          //显示汉字

   \                                 In  segment BANKED_CODE, align 1, keep-with-next
    414          void OLED_ShowCHinese(unsigned char x,unsigned char y,unsigned char no){      			    
   \                     OLED_ShowCHinese:
   \   000000                REQUIRE ?V0
   \   000000                REQUIRE ?V1
   \   000000                REQUIRE ?V2
   \   000000                REQUIRE ?V3
   \   000000                REQUIRE ?V4
   \   000000                REQUIRE ?V5
   \   000000   74F2         MOV       A,#-0xe
   \   000002   12....       LCALL     ?BANKED_ENTER_XDATA
   \   000005                ; Saved register size: 14
   \   000005                ; Auto size: 0
   \   000005   89..         MOV       ?V1,R1
   \   000007   8A..         MOV       ?V2,R2
   \   000009   8B..         MOV       ?V3,R3
    415            unsigned char t,adder=0;
    416            OLED_Set_Pos(x,y);
   \   00000B                ; Setup parameters for call to function OLED_Set_Pos
   \   00000B   12....       LCALL     `??OLED_Set_Pos::?relay`; Banked call to: OLED_Set_Pos
    417            for(t=0;t<16;t++){
   \   00000E   75..00       MOV       ?V0,#0x0
   \   000011   E5..         MOV       A,?V3
   \   000013   F5..         MOV       ?V4,A
   \   000015   75..00       MOV       ?V5,#0x0
   \   000018   7406         MOV       A,#0x6
   \   00001A   78..         MOV       R0,#?V4
   \   00001C   12....       LCALL     ?S_SHL
   \   00001F   74..         MOV       A,#Hzk & 0xff
   \   000021   25..         ADD       A,?V4
   \   000023   FE           MOV       R6,A
   \   000024   74..         MOV       A,#(Hzk >> 8) & 0xff
   \   000026   35..         ADDC      A,?V5
   \   000028   FF           MOV       R7,A
    418              OLED_WR_Byte(Hzk[2*no][t],OLED_DATA);
   \                     ??OLED_ShowCHinese_0:
   \   000029                ; Setup parameters for call to function OLED_WR_Byte
   \   000029   7C01         MOV       R4,#0x1
   \   00002B   7D00         MOV       R5,#0x0
   \   00002D   A8..         MOV       R0,?V0
   \   00002F   EE           MOV       A,R6
   \   000030   28           ADD       A,R0
   \   000031   F582         MOV       DPL,A
   \   000033   E4           CLR       A
   \   000034   3F           ADDC      A,R7
   \   000035   12....       LCALL     ?Subroutine5 & 0xFFFF
    419              adder+=1;
    420            }	
   \                     ??CrossCallReturnLabel_5:
   \   000038   40EF         JC        ??OLED_ShowCHinese_0
    421            OLED_Set_Pos(x,y+1);	
   \   00003A                ; Setup parameters for call to function OLED_Set_Pos
   \   00003A   7401         MOV       A,#0x1
   \   00003C   25..         ADD       A,?V2
   \   00003E   FA           MOV       R2,A
   \   00003F   A9..         MOV       R1,?V1
   \   000041   12....       LCALL     `??OLED_Set_Pos::?relay`; Banked call to: OLED_Set_Pos
    422            for(t=0;t<16;t++){	
   \   000044   75..00       MOV       ?V0,#0x0
    423              OLED_WR_Byte(Hzk[2*no+1][t],OLED_DATA);
   \                     ??OLED_ShowCHinese_1:
   \   000047                ; Setup parameters for call to function OLED_WR_Byte
   \   000047   7C01         MOV       R4,#0x1
   \   000049   7D00         MOV       R5,#0x0
   \   00004B   A8..         MOV       R0,?V0
   \   00004D   EE           MOV       A,R6
   \   00004E   28           ADD       A,R0
   \   00004F   F8           MOV       R0,A
   \   000050   E4           CLR       A
   \   000051   3F           ADDC      A,R7
   \   000052   F9           MOV       R1,A
   \   000053   E8           MOV       A,R0
   \   000054   2420         ADD       A,#0x20
   \   000056   F582         MOV       DPL,A
   \   000058   E4           CLR       A
   \   000059   39           ADDC      A,R1
   \   00005A   12....       LCALL     ?Subroutine5 & 0xFFFF
    424              adder+=1;
    425            }
   \                     ??CrossCallReturnLabel_6:
   \   00005D   40E8         JC        ??OLED_ShowCHinese_1
    426          }
   \   00005F   7F06         MOV       R7,#0x6
   \   000061   02....       LJMP      ?BANKED_LEAVE_XDATA

   \                                 In  segment BANKED_CODE, align 1, keep-with-next
   \                     ?Subroutine5:
   \   000000   12....       LCALL     ?Subroutine13 & 0xFFFF
   \                     ??CrossCallReturnLabel_41:
   \   000003   05..         INC       ?V0
   \   000005   E5..         MOV       A,?V0
   \   000007   C3           CLR       C
   \   000008   9410         SUBB      A,#0x10
   \   00000A   22           RET
    427          /***********功能描述：显示显示BMP图片128×64起始点坐标(x,y),x的范围0～127，y为页的范围0～7*****************/

   \                                 In  segment BANKED_CODE, align 1, keep-with-next
    428          void OLED_DrawBMP(unsigned char x0, unsigned char y0,unsigned char x1, unsigned char y1,unsigned char BMP[]){ 	
   \                     OLED_DrawBMP:
   \   000000                REQUIRE ?V0
   \   000000                REQUIRE ?V1
   \   000000                REQUIRE ?V2
   \   000000                REQUIRE ?V3
   \   000000                REQUIRE ?V4
   \   000000                REQUIRE ?V5
   \   000000                REQUIRE ?V6
   \   000000                REQUIRE ?V7
   \   000000   74F0         MOV       A,#-0x10
   \   000002   12....       LCALL     ?BANKED_ENTER_XDATA
   \   000005                ; Saved register size: 16
   \   000005                ; Auto size: 0
   \   000005   89..         MOV       ?V3,R1
   \   000007   8B..         MOV       ?V5,R3
   \   000009   8C..         MOV       ?V6,R4
    429            unsigned int j=0;
   \   00000B   75..00       MOV       ?V0,#0x0
   \   00000E   75..00       MOV       ?V1,#0x0
    430            unsigned char x,y;
    431            if(y1%8==0){
    432              y=y1/8;
    433            }
    434            else{
    435              y=y1/8+1;
    436            }
    437            for(y=y0;y<y1;y++){
   \   000011   8A..         MOV       ?V2,R2
   \   000013   7410         MOV       A,#0x10
   \   000015   12....       LCALL     ?XSTACK_DISP0_8
   \   000018   E0           MOVX      A,@DPTR
   \   000019   F8           MOV       R0,A
   \   00001A   A3           INC       DPTR
   \   00001B   E0           MOVX      A,@DPTR
   \   00001C   F9           MOV       R1,A
   \   00001D   E8           MOV       A,R0
   \   00001E   FE           MOV       R6,A
   \   00001F   E9           MOV       A,R1
   \   000020   FF           MOV       R7,A
   \   000021   8022         SJMP      ??OLED_DrawBMP_0
    438              OLED_Set_Pos(x0,y);
    439              for(x=x0;x<x1;x++){      
    440                OLED_WR_Byte(BMP[j++],OLED_DATA);	    	
   \                     ??OLED_DrawBMP_1:
   \   000023                ; Setup parameters for call to function OLED_WR_Byte
   \   000023   7C01         MOV       R4,#0x1
   \   000025   7D00         MOV       R5,#0x0
   \   000027   EE           MOV       A,R6
   \   000028   25..         ADD       A,?V0
   \   00002A   F582         MOV       DPL,A
   \   00002C   EF           MOV       A,R7
   \   00002D   35..         ADDC      A,?V1
   \   00002F   12....       LCALL     ?Subroutine11 & 0xFFFF
    441              }
   \                     ??CrossCallReturnLabel_37:
   \   000032   05..         INC       ?V0
   \   000034   E5..         MOV       A,?V0
   \   000036   7002         JNZ       ??OLED_DrawBMP_2
   \   000038   05..         INC       ?V1
   \                     ??OLED_DrawBMP_2:
   \   00003A   05..         INC       ?V7
   \                     ??OLED_DrawBMP_3:
   \   00003C   E5..         MOV       A,?V7
   \   00003E   C3           CLR       C
   \   00003F   95..         SUBB      A,?V5
   \   000041   40E0         JC        ??OLED_DrawBMP_1
   \   000043   05..         INC       ?V2
   \                     ??OLED_DrawBMP_0:
   \   000045   E5..         MOV       A,?V2
   \   000047   C3           CLR       C
   \   000048   95..         SUBB      A,?V6
   \   00004A   500C         JNC       ??OLED_DrawBMP_4
   \   00004C                ; Setup parameters for call to function OLED_Set_Pos
   \   00004C   AA..         MOV       R2,?V2
   \   00004E   A9..         MOV       R1,?V3
   \   000050   12....       LCALL     `??OLED_Set_Pos::?relay`; Banked call to: OLED_Set_Pos
   \   000053   85....       MOV       ?V7,?V3
   \   000056   80E4         SJMP      ??OLED_DrawBMP_3
    442            }
    443          } 
   \                     ??OLED_DrawBMP_4:
   \   000058   02....       LJMP      ?Subroutine2 & 0xFFFF
    444          
    445          //初始化SSD1306					    

   \                                 In  segment BANKED_CODE, align 1, keep-with-next
    446          void OLED_Init(void){ 	 
   \                     OLED_Init:
   \   000000   C082         PUSH      DPL
   \   000002   C083         PUSH      DPH
   \   000004                ; Saved register size: 2
   \   000004                ; Auto size: 0
    447              OLED_WR_Byte(0xAE,OLED_CMD);//--display off
   \   000004                ; Setup parameters for call to function OLED_WR_Byte
   \   000004   7C00         MOV       R4,#0x0
   \   000006   7D00         MOV       R5,#0x0
   \   000008   7AAE         MOV       R2,#-0x52
   \   00000A   12....       LCALL     ?Subroutine7 & 0xFFFF
    448              OLED_WR_Byte(0x00,OLED_CMD);//---set low column address
   \                     ??CrossCallReturnLabel_9:
   \   00000D   12....       LCALL     ?Subroutine4 & 0xFFFF
    449              OLED_WR_Byte(0x10,OLED_CMD);//---set high column address
    450              OLED_WR_Byte(0x40,OLED_CMD);//--set start line address  
   \                     ??CrossCallReturnLabel_4:
   \   000010   7A40         MOV       R2,#0x40
   \   000012   12....       LCALL     ?Subroutine9 & 0xFFFF
    451              OLED_WR_Byte(0xB0,OLED_CMD);//--set page address
   \                     ??CrossCallReturnLabel_15:
   \   000015   7AB0         MOV       R2,#-0x50
   \   000017   12....       LCALL     ?Subroutine9 & 0xFFFF
    452              OLED_WR_Byte(0x81,OLED_CMD); // contract control
   \                     ??CrossCallReturnLabel_16:
   \   00001A   7A81         MOV       R2,#-0x7f
   \   00001C   12....       LCALL     ?Subroutine9 & 0xFFFF
    453              OLED_WR_Byte(0xFF,OLED_CMD);//--128   
   \                     ??CrossCallReturnLabel_17:
   \   00001F   7AFF         MOV       R2,#-0x1
   \   000021   12....       LCALL     ?Subroutine9 & 0xFFFF
    454              OLED_WR_Byte(0xA1,OLED_CMD);//set segment remap 
   \                     ??CrossCallReturnLabel_18:
   \   000024   7AA1         MOV       R2,#-0x5f
   \   000026   12....       LCALL     ?Subroutine9 & 0xFFFF
    455              OLED_WR_Byte(0xA6,OLED_CMD);//--normal / reverse
   \                     ??CrossCallReturnLabel_19:
   \   000029   7AA6         MOV       R2,#-0x5a
   \   00002B   12....       LCALL     ?Subroutine9 & 0xFFFF
    456              OLED_WR_Byte(0xA8,OLED_CMD);//--set multiplex ratio(1 to 64)
   \                     ??CrossCallReturnLabel_20:
   \   00002E   7AA8         MOV       R2,#-0x58
   \   000030   12....       LCALL     ?Subroutine9 & 0xFFFF
    457              OLED_WR_Byte(0x3F,OLED_CMD);//--1/32 duty
   \                     ??CrossCallReturnLabel_21:
   \   000033   7A3F         MOV       R2,#0x3f
   \   000035   12....       LCALL     ?Subroutine9 & 0xFFFF
    458              OLED_WR_Byte(0xC8,OLED_CMD);//Com scan direction
   \                     ??CrossCallReturnLabel_22:
   \   000038   7AC8         MOV       R2,#-0x38
   \   00003A   12....       LCALL     ?Subroutine9 & 0xFFFF
    459              OLED_WR_Byte(0xD3,OLED_CMD);//-set display offset
   \                     ??CrossCallReturnLabel_23:
   \   00003D   7AD3         MOV       R2,#-0x2d
   \   00003F   12....       LCALL     ?Subroutine7 & 0xFFFF
    460              OLED_WR_Byte(0x00,OLED_CMD);//
   \                     ??CrossCallReturnLabel_10:
   \   000042   12....       LCALL     ?Subroutine9 & 0xFFFF
    461          
    462              OLED_WR_Byte(0xD5,OLED_CMD);//set osc division
   \                     ??CrossCallReturnLabel_24:
   \   000045   7AD5         MOV       R2,#-0x2b
   \   000047   12....       LCALL     ?Subroutine9 & 0xFFFF
    463              OLED_WR_Byte(0x80,OLED_CMD);//
   \                     ??CrossCallReturnLabel_25:
   \   00004A   7A80         MOV       R2,#-0x80
   \   00004C   12....       LCALL     ?Subroutine9 & 0xFFFF
    464          
    465              OLED_WR_Byte(0xD8,OLED_CMD);//set area color mode off
   \                     ??CrossCallReturnLabel_26:
   \   00004F   7AD8         MOV       R2,#-0x28
   \   000051   12....       LCALL     ?Subroutine9 & 0xFFFF
    466              OLED_WR_Byte(0x05,OLED_CMD);//
   \                     ??CrossCallReturnLabel_27:
   \   000054   7A05         MOV       R2,#0x5
   \   000056   12....       LCALL     ?Subroutine9 & 0xFFFF
    467          
    468              OLED_WR_Byte(0xD9,OLED_CMD);//Set Pre-Charge Period
   \                     ??CrossCallReturnLabel_28:
   \   000059   7AD9         MOV       R2,#-0x27
   \   00005B   12....       LCALL     ?Subroutine9 & 0xFFFF
    469              OLED_WR_Byte(0xF1,OLED_CMD);//
   \                     ??CrossCallReturnLabel_29:
   \   00005E   7AF1         MOV       R2,#-0xf
   \   000060   12....       LCALL     ?Subroutine9 & 0xFFFF
    470          
    471              OLED_WR_Byte(0xDA,OLED_CMD);//set com pin configuartion
   \                     ??CrossCallReturnLabel_30:
   \   000063   7ADA         MOV       R2,#-0x26
   \   000065   12....       LCALL     ?Subroutine9 & 0xFFFF
    472              OLED_WR_Byte(0x12,OLED_CMD);//
   \                     ??CrossCallReturnLabel_31:
   \   000068   7A12         MOV       R2,#0x12
   \   00006A   12....       LCALL     ?Subroutine9 & 0xFFFF
    473          
    474              OLED_WR_Byte(0xDB,OLED_CMD);//set Vcomh
   \                     ??CrossCallReturnLabel_32:
   \   00006D   7ADB         MOV       R2,#-0x25
   \   00006F   12....       LCALL     ?Subroutine9 & 0xFFFF
    475              OLED_WR_Byte(0x30,OLED_CMD);//
   \                     ??CrossCallReturnLabel_33:
   \   000072   7A30         MOV       R2,#0x30
   \   000074   7B00         MOV       R3,#0x0
   \   000076   12....       LCALL     `??OLED_WR_Byte::?relay`; Banked call to: OLED_WR_Byte
    476          
    477              OLED_WR_Byte(0x8D,OLED_CMD);//set charge pump enable
   \   000079                ; Setup parameters for call to function OLED_WR_Byte
   \   000079   02....       LJMP      ?Subroutine1 & 0xFFFF
    478              OLED_WR_Byte(0x14,OLED_CMD);//
    479          
    480              OLED_WR_Byte(0xAF,OLED_CMD);//--turn on oled panel
    481          }  

   \                                 In  segment BANKED_CODE, align 1, keep-with-next
   \                     ?Subroutine7:
   \   000000   7B00         MOV       R3,#0x0
   \   000002   12....       LCALL     ?Subroutine14 & 0xFFFF
   \                     ??CrossCallReturnLabel_44:
   \   000005   22           RET

   \                                 In  segment XDATA_ID, align 1, keep-with-next
   \                     `?<Initializer for Hzk>`:
   \   000000   00           DB 0
   \   000001   00           DB 0
   \   000002   F0           DB 240
   \   000003   10           DB 16
   \   000004   10           DB 16
   \   000005   10           DB 16
   \   000006   10           DB 16
   \   000007   FF           DB 255
   \   000008   10           DB 16
   \   000009   10           DB 16
   \   00000A   10           DB 16
   \   00000B   10           DB 16
   \   00000C   F0           DB 240
   \   00000D   00           DB 0
   \   00000E   00           DB 0
   \   00000F   00           DB 0
   \   000010   00           DB 0
   \   000011   00           DB 0
   \   000012   00           DB 0
   \   000013   00           DB 0
   \   000014   00           DB 0
   \   000015   00           DB 0
   \   000016   00           DB 0
   \   000017   00           DB 0
   \   000018   00           DB 0
   \   000019   00           DB 0
   \   00001A   00           DB 0
   \   00001B   00           DB 0
   \   00001C   00           DB 0
   \   00001D   00           DB 0
   \   00001E   00           DB 0
   \   00001F   00           DB 0
   \   000020   00           DB 0
   \   000021   00           DB 0
   \   000022   0F           DB 15
   \   000023   04           DB 4
   \   000024   04           DB 4
   \   000025   04           DB 4
   \   000026   04           DB 4
   \   000027   FF           DB 255
   \   000028   04           DB 4
   \   000029   04           DB 4
   \   00002A   04           DB 4
   \   00002B   04           DB 4
   \   00002C   0F           DB 15
   \   00002D   00           DB 0
   \   00002E   00           DB 0
   \   00002F   00           DB 0
   \   000030   00           DB 0
   \   000031   00           DB 0
   \   000032   00           DB 0
   \   000033   00           DB 0
   \   000034   00           DB 0
   \   000035   00           DB 0
   \   000036   00           DB 0
   \   000037   00           DB 0
   \   000038   00           DB 0
   \   000039   00           DB 0
   \   00003A   00           DB 0
   \   00003B   00           DB 0
   \   00003C   00           DB 0
   \   00003D   00           DB 0
   \   00003E   00           DB 0
   \   00003F   00           DB 0
   \   000040   40           DB 64
   \   000041   40           DB 64
   \   000042   40           DB 64
   \   000043   5F           DB 95
   \   000044   55           DB 85
   \   000045   55           DB 85
   \   000046   55           DB 85
   \   000047   75           DB 117
   \   000048   55           DB 85
   \   000049   55           DB 85
   \   00004A   55           DB 85
   \   00004B   5F           DB 95
   \   00004C   40           DB 64
   \   00004D   40           DB 64
   \   00004E   40           DB 64
   \   00004F   00           DB 0
   \   000050   00           DB 0
   \   000051   00           DB 0
   \   000052   00           DB 0
   \   000053   00           DB 0
   \   000054   00           DB 0
   \   000055   00           DB 0
   \   000056   00           DB 0
   \   000057   00           DB 0
   \   000058   00           DB 0
   \   000059   00           DB 0
   \   00005A   00           DB 0
   \   00005B   00           DB 0
   \   00005C   00           DB 0
   \   00005D   00           DB 0
   \   00005E   00           DB 0
   \   00005F   00           DB 0
   \   000060   00           DB 0
   \   000061   40           DB 64
   \   000062   20           DB 32
   \   000063   0F           DB 15
   \   000064   09           DB 9
   \   000065   49           DB 73
   \   000066   89           DB 137
   \   000067   79           DB 121
   \   000068   09           DB 9
   \   000069   09           DB 9
   \   00006A   09           DB 9
   \   00006B   0F           DB 15
   \   00006C   20           DB 32
   \   00006D   40           DB 64
   \   00006E   00           DB 0
   \   00006F   00           DB 0
   \   000070   00           DB 0
   \   000071   00           DB 0
   \   000072   00           DB 0
   \   000073   00           DB 0
   \   000074   00           DB 0
   \   000075   00           DB 0
   \   000076   00           DB 0
   \   000077   00           DB 0
   \   000078   00           DB 0
   \   000079   00           DB 0
   \   00007A   00           DB 0
   \   00007B   00           DB 0
   \   00007C   00           DB 0
   \   00007D   00           DB 0
   \   00007E   00           DB 0
   \   00007F   00           DB 0
   \   000080   00           DB 0
   \   000081   FE           DB 254
   \   000082   02           DB 2
   \   000083   42           DB 66
   \   000084   4A           DB 74
   \   000085   CA           DB 202
   \   000086   4A           DB 74
   \   000087   4A           DB 74
   \   000088   CA           DB 202
   \   000089   4A           DB 74
   \   00008A   4A           DB 74
   \   00008B   42           DB 66
   \   00008C   02           DB 2
   \   00008D   FE           DB 254
   \   00008E   00           DB 0
   \   00008F   00           DB 0
   \   000090   00           DB 0
   \   000091   00           DB 0
   \   000092   00           DB 0
   \   000093   00           DB 0
   \   000094   00           DB 0
   \   000095   00           DB 0
   \   000096   00           DB 0
   \   000097   00           DB 0
   \   000098   00           DB 0
   \   000099   00           DB 0
   \   00009A   00           DB 0
   \   00009B   00           DB 0
   \   00009C   00           DB 0
   \   00009D   00           DB 0
   \   00009E   00           DB 0
   \   00009F   00           DB 0
   \   0000A0   00           DB 0
   \   0000A1   FF           DB 255
   \   0000A2   40           DB 64
   \   0000A3   50           DB 80
   \   0000A4   4C           DB 76
   \   0000A5   43           DB 67
   \   0000A6   40           DB 64
   \   0000A7   40           DB 64
   \   0000A8   4F           DB 79
   \   0000A9   50           DB 80
   \   0000AA   50           DB 80
   \   0000AB   5C           DB 92
   \   0000AC   40           DB 64
   \   0000AD   FF           DB 255
   \   0000AE   00           DB 0
   \   0000AF   00           DB 0
   \   0000B0   00           DB 0
   \   0000B1   00           DB 0
   \   0000B2   00           DB 0
   \   0000B3   00           DB 0
   \   0000B4   00           DB 0
   \   0000B5   00           DB 0
   \   0000B6   00           DB 0
   \   0000B7   00           DB 0
   \   0000B8   00           DB 0
   \   0000B9   00           DB 0
   \   0000BA   00           DB 0
   \   0000BB   00           DB 0
   \   0000BC   00           DB 0
   \   0000BD   00           DB 0
   \   0000BE   00           DB 0
   \   0000BF   00           DB 0
   \   0000C0   00           DB 0
   \   0000C1   00           DB 0
   \   0000C2   F8           DB 248
   \   0000C3   88           DB 136
   \   0000C4   88           DB 136
   \   0000C5   88           DB 136
   \   0000C6   88           DB 136
   \   0000C7   FF           DB 255
   \   0000C8   88           DB 136
   \   0000C9   88           DB 136
   \   0000CA   88           DB 136
   \   0000CB   88           DB 136
   \   0000CC   F8           DB 248
   \   0000CD   00           DB 0
   \   0000CE   00           DB 0
   \   0000CF   00           DB 0
   \   0000D0   00           DB 0
   \   0000D1   00           DB 0
   \   0000D2   00           DB 0
   \   0000D3   00           DB 0
   \   0000D4   00           DB 0
   \   0000D5   00           DB 0
   \   0000D6   00           DB 0
   \   0000D7   00           DB 0
   \   0000D8   00           DB 0
   \   0000D9   00           DB 0
   \   0000DA   00           DB 0
   \   0000DB   00           DB 0
   \   0000DC   00           DB 0
   \   0000DD   00           DB 0
   \   0000DE   00           DB 0
   \   0000DF   00           DB 0
   \   0000E0   00           DB 0
   \   0000E1   00           DB 0
   \   0000E2   1F           DB 31
   \   0000E3   08           DB 8
   \   0000E4   08           DB 8
   \   0000E5   08           DB 8
   \   0000E6   08           DB 8
   \   0000E7   7F           DB 127
   \   0000E8   88           DB 136
   \   0000E9   88           DB 136
   \   0000EA   88           DB 136
   \   0000EB   88           DB 136
   \   0000EC   9F           DB 159
   \   0000ED   80           DB 128
   \   0000EE   F0           DB 240
   \   0000EF   00           DB 0
   \   0000F0   00           DB 0
   \   0000F1   00           DB 0
   \   0000F2   00           DB 0
   \   0000F3   00           DB 0
   \   0000F4   00           DB 0
   \   0000F5   00           DB 0
   \   0000F6   00           DB 0
   \   0000F7   00           DB 0
   \   0000F8   00           DB 0
   \   0000F9   00           DB 0
   \   0000FA   00           DB 0
   \   0000FB   00           DB 0
   \   0000FC   00           DB 0
   \   0000FD   00           DB 0
   \   0000FE   00           DB 0
   \   0000FF   00           DB 0
   \   000100   80           DB 128
   \   000101   82           DB 130
   \   000102   82           DB 130
   \   000103   82           DB 130
   \   000104   82           DB 130
   \   000105   82           DB 130
   \   000106   82           DB 130
   \   000107   E2           DB 226
   \   000108   A2           DB 162
   \   000109   92           DB 146
   \   00010A   8A           DB 138
   \   00010B   86           DB 134
   \   00010C   82           DB 130
   \   00010D   80           DB 128
   \   00010E   80           DB 128
   \   00010F   00           DB 0
   \   000110   00           DB 0
   \   000111   00           DB 0
   \   000112   00           DB 0
   \   000113   00           DB 0
   \   000114   00           DB 0
   \   000115   00           DB 0
   \   000116   00           DB 0
   \   000117   00           DB 0
   \   000118   00           DB 0
   \   000119   00           DB 0
   \   00011A   00           DB 0
   \   00011B   00           DB 0
   \   00011C   00           DB 0
   \   00011D   00           DB 0
   \   00011E   00           DB 0
   \   00011F   00           DB 0
   \   000120   00           DB 0
   \   000121   00           DB 0
   \   000122   00           DB 0
   \   000123   00           DB 0
   \   000124   00           DB 0
   \   000125   40           DB 64
   \   000126   80           DB 128
   \   000127   7F           DB 127
   \   000128   00           DB 0
   \   000129   00           DB 0
   \   00012A   00           DB 0
   \   00012B   00           DB 0
   \   00012C   00           DB 0
   \   00012D   00           DB 0
   \   00012E   00           DB 0
   \   00012F   00           DB 0
   \   000130   00           DB 0
   \   000131   00           DB 0
   \   000132   00           DB 0
   \   000133   00           DB 0
   \   000134   00           DB 0
   \   000135   00           DB 0
   \   000136   00           DB 0
   \   000137   00           DB 0
   \   000138   00           DB 0
   \   000139   00           DB 0
   \   00013A   00           DB 0
   \   00013B   00           DB 0
   \   00013C   00           DB 0
   \   00013D   00           DB 0
   \   00013E   00           DB 0
   \   00013F   00           DB 0
   \   000140   24           DB 36
   \   000141   24           DB 36
   \   000142   A4           DB 164
   \   000143   FE           DB 254
   \   000144   A3           DB 163
   \   000145   22           DB 34
   \   000146   00           DB 0
   \   000147   22           DB 34
   \   000148   CC           DB 204
   \   000149   00           DB 0
   \   00014A   00           DB 0
   \   00014B   FF           DB 255
   \   00014C   00           DB 0
   \   00014D   00           DB 0
   \   00014E   00           DB 0
   \   00014F   00           DB 0
   \   000150   00           DB 0
   \   000151   00           DB 0
   \   000152   00           DB 0
   \   000153   00           DB 0
   \   000154   00           DB 0
   \   000155   00           DB 0
   \   000156   00           DB 0
   \   000157   00           DB 0
   \   000158   00           DB 0
   \   000159   00           DB 0
   \   00015A   00           DB 0
   \   00015B   00           DB 0
   \   00015C   00           DB 0
   \   00015D   00           DB 0
   \   00015E   00           DB 0
   \   00015F   00           DB 0
   \   000160   08           DB 8
   \   000161   06           DB 6
   \   000162   01           DB 1
   \   000163   FF           DB 255
   \   000164   00           DB 0
   \   000165   01           DB 1
   \   000166   04           DB 4
   \   000167   04           DB 4
   \   000168   04           DB 4
   \   000169   04           DB 4
   \   00016A   04           DB 4
   \   00016B   FF           DB 255
   \   00016C   02           DB 2
   \   00016D   02           DB 2
   \   00016E   02           DB 2
   \   00016F   00           DB 0
   \   000170   00           DB 0
   \   000171   00           DB 0
   \   000172   00           DB 0
   \   000173   00           DB 0
   \   000174   00           DB 0
   \   000175   00           DB 0
   \   000176   00           DB 0
   \   000177   00           DB 0
   \   000178   00           DB 0
   \   000179   00           DB 0
   \   00017A   00           DB 0
   \   00017B   00           DB 0
   \   00017C   00           DB 0
   \   00017D   00           DB 0
   \   00017E   00           DB 0
   \   00017F   00           DB 0
   \   000180   10           DB 16
   \   000181   10           DB 16
   \   000182   10           DB 16
   \   000183   FF           DB 255
   \   000184   10           DB 16
   \   000185   90           DB 144
   \   000186   08           DB 8
   \   000187   88           DB 136
   \   000188   88           DB 136
   \   000189   88           DB 136
   \   00018A   FF           DB 255
   \   00018B   88           DB 136
   \   00018C   88           DB 136
   \   00018D   88           DB 136
   \   00018E   08           DB 8
   \   00018F   00           DB 0
   \   000190   00           DB 0
   \   000191   00           DB 0
   \   000192   00           DB 0
   \   000193   00           DB 0
   \   000194   00           DB 0
   \   000195   00           DB 0
   \   000196   00           DB 0
   \   000197   00           DB 0
   \   000198   00           DB 0
   \   000199   00           DB 0
   \   00019A   00           DB 0
   \   00019B   00           DB 0
   \   00019C   00           DB 0
   \   00019D   00           DB 0
   \   00019E   00           DB 0
   \   00019F   00           DB 0
   \   0001A0   04           DB 4
   \   0001A1   44           DB 68
   \   0001A2   82           DB 130
   \   0001A3   7F           DB 127
   \   0001A4   01           DB 1
   \   0001A5   80           DB 128
   \   0001A6   80           DB 128
   \   0001A7   40           DB 64
   \   0001A8   43           DB 67
   \   0001A9   2C           DB 44
   \   0001AA   10           DB 16
   \   0001AB   28           DB 40
   \   0001AC   46           DB 70
   \   0001AD   81           DB 129
   \   0001AE   80           DB 128
   \   0001AF   00           DB 0
   \   0001B0   00           DB 0
   \   0001B1   00           DB 0
   \   0001B2   00           DB 0
   \   0001B3   00           DB 0
   \   0001B4   00           DB 0
   \   0001B5   00           DB 0
   \   0001B6   00           DB 0
   \   0001B7   00           DB 0
   \   0001B8   00           DB 0
   \   0001B9   00           DB 0
   \   0001BA   00           DB 0
   \   0001BB   00           DB 0
   \   0001BC   00           DB 0
   \   0001BD   00           DB 0
   \   0001BE   00           DB 0
   \   0001BF   00           DB 0

   \                                 In  segment XDATA_ROM_C, align 1
   \                     __Constant_a:
   \   000000   0A000000     DD 10

   Maximum stack usage in bytes:

   ISTACK XSTACK Function
   ------ ------ --------
      0      0   Delay_1ms
      0      0   Delay_50ms
      0      9   OLED_Clear
        0      9   -> OLED_WR_Byte
      2      0   OLED_Display_Off
        2      0   -> OLED_WR_Byte
      2      0   OLED_Display_On
        2      0   -> OLED_WR_Byte
      0     18   OLED_DrawBMP
        0     16   -> OLED_Set_Pos
        0     16   -> OLED_WR_Byte
      2      0   OLED_Init
        2      0   -> OLED_WR_Byte
      0      9   OLED_On
        0      9   -> OLED_WR_Byte
      0     25   OLED_Set_Pos
        0      9   -> OLED_WR_Byte
      0     14   OLED_ShowCHinese
        0     14   -> OLED_Set_Pos
        0     14   -> OLED_WR_Byte
      0     40   OLED_ShowChar
        0     16   -> OLED_Set_Pos
        0     16   -> OLED_WR_Byte
      0     28   OLED_ShowNum
        0     24   -> OLED_ShowChar
        0     24   -> oled_pow
      0     12   OLED_ShowString
        0     12   -> OLED_ShowChar
      2     16   OLED_WR_Byte
        2      0   -> Write_IIC_Command
        2      0   -> Write_IIC_Data
      0      9   Write_IIC_Command
        0      9   -> OLED_SendByte
        0      9   -> OLED_Start
        0      9   -> OLED_Stop
      0      9   Write_IIC_Data
        0      9   -> OLED_SendByte
        0      9   -> OLED_Start
        0      9   -> OLED_Stop
      0      9   fill_picture
        0      9   -> OLED_WR_Byte
      0     40   oled_pow


   Segment part sizes:

   Bytes  Function/Label
   -----  --------------
     448  ?<Initializer for Hzk>
       5  ??Subroutine16_0
       5  ??Subroutine17_0
       7  ??Subroutine18_0
       8  ??Subroutine19_0
      11  ?Subroutine0
      16  ?Subroutine1
      10  ?Subroutine10
       4  ?Subroutine11
      11  ?Subroutine12
      10  ?Subroutine13
       6  ?Subroutine14
       2  ?Subroutine15
       5  ?Subroutine2
      21  ?Subroutine3
       8  ?Subroutine4
      11  ?Subroutine5
      11  ?Subroutine6
       6  ?Subroutine7
       5  ?Subroutine8
       4  ?Subroutine9
      19  Delay_1ms
      17  Delay_50ms
     552  F6x8
    1520  F8X16
     448  Hzk
      32  OLED_Clear
      17  OLED_Display_Off
       6  OLED_Display_On
      91  OLED_DrawBMP
     124  OLED_Init
      33  OLED_On
      43  OLED_Set_Pos
     100  OLED_ShowCHinese
     171  OLED_ShowChar
     156  OLED_ShowNum
      68  OLED_ShowString
      23  OLED_WR_Byte
      13  Write_IIC_Command
      13  Write_IIC_Data
       4  __Constant_a
      34  fill_picture
      58  oled_pow
     108  -- Other

 
 1 184 bytes in segment BANKED_CODE
   108 bytes in segment BANK_RELAYS
   448 bytes in segment XDATA_I
   448 bytes in segment XDATA_ID
 2 076 bytes in segment XDATA_ROM_C
 
   556 bytes of CODE     memory
 2 072 bytes of CONST    memory (+ 4 bytes shared)
 1 184 bytes of HUGECODE memory
   448 bytes of XDATA    memory

Errors: none
Warnings: none
