///////////////////////////////////////////////////////////////////////////////
//
// IAR C/C++ Compiler V10.30.1.6000 for 8051              31/Oct/2019  09:20:55
// Copyright 2004-2018 IAR Systems AB.
// PC-locked license - IAR Embedded Workbench for 8051
//
//    Core               =  plain
//    Code model         =  banked
//    Data model         =  large
//    Calling convention =  xdata reentrant
//    Constant location  =  data_rom
//    Dptr setup         =  1,16
//                          
//    Source file        =  
//        C:\Users\hhhho\Desktop\Z-Stack1.2.2a-spp-v001-AD\Projects\zstack\Prj\SampleApp\Source\OLED.c
//    Command line       =  
//        -f C:\Users\hhhho\AppData\Local\Temp\EWD483.tmp
//        (C:\Users\hhhho\Desktop\Z-Stack1.2.2a-spp-v001-AD\Projects\zstack\Prj\SampleApp\Source\OLED.c
//        -D SECURE=1 -D xNV_INIT -D xNV_RESTORE -D xPOWER_SAVING -D
//        NWK_AUTO_POLL -D ZTOOL_P1 -D LCD_SUPPORTED=FALSE -D
//        MULTICAST_ENABLED=FALSE -D FEATURE_SYSTEM_STATS -lC
//        C:\Users\hhhho\Desktop\Z-Stack1.2.2a-spp-v001-AD\Projects\zstack\Prj\SampleApp\CC2530DB\EndDeviceEB\List
//        -lA
//        C:\Users\hhhho\Desktop\Z-Stack1.2.2a-spp-v001-AD\Projects\zstack\Prj\SampleApp\CC2530DB\EndDeviceEB\List
//        --diag_suppress Pe001,Pa010 -o
//        C:\Users\hhhho\Desktop\Z-Stack1.2.2a-spp-v001-AD\Projects\zstack\Prj\SampleApp\CC2530DB\EndDeviceEB\Obj
//        -e --debug --core=plain --dptr=16,1 --data_model=large
//        --code_model=banked --calling_convention=xdata_reentrant
//        --place_constants=data_rom --nr_virtual_regs 16 -f
//        C:\Users\hhhho\Desktop\Z-Stack1.2.2a-spp-v001-AD\Projects\zstack\Prj\SampleApp\CC2530DB\..\..\..\Tools\CC2530DB\f8wEndev.cfg
//        (-DCPU32MHZ -DROOT=__near_func -DMAC_CFG_TX_DATA_MAX=3
//        -DMAC_CFG_TX_MAX=6 -DMAC_CFG_RX_MAX=3) -f
//        C:\Users\hhhho\Desktop\Z-Stack1.2.2a-spp-v001-AD\Projects\zstack\Prj\SampleApp\CC2530DB\..\..\..\Tools\CC2530DB\f8wConfig.cfg
//        (-DZIGBEEPRO -DSECURE=1 -DZG_SECURE_DYNAMIC=0 -DREFLECTOR
//        -DDEFAULT_CHANLIST=0x00000800 -DZDAPP_CONFIG_PAN_ID=0xFFFF
//        -DNWK_START_DELAY=100 -DEXTENDED_JOINING_RANDOM_MASK=0x007F
//        -DBEACON_REQUEST_DELAY=100 -DBEACON_REQ_DELAY_MASK=0x00FF
//        -DLINK_STATUS_JITTER_MASK=0x007F -DROUTE_EXPIRY_TIME=30
//        -DAPSC_ACK_WAIT_DURATION_POLLED=3000 -DNWK_INDIRECT_MSG_TIMEOUT=7
//        -DMAX_RREQ_ENTRIES=8 -DAPSC_MAX_FRAME_RETRIES=3
//        -DNWK_MAX_DATA_RETRIES=2 -DMAX_POLL_FAILURE_RETRIES=2 -DMAX_BCAST=9
//        -DAPS_MAX_GROUPS=16 -DMAX_RTG_ENTRIES=40 -DNWK_MAX_BINDING_ENTRIES=4
//        -DMAX_BINDING_CLUSTER_IDS=4 "-DDEFAULT_KEY={0x01, 0x03, 0x05, 0x07,
//        0x09, 0x0B, 0x0D, 0x0F, 0x00, 0x02, 0x04, 0x06, 0x08, 0x0A, 0x0C,
//        0x0D}" -DMAC_MAX_FRAME_SIZE=116 -DZDNWKMGR_MIN_TRANSMISSIONS=20
//        "-DCONST=const __code" -DGENERIC=__generic -DRFD_RCVC_ALWAYS_ON=FALSE
//        -DPOLL_RATE=1000 -DQUEUED_POLL_RATE=100 -DRESPONSE_POLL_RATE=100
//        -DREJOIN_POLL_RATE=440 -DREJOIN_BACKOFF=900000 -DREJOIN_SCAN=900000)
//        -f
//        C:\Users\hhhho\Desktop\Z-Stack1.2.2a-spp-v001-AD\Projects\zstack\Prj\SampleApp\CC2530DB\..\..\..\Tools\CC2530DB\f8wZCL.cfg
//        -I
//        C:\Users\hhhho\Desktop\Z-Stack1.2.2a-spp-v001-AD\Projects\zstack\Prj\SampleApp\CC2530DB\
//        -I
//        C:\Users\hhhho\Desktop\Z-Stack1.2.2a-spp-v001-AD\Projects\zstack\Prj\SampleApp\CC2530DB\..\Source\
//        -I
//        C:\Users\hhhho\Desktop\Z-Stack1.2.2a-spp-v001-AD\Projects\zstack\Prj\SampleApp\CC2530DB\..\..\Source\
//        -I
//        C:\Users\hhhho\Desktop\Z-Stack1.2.2a-spp-v001-AD\Projects\zstack\Prj\SampleApp\CC2530DB\..\..\..\ZMain\TI2530DB\
//        -I
//        C:\Users\hhhho\Desktop\Z-Stack1.2.2a-spp-v001-AD\Projects\zstack\Prj\SampleApp\CC2530DB\..\..\..\..\..\Components\hal\include\
//        -I
//        C:\Users\hhhho\Desktop\Z-Stack1.2.2a-spp-v001-AD\Projects\zstack\Prj\SampleApp\CC2530DB\..\..\..\..\..\Components\hal\target\CC2530EB\
//        -I
//        C:\Users\hhhho\Desktop\Z-Stack1.2.2a-spp-v001-AD\Projects\zstack\Prj\SampleApp\CC2530DB\..\..\..\..\..\Components\mac\include\
//        -I
//        C:\Users\hhhho\Desktop\Z-Stack1.2.2a-spp-v001-AD\Projects\zstack\Prj\SampleApp\CC2530DB\..\..\..\..\..\Components\mac\high_level\
//        -I
//        C:\Users\hhhho\Desktop\Z-Stack1.2.2a-spp-v001-AD\Projects\zstack\Prj\SampleApp\CC2530DB\..\..\..\..\..\Components\mac\low_level\srf04\
//        -I
//        C:\Users\hhhho\Desktop\Z-Stack1.2.2a-spp-v001-AD\Projects\zstack\Prj\SampleApp\CC2530DB\..\..\..\..\..\Components\mac\low_level\srf04\single_chip\
//        -I
//        C:\Users\hhhho\Desktop\Z-Stack1.2.2a-spp-v001-AD\Projects\zstack\Prj\SampleApp\CC2530DB\..\..\..\..\..\Components\mt\
//        -I
//        C:\Users\hhhho\Desktop\Z-Stack1.2.2a-spp-v001-AD\Projects\zstack\Prj\SampleApp\CC2530DB\..\..\..\..\..\Components\osal\include\
//        -I
//        C:\Users\hhhho\Desktop\Z-Stack1.2.2a-spp-v001-AD\Projects\zstack\Prj\SampleApp\CC2530DB\..\..\..\..\..\Components\services\saddr\
//        -I
//        C:\Users\hhhho\Desktop\Z-Stack1.2.2a-spp-v001-AD\Projects\zstack\Prj\SampleApp\CC2530DB\..\..\..\..\..\Components\services\sdata\
//        -I
//        C:\Users\hhhho\Desktop\Z-Stack1.2.2a-spp-v001-AD\Projects\zstack\Prj\SampleApp\CC2530DB\..\..\..\..\..\Components\stack\af\
//        -I
//        C:\Users\hhhho\Desktop\Z-Stack1.2.2a-spp-v001-AD\Projects\zstack\Prj\SampleApp\CC2530DB\..\..\..\..\..\Components\stack\nwk\
//        -I
//        C:\Users\hhhho\Desktop\Z-Stack1.2.2a-spp-v001-AD\Projects\zstack\Prj\SampleApp\CC2530DB\..\..\..\..\..\Components\stack\sapi\
//        -I
//        C:\Users\hhhho\Desktop\Z-Stack1.2.2a-spp-v001-AD\Projects\zstack\Prj\SampleApp\CC2530DB\..\..\..\..\..\Components\stack\sec\
//        -I
//        C:\Users\hhhho\Desktop\Z-Stack1.2.2a-spp-v001-AD\Projects\zstack\Prj\SampleApp\CC2530DB\..\..\..\..\..\Components\stack\sys\
//        -I
//        C:\Users\hhhho\Desktop\Z-Stack1.2.2a-spp-v001-AD\Projects\zstack\Prj\SampleApp\CC2530DB\..\..\..\..\..\Components\stack\zcl\
//        -I
//        C:\Users\hhhho\Desktop\Z-Stack1.2.2a-spp-v001-AD\Projects\zstack\Prj\SampleApp\CC2530DB\..\..\..\..\..\Components\stack\zdo\
//        -I
//        C:\Users\hhhho\Desktop\Z-Stack1.2.2a-spp-v001-AD\Projects\zstack\Prj\SampleApp\CC2530DB\..\..\..\..\..\Components\zmac\
//        -I
//        C:\Users\hhhho\Desktop\Z-Stack1.2.2a-spp-v001-AD\Projects\zstack\Prj\SampleApp\CC2530DB\..\..\..\..\..\Components\zmac\f8w\
//        -Ohz --require_prototypes)
//    Locale             =  Chinese (Simplified)_CHN.936
//    List file          =  
//        C:\Users\hhhho\Desktop\Z-Stack1.2.2a-spp-v001-AD\Projects\zstack\Prj\SampleApp\CC2530DB\EndDeviceEB\List\OLED.s51
//
///////////////////////////////////////////////////////////////////////////////

        NAME OLED

        RTMODEL "__SystemLibrary", "CLib"
        RTMODEL "__calling_convention", "xdata_reentrant"
        RTMODEL "__code_model", "banked"
        RTMODEL "__core", "plain"
        RTMODEL "__data_model", "large"
        RTMODEL "__dptr_size", "16"
        RTMODEL "__extended_stack", "disabled"
        RTMODEL "__location_for_constants", "data"
        RTMODEL "__number_of_dptrs", "1"
        RTMODEL "__register_banks", "*"
        RTMODEL "__rt_version", "1"

        RSEG DOVERLAY:DATA:NOROOT(0)
        RSEG IOVERLAY:IDATA:NOROOT(0)
        RSEG ISTACK:IDATA:NOROOT(0)
        RSEG PSTACK:XDATA:NOROOT(0)
        RSEG XSTACK:XDATA:NOROOT(0)

        EXTERN ?V0
        EXTERN ?V1
        EXTERN ?V2
        EXTERN ?V3
        EXTERN ?V4
        EXTERN ?V6
        EXTERN ?V7
        EXTERN ?V5
        EXTERN ?V8
        EXTERN ?V9
        EXTERN ?V10
        EXTERN ?V11
        EXTERN ?V12
        EXTERN ?V13
        EXTERN ?V14
        EXTERN ?V15
        EXTERN ?BANKED_ENTER_XDATA
        EXTERN ?BANKED_LEAVE_XDATA
        EXTERN ?BDISPATCH
        EXTERN ?BRET
        EXTERN ?L_MOV_X
        EXTERN ?L_MUL
        EXTERN ?S_SHL
        EXTERN ?UL_DIV_MOD
        EXTERN ?XSTACK_DISP0_8
        EXTERN __INIT_XDATA_I

        PUBLIC `??Delay_1ms::?relay`
        FUNCTION `??Delay_1ms::?relay`,0203H
        PUBLIC `??Delay_50ms::?relay`
        FUNCTION `??Delay_50ms::?relay`,0203H
        PUBLIC `??OLED_Clear::?relay`
        FUNCTION `??OLED_Clear::?relay`,0203H
        PUBLIC `??OLED_Display_Off::?relay`
        FUNCTION `??OLED_Display_Off::?relay`,0203H
        PUBLIC `??OLED_Display_On::?relay`
        FUNCTION `??OLED_Display_On::?relay`,0203H
        PUBLIC `??OLED_DrawBMP::?relay`
        FUNCTION `??OLED_DrawBMP::?relay`,0203H
        PUBLIC `??OLED_Init::?relay`
        FUNCTION `??OLED_Init::?relay`,0203H
        PUBLIC `??OLED_On::?relay`
        FUNCTION `??OLED_On::?relay`,0203H
        PUBLIC `??OLED_Set_Pos::?relay`
        FUNCTION `??OLED_Set_Pos::?relay`,0203H
        PUBLIC `??OLED_ShowCHinese::?relay`
        FUNCTION `??OLED_ShowCHinese::?relay`,0203H
        PUBLIC `??OLED_ShowChar::?relay`
        FUNCTION `??OLED_ShowChar::?relay`,0203H
        PUBLIC `??OLED_ShowNum::?relay`
        FUNCTION `??OLED_ShowNum::?relay`,0203H
        PUBLIC `??OLED_ShowString::?relay`
        FUNCTION `??OLED_ShowString::?relay`,0203H
        PUBLIC `??OLED_WR_Byte::?relay`
        FUNCTION `??OLED_WR_Byte::?relay`,0203H
        PUBLIC `??Write_IIC_Command::?relay`
        FUNCTION `??Write_IIC_Command::?relay`,0203H
        PUBLIC `??Write_IIC_Data::?relay`
        FUNCTION `??Write_IIC_Data::?relay`,0203H
        PUBLIC `??fill_picture::?relay`
        FUNCTION `??fill_picture::?relay`,0203H
        PUBLIC `??oled_pow::?relay`
        FUNCTION `??oled_pow::?relay`,0203H
        PUBLIC Delay_1ms
        FUNCTION Delay_1ms,0203H
        ARGFRAME XSTACK, 0, STACK
        PUBLIC Delay_50ms
        FUNCTION Delay_50ms,0203H
        ARGFRAME XSTACK, 0, STACK
        PUBLIC F6x8
        PUBLIC F8X16
        PUBLIC Hzk
        PUBLIC OLED_Clear
        FUNCTION OLED_Clear,021203H
        ARGFRAME XSTACK, 0, STACK
        LOCFRAME XSTACK, 9, STACK
        PUBLIC OLED_Display_Off
        FUNCTION OLED_Display_Off,021203H
        ARGFRAME XSTACK, 0, STACK
        LOCFRAME ISTACK, 2, STACK
        PUBLIC OLED_Display_On
        FUNCTION OLED_Display_On,021203H
        ARGFRAME XSTACK, 0, STACK
        LOCFRAME ISTACK, 2, STACK
        PUBLIC OLED_DrawBMP
        FUNCTION OLED_DrawBMP,0a1203H
        ARGFRAME XSTACK, 2, STACK
        LOCFRAME XSTACK, 16, STACK
        PUBLIC OLED_Init
        FUNCTION OLED_Init,021203H
        ARGFRAME XSTACK, 0, STACK
        LOCFRAME ISTACK, 2, STACK
        PUBLIC OLED_On
        FUNCTION OLED_On,021203H
        ARGFRAME XSTACK, 0, STACK
        LOCFRAME XSTACK, 9, STACK
        PUBLIC OLED_Set_Pos
        FUNCTION OLED_Set_Pos,021203H
        ARGFRAME XSTACK, 16, STACK
        ARGFRAME IOVERLAY, 0, STATIC
        ARGFRAME DOVERLAY, 0, STATIC
        LOCFRAME XSTACK, 9, STACK
        PUBLIC OLED_ShowCHinese
        FUNCTION OLED_ShowCHinese,0a1203H
        ARGFRAME XSTACK, 0, STACK
        LOCFRAME XSTACK, 14, STACK
        PUBLIC OLED_ShowChar
        FUNCTION OLED_ShowChar,0a1203H
        ARGFRAME XSTACK, 24, STACK
        ARGFRAME IOVERLAY, 0, STATIC
        ARGFRAME DOVERLAY, 0, STATIC
        LOCFRAME XSTACK, 16, STACK
        PUBLIC OLED_ShowNum
        FUNCTION OLED_ShowNum,0a1203H
        ARGFRAME XSTACK, 4, STACK
        LOCFRAME XSTACK, 24, STACK
        PUBLIC OLED_ShowString
        FUNCTION OLED_ShowString,0a1203H
        ARGFRAME XSTACK, 0, STACK
        LOCFRAME XSTACK, 12, STACK
        PUBLIC OLED_WR_Byte
        FUNCTION OLED_WR_Byte,021203H
        ARGFRAME XSTACK, 16, STACK
        ARGFRAME IOVERLAY, 0, STATIC
        ARGFRAME DOVERLAY, 0, STATIC
        LOCFRAME ISTACK, 2, STACK
        PUBLIC Write_IIC_Command
        FUNCTION Write_IIC_Command,021203H
        ARGFRAME XSTACK, 0, STACK
        ARGFRAME IOVERLAY, 0, STATIC
        ARGFRAME DOVERLAY, 0, STATIC
        LOCFRAME XSTACK, 9, STACK
        PUBLIC Write_IIC_Data
        FUNCTION Write_IIC_Data,021203H
        ARGFRAME XSTACK, 0, STACK
        ARGFRAME IOVERLAY, 0, STATIC
        ARGFRAME DOVERLAY, 0, STATIC
        LOCFRAME XSTACK, 9, STACK
        PUBWEAK __Constant_a
        PUBLIC fill_picture
        FUNCTION fill_picture,0a1203H
        ARGFRAME XSTACK, 0, STACK
        LOCFRAME XSTACK, 9, STACK
        PUBLIC oled_pow
        FUNCTION oled_pow,080203H
        ARGFRAME XSTACK, 24, STACK
        ARGFRAME IOVERLAY, 0, STATIC
        ARGFRAME DOVERLAY, 0, STATIC
        LOCFRAME XSTACK, 16, STACK
        
          CFI Names cfiNames0
          CFI StackFrame CFA_SP SP IDATA
          CFI StackFrame CFA_PSP16 PSP16 XDATA
          CFI StackFrame CFA_XSP16 XSP16 XDATA
          CFI StaticOverlayFrame CFA_IOVERLAY IOVERLAY
          CFI StaticOverlayFrame CFA_DOVERLAY DOVERLAY
          CFI Resource `PSW.CY`:1, `B.BR0`:1, `B.BR1`:1, `B.BR2`:1, `B.BR3`:1
          CFI Resource `B.BR4`:1, `B.BR5`:1, `B.BR6`:1, `B.BR7`:1, `VB.BR8`:1
          CFI Resource `VB.BR9`:1, `VB.BR10`:1, `VB.BR11`:1, `VB.BR12`:1
          CFI Resource `VB.BR13`:1, `VB.BR14`:1, `VB.BR15`:1, VB:8, B:8, A:8
          CFI Resource PSW:8, DPL0:8, DPH0:8, R0:8, R1:8, R2:8, R3:8, R4:8, R5:8
          CFI Resource R6:8, R7:8, V0:8, V1:8, V2:8, V3:8, V4:8, V5:8, V6:8, V7:8
          CFI Resource V8:8, V9:8, V10:8, V11:8, V12:8, V13:8, V14:8, V15:8, SP:8
          CFI Resource PSPH:8, PSPL:8, PSP16:16, XSPH:8, XSPL:8, XSP16:16
          CFI VirtualResource ?RET:24
          CFI Resource ?BRET_EXT:8
          CFI VirtualResource ?RET_HIGH:8, ?RET_LOW:8
          CFI ResourceParts PSP16 PSPH, PSPL
          CFI ResourceParts XSP16 XSPH, XSPL
          CFI ResourceParts ?RET ?BRET_EXT, ?RET_HIGH, ?RET_LOW
          CFI EndNames cfiNames0
        
          CFI Common cfiCommon0 Using cfiNames0
          CFI CodeAlign 1
          CFI DataAlign -1
          CFI ReturnAddress ?RET CODE
          CFI CFA_DOVERLAY Used
          CFI CFA_IOVERLAY Used
          CFI CFA_SP SP+-3
          CFI CFA_PSP16 PSP16+0
          CFI CFA_XSP16 XSP16+0
          CFI `PSW.CY` SameValue
          CFI `B.BR0` SameValue
          CFI `B.BR1` SameValue
          CFI `B.BR2` SameValue
          CFI `B.BR3` SameValue
          CFI `B.BR4` SameValue
          CFI `B.BR5` SameValue
          CFI `B.BR6` SameValue
          CFI `B.BR7` SameValue
          CFI `VB.BR8` SameValue
          CFI `VB.BR9` SameValue
          CFI `VB.BR10` SameValue
          CFI `VB.BR11` SameValue
          CFI `VB.BR12` SameValue
          CFI `VB.BR13` SameValue
          CFI `VB.BR14` SameValue
          CFI `VB.BR15` SameValue
          CFI VB SameValue
          CFI B Undefined
          CFI A Undefined
          CFI PSW SameValue
          CFI DPL0 SameValue
          CFI DPH0 SameValue
          CFI R0 Undefined
          CFI R1 Undefined
          CFI R2 Undefined
          CFI R3 Undefined
          CFI R4 Undefined
          CFI R5 Undefined
          CFI R6 SameValue
          CFI R7 SameValue
          CFI V0 SameValue
          CFI V1 SameValue
          CFI V2 SameValue
          CFI V3 SameValue
          CFI V4 SameValue
          CFI V5 SameValue
          CFI V6 SameValue
          CFI V7 SameValue
          CFI V8 SameValue
          CFI V9 SameValue
          CFI V10 SameValue
          CFI V11 SameValue
          CFI V12 SameValue
          CFI V13 SameValue
          CFI V14 SameValue
          CFI V15 SameValue
          CFI PSPH Undefined
          CFI PSPL Undefined
          CFI XSPH Undefined
          CFI XSPL Undefined
          CFI ?RET Concat
          CFI ?BRET_EXT Frame(CFA_SP, 3)
          CFI ?RET_HIGH Frame(CFA_SP, 2)
          CFI ?RET_LOW Frame(CFA_SP, 1)
          CFI EndCommon cfiCommon0
        
        
          CFI Common cfiCommon1 Using cfiNames0
          CFI CodeAlign 1
          CFI DataAlign -1
          CFI ReturnAddress ?RET CODE
          CFI CFA_DOVERLAY Used
          CFI CFA_IOVERLAY Used
          CFI CFA_SP SP+-2
          CFI CFA_PSP16 PSP16+0
          CFI CFA_XSP16 XSP16+0
          CFI `PSW.CY` SameValue
          CFI `B.BR0` SameValue
          CFI `B.BR1` SameValue
          CFI `B.BR2` SameValue
          CFI `B.BR3` SameValue
          CFI `B.BR4` SameValue
          CFI `B.BR5` SameValue
          CFI `B.BR6` SameValue
          CFI `B.BR7` SameValue
          CFI `VB.BR8` SameValue
          CFI `VB.BR9` SameValue
          CFI `VB.BR10` SameValue
          CFI `VB.BR11` SameValue
          CFI `VB.BR12` SameValue
          CFI `VB.BR13` SameValue
          CFI `VB.BR14` SameValue
          CFI `VB.BR15` SameValue
          CFI VB SameValue
          CFI B SameValue
          CFI A SameValue
          CFI PSW SameValue
          CFI DPL0 SameValue
          CFI DPH0 SameValue
          CFI R0 SameValue
          CFI R1 SameValue
          CFI R2 SameValue
          CFI R3 SameValue
          CFI R4 SameValue
          CFI R5 SameValue
          CFI R6 SameValue
          CFI R7 SameValue
          CFI V0 SameValue
          CFI V1 SameValue
          CFI V2 SameValue
          CFI V3 SameValue
          CFI V4 SameValue
          CFI V5 SameValue
          CFI V6 SameValue
          CFI V7 SameValue
          CFI V8 SameValue
          CFI V9 SameValue
          CFI V10 SameValue
          CFI V11 SameValue
          CFI V12 SameValue
          CFI V13 SameValue
          CFI V14 SameValue
          CFI V15 SameValue
          CFI PSPH Undefined
          CFI PSPL Undefined
          CFI XSPH Undefined
          CFI XSPL Undefined
          CFI ?RET Concat
          CFI ?BRET_EXT SameValue
          CFI ?RET_HIGH Frame(CFA_SP, 2)
          CFI ?RET_LOW Frame(CFA_SP, 1)
          CFI EndCommon cfiCommon1
        
OLED_SendByte       SYMBOL "OLED_SendByte"
`??OLED_SendByte::?relay` SYMBOL "?relay", OLED_SendByte
OLED_Start          SYMBOL "OLED_Start"
`??OLED_Start::?relay` SYMBOL "?relay", OLED_Start
OLED_Stop           SYMBOL "OLED_Stop"
`??OLED_Stop::?relay` SYMBOL "?relay", OLED_Stop
Delay_1ms           SYMBOL "Delay_1ms"
`??Delay_1ms::?relay` SYMBOL "?relay", Delay_1ms
Delay_50ms          SYMBOL "Delay_50ms"
`??Delay_50ms::?relay` SYMBOL "?relay", Delay_50ms
OLED_Clear          SYMBOL "OLED_Clear"
`??OLED_Clear::?relay` SYMBOL "?relay", OLED_Clear
OLED_Display_Off    SYMBOL "OLED_Display_Off"
`??OLED_Display_Off::?relay` SYMBOL "?relay", OLED_Display_Off
OLED_Display_On     SYMBOL "OLED_Display_On"
`??OLED_Display_On::?relay` SYMBOL "?relay", OLED_Display_On
OLED_DrawBMP        SYMBOL "OLED_DrawBMP"
`??OLED_DrawBMP::?relay` SYMBOL "?relay", OLED_DrawBMP
OLED_Init           SYMBOL "OLED_Init"
`??OLED_Init::?relay` SYMBOL "?relay", OLED_Init
OLED_On             SYMBOL "OLED_On"
`??OLED_On::?relay` SYMBOL "?relay", OLED_On
OLED_Set_Pos        SYMBOL "OLED_Set_Pos"
`??OLED_Set_Pos::?relay` SYMBOL "?relay", OLED_Set_Pos
OLED_ShowCHinese    SYMBOL "OLED_ShowCHinese"
`??OLED_ShowCHinese::?relay` SYMBOL "?relay", OLED_ShowCHinese
OLED_ShowChar       SYMBOL "OLED_ShowChar"
`??OLED_ShowChar::?relay` SYMBOL "?relay", OLED_ShowChar
OLED_ShowNum        SYMBOL "OLED_ShowNum"
`??OLED_ShowNum::?relay` SYMBOL "?relay", OLED_ShowNum
OLED_ShowString     SYMBOL "OLED_ShowString"
`??OLED_ShowString::?relay` SYMBOL "?relay", OLED_ShowString
OLED_WR_Byte        SYMBOL "OLED_WR_Byte"
`??OLED_WR_Byte::?relay` SYMBOL "?relay", OLED_WR_Byte
Write_IIC_Command   SYMBOL "Write_IIC_Command"
`??Write_IIC_Command::?relay` SYMBOL "?relay", Write_IIC_Command
Write_IIC_Data      SYMBOL "Write_IIC_Data"
`??Write_IIC_Data::?relay` SYMBOL "?relay", Write_IIC_Data
fill_picture        SYMBOL "fill_picture"
`??fill_picture::?relay` SYMBOL "?relay", fill_picture
oled_pow            SYMBOL "oled_pow"
`??oled_pow::?relay` SYMBOL "?relay", oled_pow

        EXTERN `??OLED_SendByte::?relay`
        FUNCTION `??OLED_SendByte::?relay`,00H
        EXTERN `??OLED_Start::?relay`
        FUNCTION `??OLED_Start::?relay`,00H
        EXTERN `??OLED_Stop::?relay`
        FUNCTION `??OLED_Stop::?relay`,00H
        EXTERN OLED_SendByte
        FUNCTION OLED_SendByte,0202H
        ARGFRAME ISTACK, 0, STACK
        ARGFRAME PSTACK, 0, STACK
        ARGFRAME XSTACK, 9, STACK
        ARGFRAME IOVERLAY, 0, STATIC
        ARGFRAME DOVERLAY, 0, STATIC
        EXTERN OLED_Start
        FUNCTION OLED_Start,0202H
        ARGFRAME ISTACK, 0, STACK
        ARGFRAME PSTACK, 0, STACK
        ARGFRAME XSTACK, 9, STACK
        ARGFRAME IOVERLAY, 0, STATIC
        ARGFRAME DOVERLAY, 0, STATIC
        EXTERN OLED_Stop
        FUNCTION OLED_Stop,0202H
        ARGFRAME ISTACK, 0, STACK
        ARGFRAME PSTACK, 0, STACK
        ARGFRAME XSTACK, 9, STACK
        ARGFRAME IOVERLAY, 0, STATIC
        ARGFRAME DOVERLAY, 0, STATIC

// C:\Users\hhhho\Desktop\Z-Stack1.2.2a-spp-v001-AD\Projects\zstack\Prj\SampleApp\Source\OLED.c
//    1 #include "iic.h"
//    2 #include "OLED.h"
//    3 
//    4 
//    5 //常用ASCII表
//    6 //偏移量32
//    7 //ASCII字符集
//    8 //偏移量32
//    9 //大小:12*6
//   10 /************************************6*8的点阵************************************/

        RSEG XDATA_ROM_C:CONST:REORDER:NOROOT(0)
        DATA8
//   11 const unsigned char F6x8[][6] =		
F6x8:
        DB 0
        DB 0
        DB 0
        DB 0
        DB 0
        DB 0
        DB 0
        DB 0
        DB 0
        DB 47
        DB 0
        DB 0
        DB 0
        DB 0
        DB 7
        DB 0
        DB 7
        DB 0
        DB 0
        DB 20
        DB 127
        DB 20
        DB 127
        DB 20
        DB 0
        DB 36
        DB 42
        DB 127
        DB 42
        DB 18
        DB 0
        DB 98
        DB 100
        DB 8
        DB 19
        DB 35
        DB 0
        DB 54
        DB 73
        DB 85
        DB 34
        DB 80
        DB 0
        DB 0
        DB 5
        DB 3
        DB 0
        DB 0
        DB 0
        DB 0
        DB 28
        DB 34
        DB 65
        DB 0
        DB 0
        DB 0
        DB 65
        DB 34
        DB 28
        DB 0
        DB 0
        DB 20
        DB 8
        DB 62
        DB 8
        DB 20
        DB 0
        DB 8
        DB 8
        DB 62
        DB 8
        DB 8
        DB 0
        DB 0
        DB 0
        DB 160
        DB 96
        DB 0
        DB 0
        DB 8
        DB 8
        DB 8
        DB 8
        DB 8
        DB 0
        DB 0
        DB 96
        DB 96
        DB 0
        DB 0
        DB 0
        DB 32
        DB 16
        DB 8
        DB 4
        DB 2
        DB 0
        DB 62
        DB 81
        DB 73
        DB 69
        DB 62
        DB 0
        DB 0
        DB 66
        DB 127
        DB 64
        DB 0
        DB 0
        DB 66
        DB 97
        DB 81
        DB 73
        DB 70
        DB 0
        DB 33
        DB 65
        DB 69
        DB 75
        DB 49
        DB 0
        DB 24
        DB 20
        DB 18
        DB 127
        DB 16
        DB 0
        DB 39
        DB 69
        DB 69
        DB 69
        DB 57
        DB 0
        DB 60
        DB 74
        DB 73
        DB 73
        DB 48
        DB 0
        DB 1
        DB 113
        DB 9
        DB 5
        DB 3
        DB 0
        DB 54
        DB 73
        DB 73
        DB 73
        DB 54
        DB 0
        DB 6
        DB 73
        DB 73
        DB 41
        DB 30
        DB 0
        DB 0
        DB 54
        DB 54
        DB 0
        DB 0
        DB 0
        DB 0
        DB 86
        DB 54
        DB 0
        DB 0
        DB 0
        DB 8
        DB 20
        DB 34
        DB 65
        DB 0
        DB 0
        DB 20
        DB 20
        DB 20
        DB 20
        DB 20
        DB 0
        DB 0
        DB 65
        DB 34
        DB 20
        DB 8
        DB 0
        DB 2
        DB 1
        DB 81
        DB 9
        DB 6
        DB 0
        DB 50
        DB 73
        DB 89
        DB 81
        DB 62
        DB 0
        DB 124
        DB 18
        DB 17
        DB 18
        DB 124
        DB 0
        DB 127
        DB 73
        DB 73
        DB 73
        DB 54
        DB 0
        DB 62
        DB 65
        DB 65
        DB 65
        DB 34
        DB 0
        DB 127
        DB 65
        DB 65
        DB 34
        DB 28
        DB 0
        DB 127
        DB 73
        DB 73
        DB 73
        DB 65
        DB 0
        DB 127
        DB 9
        DB 9
        DB 9
        DB 1
        DB 0
        DB 62
        DB 65
        DB 73
        DB 73
        DB 122
        DB 0
        DB 127
        DB 8
        DB 8
        DB 8
        DB 127
        DB 0
        DB 0
        DB 65
        DB 127
        DB 65
        DB 0
        DB 0
        DB 32
        DB 64
        DB 65
        DB 63
        DB 1
        DB 0
        DB 127
        DB 8
        DB 20
        DB 34
        DB 65
        DB 0
        DB 127
        DB 64
        DB 64
        DB 64
        DB 64
        DB 0
        DB 127
        DB 2
        DB 12
        DB 2
        DB 127
        DB 0
        DB 127
        DB 4
        DB 8
        DB 16
        DB 127
        DB 0
        DB 62
        DB 65
        DB 65
        DB 65
        DB 62
        DB 0
        DB 127
        DB 9
        DB 9
        DB 9
        DB 6
        DB 0
        DB 62
        DB 65
        DB 81
        DB 33
        DB 94
        DB 0
        DB 127
        DB 9
        DB 25
        DB 41
        DB 70
        DB 0
        DB 70
        DB 73
        DB 73
        DB 73
        DB 49
        DB 0
        DB 1
        DB 1
        DB 127
        DB 1
        DB 1
        DB 0
        DB 63
        DB 64
        DB 64
        DB 64
        DB 63
        DB 0
        DB 31
        DB 32
        DB 64
        DB 32
        DB 31
        DB 0
        DB 63
        DB 64
        DB 56
        DB 64
        DB 63
        DB 0
        DB 99
        DB 20
        DB 8
        DB 20
        DB 99
        DB 0
        DB 7
        DB 8
        DB 112
        DB 8
        DB 7
        DB 0
        DB 97
        DB 81
        DB 73
        DB 69
        DB 67
        DB 0
        DB 0
        DB 127
        DB 65
        DB 65
        DB 0
        DB 0
        DB 85
        DB 42
        DB 85
        DB 42
        DB 85
        DB 0
        DB 0
        DB 65
        DB 65
        DB 127
        DB 0
        DB 0
        DB 4
        DB 2
        DB 1
        DB 2
        DB 4
        DB 0
        DB 64
        DB 64
        DB 64
        DB 64
        DB 64
        DB 0
        DB 0
        DB 1
        DB 2
        DB 4
        DB 0
        DB 0
        DB 32
        DB 84
        DB 84
        DB 84
        DB 120
        DB 0
        DB 127
        DB 72
        DB 68
        DB 68
        DB 56
        DB 0
        DB 56
        DB 68
        DB 68
        DB 68
        DB 32
        DB 0
        DB 56
        DB 68
        DB 68
        DB 72
        DB 127
        DB 0
        DB 56
        DB 84
        DB 84
        DB 84
        DB 24
        DB 0
        DB 8
        DB 126
        DB 9
        DB 1
        DB 2
        DB 0
        DB 24
        DB 164
        DB 164
        DB 164
        DB 124
        DB 0
        DB 127
        DB 8
        DB 4
        DB 4
        DB 120
        DB 0
        DB 0
        DB 68
        DB 125
        DB 64
        DB 0
        DB 0
        DB 64
        DB 128
        DB 132
        DB 125
        DB 0
        DB 0
        DB 127
        DB 16
        DB 40
        DB 68
        DB 0
        DB 0
        DB 0
        DB 65
        DB 127
        DB 64
        DB 0
        DB 0
        DB 124
        DB 4
        DB 24
        DB 4
        DB 120
        DB 0
        DB 124
        DB 8
        DB 4
        DB 4
        DB 120
        DB 0
        DB 56
        DB 68
        DB 68
        DB 68
        DB 56
        DB 0
        DB 252
        DB 36
        DB 36
        DB 36
        DB 24
        DB 0
        DB 24
        DB 36
        DB 36
        DB 24
        DB 252
        DB 0
        DB 124
        DB 8
        DB 4
        DB 4
        DB 8
        DB 0
        DB 72
        DB 84
        DB 84
        DB 84
        DB 32
        DB 0
        DB 4
        DB 63
        DB 68
        DB 64
        DB 32
        DB 0
        DB 60
        DB 64
        DB 64
        DB 32
        DB 124
        DB 0
        DB 28
        DB 32
        DB 64
        DB 32
        DB 28
        DB 0
        DB 60
        DB 64
        DB 48
        DB 64
        DB 60
        DB 0
        DB 68
        DB 40
        DB 16
        DB 40
        DB 68
        DB 0
        DB 28
        DB 160
        DB 160
        DB 160
        DB 124
        DB 0
        DB 68
        DB 100
        DB 84
        DB 76
        DB 68
        DB 20
        DB 20
        DB 20
        DB 20
        DB 20
        DB 20
//   12 {
//   13 0x00, 0x00, 0x00, 0x00, 0x00, 0x00,// sp
//   14 0x00, 0x00, 0x00, 0x2f, 0x00, 0x00,// !
//   15 0x00, 0x00, 0x07, 0x00, 0x07, 0x00,// "
//   16 0x00, 0x14, 0x7f, 0x14, 0x7f, 0x14,// #
//   17 0x00, 0x24, 0x2a, 0x7f, 0x2a, 0x12,// $
//   18 0x00, 0x62, 0x64, 0x08, 0x13, 0x23,// %
//   19 0x00, 0x36, 0x49, 0x55, 0x22, 0x50,// &
//   20 0x00, 0x00, 0x05, 0x03, 0x00, 0x00,// '
//   21 0x00, 0x00, 0x1c, 0x22, 0x41, 0x00,// (
//   22 0x00, 0x00, 0x41, 0x22, 0x1c, 0x00,// )
//   23 0x00, 0x14, 0x08, 0x3E, 0x08, 0x14,// *
//   24 0x00, 0x08, 0x08, 0x3E, 0x08, 0x08,// +
//   25 0x00, 0x00, 0x00, 0xA0, 0x60, 0x00,// ,
//   26 0x00, 0x08, 0x08, 0x08, 0x08, 0x08,// -
//   27 0x00, 0x00, 0x60, 0x60, 0x00, 0x00,// .
//   28 0x00, 0x20, 0x10, 0x08, 0x04, 0x02,// /
//   29 0x00, 0x3E, 0x51, 0x49, 0x45, 0x3E,// 0
//   30 0x00, 0x00, 0x42, 0x7F, 0x40, 0x00,// 1
//   31 0x00, 0x42, 0x61, 0x51, 0x49, 0x46,// 2
//   32 0x00, 0x21, 0x41, 0x45, 0x4B, 0x31,// 3
//   33 0x00, 0x18, 0x14, 0x12, 0x7F, 0x10,// 4
//   34 0x00, 0x27, 0x45, 0x45, 0x45, 0x39,// 5
//   35 0x00, 0x3C, 0x4A, 0x49, 0x49, 0x30,// 6
//   36 0x00, 0x01, 0x71, 0x09, 0x05, 0x03,// 7
//   37 0x00, 0x36, 0x49, 0x49, 0x49, 0x36,// 8
//   38 0x00, 0x06, 0x49, 0x49, 0x29, 0x1E,// 9
//   39 0x00, 0x00, 0x36, 0x36, 0x00, 0x00,// :
//   40 0x00, 0x00, 0x56, 0x36, 0x00, 0x00,// ;
//   41 0x00, 0x08, 0x14, 0x22, 0x41, 0x00,// <
//   42 0x00, 0x14, 0x14, 0x14, 0x14, 0x14,// =
//   43 0x00, 0x00, 0x41, 0x22, 0x14, 0x08,// >
//   44 0x00, 0x02, 0x01, 0x51, 0x09, 0x06,// ?
//   45 0x00, 0x32, 0x49, 0x59, 0x51, 0x3E,// @
//   46 0x00, 0x7C, 0x12, 0x11, 0x12, 0x7C,// A
//   47 0x00, 0x7F, 0x49, 0x49, 0x49, 0x36,// B
//   48 0x00, 0x3E, 0x41, 0x41, 0x41, 0x22,// C
//   49 0x00, 0x7F, 0x41, 0x41, 0x22, 0x1C,// D
//   50 0x00, 0x7F, 0x49, 0x49, 0x49, 0x41,// E
//   51 0x00, 0x7F, 0x09, 0x09, 0x09, 0x01,// F
//   52 0x00, 0x3E, 0x41, 0x49, 0x49, 0x7A,// G
//   53 0x00, 0x7F, 0x08, 0x08, 0x08, 0x7F,// H
//   54 0x00, 0x00, 0x41, 0x7F, 0x41, 0x00,// I
//   55 0x00, 0x20, 0x40, 0x41, 0x3F, 0x01,// J
//   56 0x00, 0x7F, 0x08, 0x14, 0x22, 0x41,// K
//   57 0x00, 0x7F, 0x40, 0x40, 0x40, 0x40,// L
//   58 0x00, 0x7F, 0x02, 0x0C, 0x02, 0x7F,// M
//   59 0x00, 0x7F, 0x04, 0x08, 0x10, 0x7F,// N
//   60 0x00, 0x3E, 0x41, 0x41, 0x41, 0x3E,// O
//   61 0x00, 0x7F, 0x09, 0x09, 0x09, 0x06,// P
//   62 0x00, 0x3E, 0x41, 0x51, 0x21, 0x5E,// Q
//   63 0x00, 0x7F, 0x09, 0x19, 0x29, 0x46,// R
//   64 0x00, 0x46, 0x49, 0x49, 0x49, 0x31,// S
//   65 0x00, 0x01, 0x01, 0x7F, 0x01, 0x01,// T
//   66 0x00, 0x3F, 0x40, 0x40, 0x40, 0x3F,// U
//   67 0x00, 0x1F, 0x20, 0x40, 0x20, 0x1F,// V
//   68 0x00, 0x3F, 0x40, 0x38, 0x40, 0x3F,// W
//   69 0x00, 0x63, 0x14, 0x08, 0x14, 0x63,// X
//   70 0x00, 0x07, 0x08, 0x70, 0x08, 0x07,// Y
//   71 0x00, 0x61, 0x51, 0x49, 0x45, 0x43,// Z
//   72 0x00, 0x00, 0x7F, 0x41, 0x41, 0x00,// [
//   73 0x00, 0x55, 0x2A, 0x55, 0x2A, 0x55,// 55
//   74 0x00, 0x00, 0x41, 0x41, 0x7F, 0x00,// ]
//   75 0x00, 0x04, 0x02, 0x01, 0x02, 0x04,// ^
//   76 0x00, 0x40, 0x40, 0x40, 0x40, 0x40,// _
//   77 0x00, 0x00, 0x01, 0x02, 0x04, 0x00,// '
//   78 0x00, 0x20, 0x54, 0x54, 0x54, 0x78,// a
//   79 0x00, 0x7F, 0x48, 0x44, 0x44, 0x38,// b
//   80 0x00, 0x38, 0x44, 0x44, 0x44, 0x20,// c
//   81 0x00, 0x38, 0x44, 0x44, 0x48, 0x7F,// d
//   82 0x00, 0x38, 0x54, 0x54, 0x54, 0x18,// e
//   83 0x00, 0x08, 0x7E, 0x09, 0x01, 0x02,// f
//   84 0x00, 0x18, 0xA4, 0xA4, 0xA4, 0x7C,// g
//   85 0x00, 0x7F, 0x08, 0x04, 0x04, 0x78,// h
//   86 0x00, 0x00, 0x44, 0x7D, 0x40, 0x00,// i
//   87 0x00, 0x40, 0x80, 0x84, 0x7D, 0x00,// j
//   88 0x00, 0x7F, 0x10, 0x28, 0x44, 0x00,// k
//   89 0x00, 0x00, 0x41, 0x7F, 0x40, 0x00,// l
//   90 0x00, 0x7C, 0x04, 0x18, 0x04, 0x78,// m
//   91 0x00, 0x7C, 0x08, 0x04, 0x04, 0x78,// n
//   92 0x00, 0x38, 0x44, 0x44, 0x44, 0x38,// o
//   93 0x00, 0xFC, 0x24, 0x24, 0x24, 0x18,// p
//   94 0x00, 0x18, 0x24, 0x24, 0x18, 0xFC,// q
//   95 0x00, 0x7C, 0x08, 0x04, 0x04, 0x08,// r
//   96 0x00, 0x48, 0x54, 0x54, 0x54, 0x20,// s
//   97 0x00, 0x04, 0x3F, 0x44, 0x40, 0x20,// t
//   98 0x00, 0x3C, 0x40, 0x40, 0x20, 0x7C,// u
//   99 0x00, 0x1C, 0x20, 0x40, 0x20, 0x1C,// v
//  100 0x00, 0x3C, 0x40, 0x30, 0x40, 0x3C,// w
//  101 0x00, 0x44, 0x28, 0x10, 0x28, 0x44,// x
//  102 0x00, 0x1C, 0xA0, 0xA0, 0xA0, 0x7C,// y
//  103 0x00, 0x44, 0x64, 0x54, 0x4C, 0x44,// z
//  104 0x14, 0x14, 0x14, 0x14, 0x14, 0x14,// horiz lines
//  105 };
//  106 /****************************************8*16的点阵************************************/

        RSEG XDATA_ROM_C:CONST:REORDER:NOROOT(0)
        DATA8
//  107 const unsigned char F8X16[]=	  
F8X16:
        DB 0
        DB 0
        DB 0
        DB 0
        DB 0
        DB 0
        DB 0
        DB 0
        DB 0
        DB 0
        DB 0
        DB 0
        DB 0
        DB 0
        DB 0
        DB 0
        DB 0
        DB 0
        DB 0
        DB 248
        DB 0
        DB 0
        DB 0
        DB 0
        DB 0
        DB 0
        DB 0
        DB 51
        DB 48
        DB 0
        DB 0
        DB 0
        DB 0
        DB 16
        DB 12
        DB 6
        DB 16
        DB 12
        DB 6
        DB 0
        DB 0
        DB 0
        DB 0
        DB 0
        DB 0
        DB 0
        DB 0
        DB 0
        DB 64
        DB 192
        DB 120
        DB 64
        DB 192
        DB 120
        DB 64
        DB 0
        DB 4
        DB 63
        DB 4
        DB 4
        DB 63
        DB 4
        DB 4
        DB 0
        DB 0
        DB 112
        DB 136
        DB 252
        DB 8
        DB 48
        DB 0
        DB 0
        DB 0
        DB 24
        DB 32
        DB 255
        DB 33
        DB 30
        DB 0
        DB 0
        DB 240
        DB 8
        DB 240
        DB 0
        DB 224
        DB 24
        DB 0
        DB 0
        DB 0
        DB 33
        DB 28
        DB 3
        DB 30
        DB 33
        DB 30
        DB 0
        DB 0
        DB 240
        DB 8
        DB 136
        DB 112
        DB 0
        DB 0
        DB 0
        DB 30
        DB 33
        DB 35
        DB 36
        DB 25
        DB 39
        DB 33
        DB 16
        DB 16
        DB 22
        DB 14
        DB 0
        DB 0
        DB 0
        DB 0
        DB 0
        DB 0
        DB 0
        DB 0
        DB 0
        DB 0
        DB 0
        DB 0
        DB 0
        DB 0
        DB 0
        DB 0
        DB 224
        DB 24
        DB 4
        DB 2
        DB 0
        DB 0
        DB 0
        DB 0
        DB 7
        DB 24
        DB 32
        DB 64
        DB 0
        DB 0
        DB 2
        DB 4
        DB 24
        DB 224
        DB 0
        DB 0
        DB 0
        DB 0
        DB 64
        DB 32
        DB 24
        DB 7
        DB 0
        DB 0
        DB 0
        DB 64
        DB 64
        DB 128
        DB 240
        DB 128
        DB 64
        DB 64
        DB 0
        DB 2
        DB 2
        DB 1
        DB 15
        DB 1
        DB 2
        DB 2
        DB 0
        DB 0
        DB 0
        DB 0
        DB 240
        DB 0
        DB 0
        DB 0
        DB 0
        DB 1
        DB 1
        DB 1
        DB 31
        DB 1
        DB 1
        DB 1
        DB 0
        DB 0
        DB 0
        DB 0
        DB 0
        DB 0
        DB 0
        DB 0
        DB 0
        DB 128
        DB 176
        DB 112
        DB 0
        DB 0
        DB 0
        DB 0
        DB 0
        DB 0
        DB 0
        DB 0
        DB 0
        DB 0
        DB 0
        DB 0
        DB 0
        DB 0
        DB 1
        DB 1
        DB 1
        DB 1
        DB 1
        DB 1
        DB 1
        DB 0
        DB 0
        DB 0
        DB 0
        DB 0
        DB 0
        DB 0
        DB 0
        DB 0
        DB 48
        DB 48
        DB 0
        DB 0
        DB 0
        DB 0
        DB 0
        DB 0
        DB 0
        DB 0
        DB 0
        DB 128
        DB 96
        DB 24
        DB 4
        DB 0
        DB 96
        DB 24
        DB 6
        DB 1
        DB 0
        DB 0
        DB 0
        DB 0
        DB 224
        DB 16
        DB 8
        DB 8
        DB 16
        DB 224
        DB 0
        DB 0
        DB 15
        DB 16
        DB 32
        DB 32
        DB 16
        DB 15
        DB 0
        DB 0
        DB 16
        DB 16
        DB 248
        DB 0
        DB 0
        DB 0
        DB 0
        DB 0
        DB 32
        DB 32
        DB 63
        DB 32
        DB 32
        DB 0
        DB 0
        DB 0
        DB 112
        DB 8
        DB 8
        DB 8
        DB 136
        DB 112
        DB 0
        DB 0
        DB 48
        DB 40
        DB 36
        DB 34
        DB 33
        DB 48
        DB 0
        DB 0
        DB 48
        DB 8
        DB 136
        DB 136
        DB 72
        DB 48
        DB 0
        DB 0
        DB 24
        DB 32
        DB 32
        DB 32
        DB 17
        DB 14
        DB 0
        DB 0
        DB 0
        DB 192
        DB 32
        DB 16
        DB 248
        DB 0
        DB 0
        DB 0
        DB 7
        DB 4
        DB 36
        DB 36
        DB 63
        DB 36
        DB 0
        DB 0
        DB 248
        DB 8
        DB 136
        DB 136
        DB 8
        DB 8
        DB 0
        DB 0
        DB 25
        DB 33
        DB 32
        DB 32
        DB 17
        DB 14
        DB 0
        DB 0
        DB 224
        DB 16
        DB 136
        DB 136
        DB 24
        DB 0
        DB 0
        DB 0
        DB 15
        DB 17
        DB 32
        DB 32
        DB 17
        DB 14
        DB 0
        DB 0
        DB 56
        DB 8
        DB 8
        DB 200
        DB 56
        DB 8
        DB 0
        DB 0
        DB 0
        DB 0
        DB 63
        DB 0
        DB 0
        DB 0
        DB 0
        DB 0
        DB 112
        DB 136
        DB 8
        DB 8
        DB 136
        DB 112
        DB 0
        DB 0
        DB 28
        DB 34
        DB 33
        DB 33
        DB 34
        DB 28
        DB 0
        DB 0
        DB 224
        DB 16
        DB 8
        DB 8
        DB 16
        DB 224
        DB 0
        DB 0
        DB 0
        DB 49
        DB 34
        DB 34
        DB 17
        DB 15
        DB 0
        DB 0
        DB 0
        DB 0
        DB 192
        DB 192
        DB 0
        DB 0
        DB 0
        DB 0
        DB 0
        DB 0
        DB 48
        DB 48
        DB 0
        DB 0
        DB 0
        DB 0
        DB 0
        DB 0
        DB 128
        DB 0
        DB 0
        DB 0
        DB 0
        DB 0
        DB 0
        DB 128
        DB 96
        DB 0
        DB 0
        DB 0
        DB 0
        DB 0
        DB 0
        DB 128
        DB 64
        DB 32
        DB 16
        DB 8
        DB 0
        DB 0
        DB 1
        DB 2
        DB 4
        DB 8
        DB 16
        DB 32
        DB 0
        DB 64
        DB 64
        DB 64
        DB 64
        DB 64
        DB 64
        DB 64
        DB 0
        DB 4
        DB 4
        DB 4
        DB 4
        DB 4
        DB 4
        DB 4
        DB 0
        DB 0
        DB 8
        DB 16
        DB 32
        DB 64
        DB 128
        DB 0
        DB 0
        DB 0
        DB 32
        DB 16
        DB 8
        DB 4
        DB 2
        DB 1
        DB 0
        DB 0
        DB 112
        DB 72
        DB 8
        DB 8
        DB 8
        DB 240
        DB 0
        DB 0
        DB 0
        DB 0
        DB 48
        DB 54
        DB 1
        DB 0
        DB 0
        DB 192
        DB 48
        DB 200
        DB 40
        DB 232
        DB 16
        DB 224
        DB 0
        DB 7
        DB 24
        DB 39
        DB 36
        DB 35
        DB 20
        DB 11
        DB 0
        DB 0
        DB 0
        DB 192
        DB 56
        DB 224
        DB 0
        DB 0
        DB 0
        DB 32
        DB 60
        DB 35
        DB 2
        DB 2
        DB 39
        DB 56
        DB 32
        DB 8
        DB 248
        DB 136
        DB 136
        DB 136
        DB 112
        DB 0
        DB 0
        DB 32
        DB 63
        DB 32
        DB 32
        DB 32
        DB 17
        DB 14
        DB 0
        DB 192
        DB 48
        DB 8
        DB 8
        DB 8
        DB 8
        DB 56
        DB 0
        DB 7
        DB 24
        DB 32
        DB 32
        DB 32
        DB 16
        DB 8
        DB 0
        DB 8
        DB 248
        DB 8
        DB 8
        DB 8
        DB 16
        DB 224
        DB 0
        DB 32
        DB 63
        DB 32
        DB 32
        DB 32
        DB 16
        DB 15
        DB 0
        DB 8
        DB 248
        DB 136
        DB 136
        DB 232
        DB 8
        DB 16
        DB 0
        DB 32
        DB 63
        DB 32
        DB 32
        DB 35
        DB 32
        DB 24
        DB 0
        DB 8
        DB 248
        DB 136
        DB 136
        DB 232
        DB 8
        DB 16
        DB 0
        DB 32
        DB 63
        DB 32
        DB 0
        DB 3
        DB 0
        DB 0
        DB 0
        DB 192
        DB 48
        DB 8
        DB 8
        DB 8
        DB 56
        DB 0
        DB 0
        DB 7
        DB 24
        DB 32
        DB 32
        DB 34
        DB 30
        DB 2
        DB 0
        DB 8
        DB 248
        DB 8
        DB 0
        DB 0
        DB 8
        DB 248
        DB 8
        DB 32
        DB 63
        DB 33
        DB 1
        DB 1
        DB 33
        DB 63
        DB 32
        DB 0
        DB 8
        DB 8
        DB 248
        DB 8
        DB 8
        DB 0
        DB 0
        DB 0
        DB 32
        DB 32
        DB 63
        DB 32
        DB 32
        DB 0
        DB 0
        DB 0
        DB 0
        DB 8
        DB 8
        DB 248
        DB 8
        DB 8
        DB 0
        DB 192
        DB 128
        DB 128
        DB 128
        DB 127
        DB 0
        DB 0
        DB 0
        DB 8
        DB 248
        DB 136
        DB 192
        DB 40
        DB 24
        DB 8
        DB 0
        DB 32
        DB 63
        DB 32
        DB 1
        DB 38
        DB 56
        DB 32
        DB 0
        DB 8
        DB 248
        DB 8
        DB 0
        DB 0
        DB 0
        DB 0
        DB 0
        DB 32
        DB 63
        DB 32
        DB 32
        DB 32
        DB 32
        DB 48
        DB 0
        DB 8
        DB 248
        DB 248
        DB 0
        DB 248
        DB 248
        DB 8
        DB 0
        DB 32
        DB 63
        DB 0
        DB 63
        DB 0
        DB 63
        DB 32
        DB 0
        DB 8
        DB 248
        DB 48
        DB 192
        DB 0
        DB 8
        DB 248
        DB 8
        DB 32
        DB 63
        DB 32
        DB 0
        DB 7
        DB 24
        DB 63
        DB 0
        DB 224
        DB 16
        DB 8
        DB 8
        DB 8
        DB 16
        DB 224
        DB 0
        DB 15
        DB 16
        DB 32
        DB 32
        DB 32
        DB 16
        DB 15
        DB 0
        DB 8
        DB 248
        DB 8
        DB 8
        DB 8
        DB 8
        DB 240
        DB 0
        DB 32
        DB 63
        DB 33
        DB 1
        DB 1
        DB 1
        DB 0
        DB 0
        DB 224
        DB 16
        DB 8
        DB 8
        DB 8
        DB 16
        DB 224
        DB 0
        DB 15
        DB 24
        DB 36
        DB 36
        DB 56
        DB 80
        DB 79
        DB 0
        DB 8
        DB 248
        DB 136
        DB 136
        DB 136
        DB 136
        DB 112
        DB 0
        DB 32
        DB 63
        DB 32
        DB 0
        DB 3
        DB 12
        DB 48
        DB 32
        DB 0
        DB 112
        DB 136
        DB 8
        DB 8
        DB 8
        DB 56
        DB 0
        DB 0
        DB 56
        DB 32
        DB 33
        DB 33
        DB 34
        DB 28
        DB 0
        DB 24
        DB 8
        DB 8
        DB 248
        DB 8
        DB 8
        DB 24
        DB 0
        DB 0
        DB 0
        DB 32
        DB 63
        DB 32
        DB 0
        DB 0
        DB 0
        DB 8
        DB 248
        DB 8
        DB 0
        DB 0
        DB 8
        DB 248
        DB 8
        DB 0
        DB 31
        DB 32
        DB 32
        DB 32
        DB 32
        DB 31
        DB 0
        DB 8
        DB 120
        DB 136
        DB 0
        DB 0
        DB 200
        DB 56
        DB 8
        DB 0
        DB 0
        DB 7
        DB 56
        DB 14
        DB 1
        DB 0
        DB 0
        DB 248
        DB 8
        DB 0
        DB 248
        DB 0
        DB 8
        DB 248
        DB 0
        DB 3
        DB 60
        DB 7
        DB 0
        DB 7
        DB 60
        DB 3
        DB 0
        DB 8
        DB 24
        DB 104
        DB 128
        DB 128
        DB 104
        DB 24
        DB 8
        DB 32
        DB 48
        DB 44
        DB 3
        DB 3
        DB 44
        DB 48
        DB 32
        DB 8
        DB 56
        DB 200
        DB 0
        DB 200
        DB 56
        DB 8
        DB 0
        DB 0
        DB 0
        DB 32
        DB 63
        DB 32
        DB 0
        DB 0
        DB 0
        DB 16
        DB 8
        DB 8
        DB 8
        DB 200
        DB 56
        DB 8
        DB 0
        DB 32
        DB 56
        DB 38
        DB 33
        DB 32
        DB 32
        DB 24
        DB 0
        DB 0
        DB 0
        DB 0
        DB 254
        DB 2
        DB 2
        DB 2
        DB 0
        DB 0
        DB 0
        DB 0
        DB 127
        DB 64
        DB 64
        DB 64
        DB 0
        DB 0
        DB 12
        DB 48
        DB 192
        DB 0
        DB 0
        DB 0
        DB 0
        DB 0
        DB 0
        DB 0
        DB 1
        DB 6
        DB 56
        DB 192
        DB 0
        DB 0
        DB 2
        DB 2
        DB 2
        DB 254
        DB 0
        DB 0
        DB 0
        DB 0
        DB 64
        DB 64
        DB 64
        DB 127
        DB 0
        DB 0
        DB 0
        DB 0
        DB 0
        DB 4
        DB 2
        DB 2
        DB 2
        DB 4
        DB 0
        DB 0
        DB 0
        DB 0
        DB 0
        DB 0
        DB 0
        DB 0
        DB 0
        DB 0
        DB 0
        DB 0
        DB 0
        DB 0
        DB 0
        DB 0
        DB 0
        DB 128
        DB 128
        DB 128
        DB 128
        DB 128
        DB 128
        DB 128
        DB 128
        DB 0
        DB 2
        DB 2
        DB 4
        DB 0
        DB 0
        DB 0
        DB 0
        DB 0
        DB 0
        DB 0
        DB 0
        DB 0
        DB 0
        DB 0
        DB 0
        DB 0
        DB 0
        DB 128
        DB 128
        DB 128
        DB 128
        DB 0
        DB 0
        DB 0
        DB 25
        DB 36
        DB 34
        DB 34
        DB 34
        DB 63
        DB 32
        DB 8
        DB 248
        DB 0
        DB 128
        DB 128
        DB 0
        DB 0
        DB 0
        DB 0
        DB 63
        DB 17
        DB 32
        DB 32
        DB 17
        DB 14
        DB 0
        DB 0
        DB 0
        DB 0
        DB 128
        DB 128
        DB 128
        DB 0
        DB 0
        DB 0
        DB 14
        DB 17
        DB 32
        DB 32
        DB 32
        DB 17
        DB 0
        DB 0
        DB 0
        DB 0
        DB 128
        DB 128
        DB 136
        DB 248
        DB 0
        DB 0
        DB 14
        DB 17
        DB 32
        DB 32
        DB 16
        DB 63
        DB 32
        DB 0
        DB 0
        DB 128
        DB 128
        DB 128
        DB 128
        DB 0
        DB 0
        DB 0
        DB 31
        DB 34
        DB 34
        DB 34
        DB 34
        DB 19
        DB 0
        DB 0
        DB 128
        DB 128
        DB 240
        DB 136
        DB 136
        DB 136
        DB 24
        DB 0
        DB 32
        DB 32
        DB 63
        DB 32
        DB 32
        DB 0
        DB 0
        DB 0
        DB 0
        DB 128
        DB 128
        DB 128
        DB 128
        DB 128
        DB 0
        DB 0
        DB 107
        DB 148
        DB 148
        DB 148
        DB 147
        DB 96
        DB 0
        DB 8
        DB 248
        DB 0
        DB 128
        DB 128
        DB 128
        DB 0
        DB 0
        DB 32
        DB 63
        DB 33
        DB 0
        DB 0
        DB 32
        DB 63
        DB 32
        DB 0
        DB 128
        DB 152
        DB 152
        DB 0
        DB 0
        DB 0
        DB 0
        DB 0
        DB 32
        DB 32
        DB 63
        DB 32
        DB 32
        DB 0
        DB 0
        DB 0
        DB 0
        DB 0
        DB 128
        DB 152
        DB 152
        DB 0
        DB 0
        DB 0
        DB 192
        DB 128
        DB 128
        DB 128
        DB 127
        DB 0
        DB 0
        DB 8
        DB 248
        DB 0
        DB 0
        DB 128
        DB 128
        DB 128
        DB 0
        DB 32
        DB 63
        DB 36
        DB 2
        DB 45
        DB 48
        DB 32
        DB 0
        DB 0
        DB 8
        DB 8
        DB 248
        DB 0
        DB 0
        DB 0
        DB 0
        DB 0
        DB 32
        DB 32
        DB 63
        DB 32
        DB 32
        DB 0
        DB 0
        DB 128
        DB 128
        DB 128
        DB 128
        DB 128
        DB 128
        DB 128
        DB 0
        DB 32
        DB 63
        DB 32
        DB 0
        DB 63
        DB 32
        DB 0
        DB 63
        DB 128
        DB 128
        DB 0
        DB 128
        DB 128
        DB 128
        DB 0
        DB 0
        DB 32
        DB 63
        DB 33
        DB 0
        DB 0
        DB 32
        DB 63
        DB 32
        DB 0
        DB 0
        DB 128
        DB 128
        DB 128
        DB 128
        DB 0
        DB 0
        DB 0
        DB 31
        DB 32
        DB 32
        DB 32
        DB 32
        DB 31
        DB 0
        DB 128
        DB 128
        DB 0
        DB 128
        DB 128
        DB 0
        DB 0
        DB 0
        DB 128
        DB 255
        DB 161
        DB 32
        DB 32
        DB 17
        DB 14
        DB 0
        DB 0
        DB 0
        DB 0
        DB 128
        DB 128
        DB 128
        DB 128
        DB 0
        DB 0
        DB 14
        DB 17
        DB 32
        DB 32
        DB 160
        DB 255
        DB 128
        DB 128
        DB 128
        DB 128
        DB 0
        DB 128
        DB 128
        DB 128
        DB 0
        DB 32
        DB 32
        DB 63
        DB 33
        DB 32
        DB 0
        DB 1
        DB 0
        DB 0
        DB 0
        DB 128
        DB 128
        DB 128
        DB 128
        DB 128
        DB 0
        DB 0
        DB 51
        DB 36
        DB 36
        DB 36
        DB 36
        DB 25
        DB 0
        DB 0
        DB 128
        DB 128
        DB 224
        DB 128
        DB 128
        DB 0
        DB 0
        DB 0
        DB 0
        DB 0
        DB 31
        DB 32
        DB 32
        DB 0
        DB 0
        DB 128
        DB 128
        DB 0
        DB 0
        DB 0
        DB 128
        DB 128
        DB 0
        DB 0
        DB 31
        DB 32
        DB 32
        DB 32
        DB 16
        DB 63
        DB 32
        DB 128
        DB 128
        DB 128
        DB 0
        DB 0
        DB 128
        DB 128
        DB 128
        DB 0
        DB 1
        DB 14
        DB 48
        DB 8
        DB 6
        DB 1
        DB 0
        DB 128
        DB 128
        DB 0
        DB 128
        DB 0
        DB 128
        DB 128
        DB 128
        DB 15
        DB 48
        DB 12
        DB 3
        DB 12
        DB 48
        DB 15
        DB 0
        DB 0
        DB 128
        DB 128
        DB 0
        DB 128
        DB 128
        DB 128
        DB 0
        DB 0
        DB 32
        DB 49
        DB 46
        DB 14
        DB 49
        DB 32
        DB 0
        DB 128
        DB 128
        DB 128
        DB 0
        DB 0
        DB 128
        DB 128
        DB 128
        DB 128
        DB 129
        DB 142
        DB 112
        DB 24
        DB 6
        DB 1
        DB 0
        DB 0
        DB 128
        DB 128
        DB 128
        DB 128
        DB 128
        DB 128
        DB 0
        DB 0
        DB 33
        DB 48
        DB 44
        DB 34
        DB 33
        DB 48
        DB 0
        DB 0
        DB 0
        DB 0
        DB 0
        DB 128
        DB 124
        DB 2
        DB 2
        DB 0
        DB 0
        DB 0
        DB 0
        DB 0
        DB 63
        DB 64
        DB 64
        DB 0
        DB 0
        DB 0
        DB 0
        DB 255
        DB 0
        DB 0
        DB 0
        DB 0
        DB 0
        DB 0
        DB 0
        DB 255
        DB 0
        DB 0
        DB 0
        DB 0
        DB 2
        DB 2
        DB 124
        DB 128
        DB 0
        DB 0
        DB 0
        DB 0
        DB 64
        DB 64
        DB 63
        DB 0
        DB 0
        DB 0
        DB 0
        DB 0
        DB 6
        DB 1
        DB 1
        DB 2
        DB 2
        DB 4
        DB 4
        DB 0
        DB 0
        DB 0
        DB 0
        DB 0
        DB 0
        DB 0
        DB 0
//  108 {
//  109   0x00,0x00,0x00,0x00,0x00,0x00,0x00,0x00,0x00,0x00,0x00,0x00,0x00,0x00,0x00,0x00,// 0
//  110   0x00,0x00,0x00,0xF8,0x00,0x00,0x00,0x00,0x00,0x00,0x00,0x33,0x30,0x00,0x00,0x00,//! 1
//  111   0x00,0x10,0x0C,0x06,0x10,0x0C,0x06,0x00,0x00,0x00,0x00,0x00,0x00,0x00,0x00,0x00,//" 2
//  112   0x40,0xC0,0x78,0x40,0xC0,0x78,0x40,0x00,0x04,0x3F,0x04,0x04,0x3F,0x04,0x04,0x00,//# 3
//  113   0x00,0x70,0x88,0xFC,0x08,0x30,0x00,0x00,0x00,0x18,0x20,0xFF,0x21,0x1E,0x00,0x00,//$ 4
//  114   0xF0,0x08,0xF0,0x00,0xE0,0x18,0x00,0x00,0x00,0x21,0x1C,0x03,0x1E,0x21,0x1E,0x00,//% 5
//  115   0x00,0xF0,0x08,0x88,0x70,0x00,0x00,0x00,0x1E,0x21,0x23,0x24,0x19,0x27,0x21,0x10,//& 6
//  116   0x10,0x16,0x0E,0x00,0x00,0x00,0x00,0x00,0x00,0x00,0x00,0x00,0x00,0x00,0x00,0x00,//' 7
//  117   0x00,0x00,0x00,0xE0,0x18,0x04,0x02,0x00,0x00,0x00,0x00,0x07,0x18,0x20,0x40,0x00,//( 8
//  118   0x00,0x02,0x04,0x18,0xE0,0x00,0x00,0x00,0x00,0x40,0x20,0x18,0x07,0x00,0x00,0x00,//) 9
//  119   0x40,0x40,0x80,0xF0,0x80,0x40,0x40,0x00,0x02,0x02,0x01,0x0F,0x01,0x02,0x02,0x00,//* 10
//  120   0x00,0x00,0x00,0xF0,0x00,0x00,0x00,0x00,0x01,0x01,0x01,0x1F,0x01,0x01,0x01,0x00,//+ 11
//  121   0x00,0x00,0x00,0x00,0x00,0x00,0x00,0x00,0x80,0xB0,0x70,0x00,0x00,0x00,0x00,0x00,//, 12
//  122   0x00,0x00,0x00,0x00,0x00,0x00,0x00,0x00,0x00,0x01,0x01,0x01,0x01,0x01,0x01,0x01,//- 13
//  123   0x00,0x00,0x00,0x00,0x00,0x00,0x00,0x00,0x00,0x30,0x30,0x00,0x00,0x00,0x00,0x00,//. 14
//  124   0x00,0x00,0x00,0x00,0x80,0x60,0x18,0x04,0x00,0x60,0x18,0x06,0x01,0x00,0x00,0x00,/// 15
//  125   0x00,0xE0,0x10,0x08,0x08,0x10,0xE0,0x00,0x00,0x0F,0x10,0x20,0x20,0x10,0x0F,0x00,//0 16
//  126   0x00,0x10,0x10,0xF8,0x00,0x00,0x00,0x00,0x00,0x20,0x20,0x3F,0x20,0x20,0x00,0x00,//1 17
//  127   0x00,0x70,0x08,0x08,0x08,0x88,0x70,0x00,0x00,0x30,0x28,0x24,0x22,0x21,0x30,0x00,//2 18
//  128   0x00,0x30,0x08,0x88,0x88,0x48,0x30,0x00,0x00,0x18,0x20,0x20,0x20,0x11,0x0E,0x00,//3 19
//  129   0x00,0x00,0xC0,0x20,0x10,0xF8,0x00,0x00,0x00,0x07,0x04,0x24,0x24,0x3F,0x24,0x00,//4 20
//  130   0x00,0xF8,0x08,0x88,0x88,0x08,0x08,0x00,0x00,0x19,0x21,0x20,0x20,0x11,0x0E,0x00,//5 21
//  131   0x00,0xE0,0x10,0x88,0x88,0x18,0x00,0x00,0x00,0x0F,0x11,0x20,0x20,0x11,0x0E,0x00,//6 22
//  132   0x00,0x38,0x08,0x08,0xC8,0x38,0x08,0x00,0x00,0x00,0x00,0x3F,0x00,0x00,0x00,0x00,//7 23
//  133   0x00,0x70,0x88,0x08,0x08,0x88,0x70,0x00,0x00,0x1C,0x22,0x21,0x21,0x22,0x1C,0x00,//8 24
//  134   0x00,0xE0,0x10,0x08,0x08,0x10,0xE0,0x00,0x00,0x00,0x31,0x22,0x22,0x11,0x0F,0x00,//9 25
//  135   0x00,0x00,0x00,0xC0,0xC0,0x00,0x00,0x00,0x00,0x00,0x00,0x30,0x30,0x00,0x00,0x00,//: 26
//  136   0x00,0x00,0x00,0x80,0x00,0x00,0x00,0x00,0x00,0x00,0x80,0x60,0x00,0x00,0x00,0x00,//; 27
//  137   0x00,0x00,0x80,0x40,0x20,0x10,0x08,0x00,0x00,0x01,0x02,0x04,0x08,0x10,0x20,0x00,//< 28
//  138   0x40,0x40,0x40,0x40,0x40,0x40,0x40,0x00,0x04,0x04,0x04,0x04,0x04,0x04,0x04,0x00,//= 29
//  139   0x00,0x08,0x10,0x20,0x40,0x80,0x00,0x00,0x00,0x20,0x10,0x08,0x04,0x02,0x01,0x00,//> 30
//  140   0x00,0x70,0x48,0x08,0x08,0x08,0xF0,0x00,0x00,0x00,0x00,0x30,0x36,0x01,0x00,0x00,//? 31
//  141   0xC0,0x30,0xC8,0x28,0xE8,0x10,0xE0,0x00,0x07,0x18,0x27,0x24,0x23,0x14,0x0B,0x00,//@ 32
//  142   0x00,0x00,0xC0,0x38,0xE0,0x00,0x00,0x00,0x20,0x3C,0x23,0x02,0x02,0x27,0x38,0x20,//A 33
//  143   0x08,0xF8,0x88,0x88,0x88,0x70,0x00,0x00,0x20,0x3F,0x20,0x20,0x20,0x11,0x0E,0x00,//B 34
//  144   0xC0,0x30,0x08,0x08,0x08,0x08,0x38,0x00,0x07,0x18,0x20,0x20,0x20,0x10,0x08,0x00,//C 35
//  145   0x08,0xF8,0x08,0x08,0x08,0x10,0xE0,0x00,0x20,0x3F,0x20,0x20,0x20,0x10,0x0F,0x00,//D 36
//  146   0x08,0xF8,0x88,0x88,0xE8,0x08,0x10,0x00,0x20,0x3F,0x20,0x20,0x23,0x20,0x18,0x00,//E 37
//  147   0x08,0xF8,0x88,0x88,0xE8,0x08,0x10,0x00,0x20,0x3F,0x20,0x00,0x03,0x00,0x00,0x00,//F 38
//  148   0xC0,0x30,0x08,0x08,0x08,0x38,0x00,0x00,0x07,0x18,0x20,0x20,0x22,0x1E,0x02,0x00,//G 39
//  149   0x08,0xF8,0x08,0x00,0x00,0x08,0xF8,0x08,0x20,0x3F,0x21,0x01,0x01,0x21,0x3F,0x20,//H 40
//  150   0x00,0x08,0x08,0xF8,0x08,0x08,0x00,0x00,0x00,0x20,0x20,0x3F,0x20,0x20,0x00,0x00,//I 41
//  151   0x00,0x00,0x08,0x08,0xF8,0x08,0x08,0x00,0xC0,0x80,0x80,0x80,0x7F,0x00,0x00,0x00,//J 42
//  152   0x08,0xF8,0x88,0xC0,0x28,0x18,0x08,0x00,0x20,0x3F,0x20,0x01,0x26,0x38,0x20,0x00,//K 43
//  153   0x08,0xF8,0x08,0x00,0x00,0x00,0x00,0x00,0x20,0x3F,0x20,0x20,0x20,0x20,0x30,0x00,//L 44
//  154   0x08,0xF8,0xF8,0x00,0xF8,0xF8,0x08,0x00,0x20,0x3F,0x00,0x3F,0x00,0x3F,0x20,0x00,//M 45
//  155   0x08,0xF8,0x30,0xC0,0x00,0x08,0xF8,0x08,0x20,0x3F,0x20,0x00,0x07,0x18,0x3F,0x00,//N 46
//  156   0xE0,0x10,0x08,0x08,0x08,0x10,0xE0,0x00,0x0F,0x10,0x20,0x20,0x20,0x10,0x0F,0x00,//O 47
//  157   0x08,0xF8,0x08,0x08,0x08,0x08,0xF0,0x00,0x20,0x3F,0x21,0x01,0x01,0x01,0x00,0x00,//P 48
//  158   0xE0,0x10,0x08,0x08,0x08,0x10,0xE0,0x00,0x0F,0x18,0x24,0x24,0x38,0x50,0x4F,0x00,//Q 49
//  159   0x08,0xF8,0x88,0x88,0x88,0x88,0x70,0x00,0x20,0x3F,0x20,0x00,0x03,0x0C,0x30,0x20,//R 50
//  160   0x00,0x70,0x88,0x08,0x08,0x08,0x38,0x00,0x00,0x38,0x20,0x21,0x21,0x22,0x1C,0x00,//S 51
//  161   0x18,0x08,0x08,0xF8,0x08,0x08,0x18,0x00,0x00,0x00,0x20,0x3F,0x20,0x00,0x00,0x00,//T 52
//  162   0x08,0xF8,0x08,0x00,0x00,0x08,0xF8,0x08,0x00,0x1F,0x20,0x20,0x20,0x20,0x1F,0x00,//U 53
//  163   0x08,0x78,0x88,0x00,0x00,0xC8,0x38,0x08,0x00,0x00,0x07,0x38,0x0E,0x01,0x00,0x00,//V 54
//  164   0xF8,0x08,0x00,0xF8,0x00,0x08,0xF8,0x00,0x03,0x3C,0x07,0x00,0x07,0x3C,0x03,0x00,//W 55
//  165   0x08,0x18,0x68,0x80,0x80,0x68,0x18,0x08,0x20,0x30,0x2C,0x03,0x03,0x2C,0x30,0x20,//X 56
//  166   0x08,0x38,0xC8,0x00,0xC8,0x38,0x08,0x00,0x00,0x00,0x20,0x3F,0x20,0x00,0x00,0x00,//Y 57
//  167   0x10,0x08,0x08,0x08,0xC8,0x38,0x08,0x00,0x20,0x38,0x26,0x21,0x20,0x20,0x18,0x00,//Z 58
//  168   0x00,0x00,0x00,0xFE,0x02,0x02,0x02,0x00,0x00,0x00,0x00,0x7F,0x40,0x40,0x40,0x00,//[ 59
//  169   0x00,0x0C,0x30,0xC0,0x00,0x00,0x00,0x00,0x00,0x00,0x00,0x01,0x06,0x38,0xC0,0x00,//\ 60
//  170   0x00,0x02,0x02,0x02,0xFE,0x00,0x00,0x00,0x00,0x40,0x40,0x40,0x7F,0x00,0x00,0x00,//] 61
//  171   0x00,0x00,0x04,0x02,0x02,0x02,0x04,0x00,0x00,0x00,0x00,0x00,0x00,0x00,0x00,0x00,//^ 62
//  172   0x00,0x00,0x00,0x00,0x00,0x00,0x00,0x00,0x80,0x80,0x80,0x80,0x80,0x80,0x80,0x80,//_ 63
//  173   0x00,0x02,0x02,0x04,0x00,0x00,0x00,0x00,0x00,0x00,0x00,0x00,0x00,0x00,0x00,0x00,//` 64
//  174   0x00,0x00,0x80,0x80,0x80,0x80,0x00,0x00,0x00,0x19,0x24,0x22,0x22,0x22,0x3F,0x20,//a 65
//  175   0x08,0xF8,0x00,0x80,0x80,0x00,0x00,0x00,0x00,0x3F,0x11,0x20,0x20,0x11,0x0E,0x00,//b 66
//  176   0x00,0x00,0x00,0x80,0x80,0x80,0x00,0x00,0x00,0x0E,0x11,0x20,0x20,0x20,0x11,0x00,//c 67
//  177   0x00,0x00,0x00,0x80,0x80,0x88,0xF8,0x00,0x00,0x0E,0x11,0x20,0x20,0x10,0x3F,0x20,//d 68
//  178   0x00,0x00,0x80,0x80,0x80,0x80,0x00,0x00,0x00,0x1F,0x22,0x22,0x22,0x22,0x13,0x00,//e 69
//  179   0x00,0x80,0x80,0xF0,0x88,0x88,0x88,0x18,0x00,0x20,0x20,0x3F,0x20,0x20,0x00,0x00,//f 70
//  180   0x00,0x00,0x80,0x80,0x80,0x80,0x80,0x00,0x00,0x6B,0x94,0x94,0x94,0x93,0x60,0x00,//g 71
//  181   0x08,0xF8,0x00,0x80,0x80,0x80,0x00,0x00,0x20,0x3F,0x21,0x00,0x00,0x20,0x3F,0x20,//h 72
//  182   0x00,0x80,0x98,0x98,0x00,0x00,0x00,0x00,0x00,0x20,0x20,0x3F,0x20,0x20,0x00,0x00,//i 73
//  183   0x00,0x00,0x00,0x80,0x98,0x98,0x00,0x00,0x00,0xC0,0x80,0x80,0x80,0x7F,0x00,0x00,//j 74
//  184   0x08,0xF8,0x00,0x00,0x80,0x80,0x80,0x00,0x20,0x3F,0x24,0x02,0x2D,0x30,0x20,0x00,//k 75
//  185   0x00,0x08,0x08,0xF8,0x00,0x00,0x00,0x00,0x00,0x20,0x20,0x3F,0x20,0x20,0x00,0x00,//l 76
//  186   0x80,0x80,0x80,0x80,0x80,0x80,0x80,0x00,0x20,0x3F,0x20,0x00,0x3F,0x20,0x00,0x3F,//m 77
//  187   0x80,0x80,0x00,0x80,0x80,0x80,0x00,0x00,0x20,0x3F,0x21,0x00,0x00,0x20,0x3F,0x20,//n 78
//  188   0x00,0x00,0x80,0x80,0x80,0x80,0x00,0x00,0x00,0x1F,0x20,0x20,0x20,0x20,0x1F,0x00,//o 79
//  189   0x80,0x80,0x00,0x80,0x80,0x00,0x00,0x00,0x80,0xFF,0xA1,0x20,0x20,0x11,0x0E,0x00,//p 80
//  190   0x00,0x00,0x00,0x80,0x80,0x80,0x80,0x00,0x00,0x0E,0x11,0x20,0x20,0xA0,0xFF,0x80,//q 81
//  191   0x80,0x80,0x80,0x00,0x80,0x80,0x80,0x00,0x20,0x20,0x3F,0x21,0x20,0x00,0x01,0x00,//r 82
//  192   0x00,0x00,0x80,0x80,0x80,0x80,0x80,0x00,0x00,0x33,0x24,0x24,0x24,0x24,0x19,0x00,//s 83
//  193   0x00,0x80,0x80,0xE0,0x80,0x80,0x00,0x00,0x00,0x00,0x00,0x1F,0x20,0x20,0x00,0x00,//t 84
//  194   0x80,0x80,0x00,0x00,0x00,0x80,0x80,0x00,0x00,0x1F,0x20,0x20,0x20,0x10,0x3F,0x20,//u 85
//  195   0x80,0x80,0x80,0x00,0x00,0x80,0x80,0x80,0x00,0x01,0x0E,0x30,0x08,0x06,0x01,0x00,//v 86
//  196   0x80,0x80,0x00,0x80,0x00,0x80,0x80,0x80,0x0F,0x30,0x0C,0x03,0x0C,0x30,0x0F,0x00,//w 87
//  197   0x00,0x80,0x80,0x00,0x80,0x80,0x80,0x00,0x00,0x20,0x31,0x2E,0x0E,0x31,0x20,0x00,//x 88
//  198   0x80,0x80,0x80,0x00,0x00,0x80,0x80,0x80,0x80,0x81,0x8E,0x70,0x18,0x06,0x01,0x00,//y 89
//  199   0x00,0x80,0x80,0x80,0x80,0x80,0x80,0x00,0x00,0x21,0x30,0x2C,0x22,0x21,0x30,0x00,//z 90
//  200   0x00,0x00,0x00,0x00,0x80,0x7C,0x02,0x02,0x00,0x00,0x00,0x00,0x00,0x3F,0x40,0x40,//{ 91
//  201   0x00,0x00,0x00,0x00,0xFF,0x00,0x00,0x00,0x00,0x00,0x00,0x00,0xFF,0x00,0x00,0x00,//| 92
//  202   0x00,0x02,0x02,0x7C,0x80,0x00,0x00,0x00,0x00,0x40,0x40,0x3F,0x00,0x00,0x00,0x00,//} 93
//  203   0x00,0x06,0x01,0x01,0x02,0x02,0x04,0x04,0x00,0x00,0x00,0x00,0x00,0x00,0x00,0x00,//~ 94
//  204 };
//  205 

        RSEG XDATA_I:XDATA:NOROOT(0)
//  206 unsigned char Hzk[][32]={
Hzk:
        DATA8
        DS 448
        REQUIRE `?<Initializer for Hzk>`
        REQUIRE __INIT_XDATA_I
//  207 {0x00,0x00,0xF0,0x10,0x10,0x10,0x10,0xFF,0x10,0x10,0x10,0x10,0xF0,0x00,0x00,0x00},
//  208 {0x00,0x00,0x0F,0x04,0x04,0x04,0x04,0xFF,0x04,0x04,0x04,0x04,0x0F,0x00,0x00,0x00},/*"中",0*/
//  209 
//  210 {0x40,0x40,0x40,0x5F,0x55,0x55,0x55,0x75,0x55,0x55,0x55,0x5F,0x40,0x40,0x40,0x00},
//  211 {0x00,0x40,0x20,0x0F,0x09,0x49,0x89,0x79,0x09,0x09,0x09,0x0F,0x20,0x40,0x00,0x00},/*"景",1*/
//  212 
//  213 {0x00,0xFE,0x02,0x42,0x4A,0xCA,0x4A,0x4A,0xCA,0x4A,0x4A,0x42,0x02,0xFE,0x00,0x00},
//  214 {0x00,0xFF,0x40,0x50,0x4C,0x43,0x40,0x40,0x4F,0x50,0x50,0x5C,0x40,0xFF,0x00,0x00},/*"园",2*/
//  215 
//  216 {0x00,0x00,0xF8,0x88,0x88,0x88,0x88,0xFF,0x88,0x88,0x88,0x88,0xF8,0x00,0x00,0x00},
//  217 {0x00,0x00,0x1F,0x08,0x08,0x08,0x08,0x7F,0x88,0x88,0x88,0x88,0x9F,0x80,0xF0,0x00},/*"电",3*/
//  218 
//  219 {0x80,0x82,0x82,0x82,0x82,0x82,0x82,0xE2,0xA2,0x92,0x8A,0x86,0x82,0x80,0x80,0x00},
//  220 {0x00,0x00,0x00,0x00,0x00,0x40,0x80,0x7F,0x00,0x00,0x00,0x00,0x00,0x00,0x00,0x00},/*"子",4*/
//  221 
//  222 {0x24,0x24,0xA4,0xFE,0xA3,0x22,0x00,0x22,0xCC,0x00,0x00,0xFF,0x00,0x00,0x00,0x00},
//  223 {0x08,0x06,0x01,0xFF,0x00,0x01,0x04,0x04,0x04,0x04,0x04,0xFF,0x02,0x02,0x02,0x00},/*"科",5*/
//  224 
//  225 {0x10,0x10,0x10,0xFF,0x10,0x90,0x08,0x88,0x88,0x88,0xFF,0x88,0x88,0x88,0x08,0x00},
//  226 {0x04,0x44,0x82,0x7F,0x01,0x80,0x80,0x40,0x43,0x2C,0x10,0x28,0x46,0x81,0x80,0x00},/*"技",6*/
//  227 };
//  228 
//  229 
//  230 
//  231 /**********************************************
//  232 // IIC Write Command
//  233 **********************************************/

        RSEG BANKED_CODE:HUGECODE:NOROOT(0)
//  234 void Write_IIC_Command(unsigned char IIC_Command){
Write_IIC_Command:
          CFI Block cfiBlock0 Using cfiCommon0
          CFI Function Write_IIC_Command
        CODE
        FUNCALL Write_IIC_Command, OLED_Start
        LOCFRAME ISTACK, 0, STACK
        LOCFRAME PSTACK, 0, STACK
        LOCFRAME XSTACK, 9, STACK
        LOCFRAME IOVERLAY, 0, STATIC
        LOCFRAME DOVERLAY, 0, STATIC
        ARGFRAME ISTACK, 0, STACK
        ARGFRAME PSTACK, 0, STACK
        ARGFRAME XSTACK, 9, STACK
        ARGFRAME IOVERLAY, 0, STATIC
        ARGFRAME DOVERLAY, 0, STATIC
        FUNCALL Write_IIC_Command, OLED_SendByte
        LOCFRAME ISTACK, 0, STACK
        LOCFRAME PSTACK, 0, STACK
        LOCFRAME XSTACK, 9, STACK
        LOCFRAME IOVERLAY, 0, STATIC
        LOCFRAME DOVERLAY, 0, STATIC
        ARGFRAME ISTACK, 0, STACK
        ARGFRAME PSTACK, 0, STACK
        ARGFRAME XSTACK, 9, STACK
        ARGFRAME IOVERLAY, 0, STATIC
        ARGFRAME DOVERLAY, 0, STATIC
        FUNCALL Write_IIC_Command, OLED_SendByte
        LOCFRAME ISTACK, 0, STACK
        LOCFRAME PSTACK, 0, STACK
        LOCFRAME XSTACK, 9, STACK
        LOCFRAME IOVERLAY, 0, STATIC
        LOCFRAME DOVERLAY, 0, STATIC
        ARGFRAME ISTACK, 0, STACK
        ARGFRAME PSTACK, 0, STACK
        ARGFRAME XSTACK, 9, STACK
        ARGFRAME IOVERLAY, 0, STATIC
        ARGFRAME DOVERLAY, 0, STATIC
        FUNCALL Write_IIC_Command, OLED_SendByte
        LOCFRAME ISTACK, 0, STACK
        LOCFRAME PSTACK, 0, STACK
        LOCFRAME XSTACK, 9, STACK
        LOCFRAME IOVERLAY, 0, STATIC
        LOCFRAME DOVERLAY, 0, STATIC
        ARGFRAME ISTACK, 0, STACK
        ARGFRAME PSTACK, 0, STACK
        ARGFRAME XSTACK, 9, STACK
        ARGFRAME IOVERLAY, 0, STATIC
        ARGFRAME DOVERLAY, 0, STATIC
        FUNCALL Write_IIC_Command, OLED_Stop
        LOCFRAME ISTACK, 0, STACK
        LOCFRAME PSTACK, 0, STACK
        LOCFRAME XSTACK, 9, STACK
        LOCFRAME IOVERLAY, 0, STATIC
        LOCFRAME DOVERLAY, 0, STATIC
        ARGFRAME ISTACK, 0, STACK
        ARGFRAME PSTACK, 0, STACK
        ARGFRAME XSTACK, 9, STACK
        ARGFRAME IOVERLAY, 0, STATIC
        ARGFRAME DOVERLAY, 0, STATIC
        MOV       A,#-0x9
        LCALL     ?BANKED_ENTER_XDATA
          CFI DPH0 load(1, XDATA, add(CFA_XSP16, literal(-1)))
          CFI DPL0 load(1, XDATA, add(CFA_XSP16, literal(-2)))
          CFI ?BRET_EXT load(1, XDATA, add(CFA_XSP16, literal(-3)))
          CFI ?RET_HIGH load(1, XDATA, add(CFA_XSP16, literal(-4)))
          CFI ?RET_LOW load(1, XDATA, add(CFA_XSP16, literal(-5)))
          CFI R7 load(1, XDATA, add(CFA_XSP16, literal(-6)))
          CFI V0 load(1, XDATA, add(CFA_XSP16, literal(-7)))
          CFI VB load(1, XDATA, add(CFA_XSP16, literal(-8)))
          CFI R6 load(1, XDATA, add(CFA_XSP16, literal(-9)))
          CFI CFA_SP SP+0
          CFI CFA_XSP16 add(XSP16, 9)
        ; Saved register size: 9
        ; Auto size: 0
        LCALL     ?Subroutine6 & 0xFFFF
//  235   OLED_Start();
//  236   OLED_SendByte(0x78);            //Slave address,SA0=0
//  237 	
//  238   OLED_SendByte(0x00);			//write command
??CrossCallReturnLabel_7:
        ; Setup parameters for call to function OLED_SendByte
        MOV       R1,#0x0
        LJMP      ?Subroutine0 & 0xFFFF
//  239 
//  240   OLED_SendByte(IIC_Command); 
//  241 
//  242   OLED_Stop();
//  243 }
          CFI EndBlock cfiBlock0
//  244 /**********************************************
//  245 // IIC Write Data
//  246 **********************************************/

        RSEG BANKED_CODE:HUGECODE:NOROOT(0)
//  247 void Write_IIC_Data(unsigned char IIC_Data){
Write_IIC_Data:
          CFI Block cfiBlock1 Using cfiCommon0
          CFI Function Write_IIC_Data
        CODE
        FUNCALL Write_IIC_Data, OLED_Start
        LOCFRAME ISTACK, 0, STACK
        LOCFRAME PSTACK, 0, STACK
        LOCFRAME XSTACK, 9, STACK
        LOCFRAME IOVERLAY, 0, STATIC
        LOCFRAME DOVERLAY, 0, STATIC
        ARGFRAME ISTACK, 0, STACK
        ARGFRAME PSTACK, 0, STACK
        ARGFRAME XSTACK, 9, STACK
        ARGFRAME IOVERLAY, 0, STATIC
        ARGFRAME DOVERLAY, 0, STATIC
        FUNCALL Write_IIC_Data, OLED_SendByte
        LOCFRAME ISTACK, 0, STACK
        LOCFRAME PSTACK, 0, STACK
        LOCFRAME XSTACK, 9, STACK
        LOCFRAME IOVERLAY, 0, STATIC
        LOCFRAME DOVERLAY, 0, STATIC
        ARGFRAME ISTACK, 0, STACK
        ARGFRAME PSTACK, 0, STACK
        ARGFRAME XSTACK, 9, STACK
        ARGFRAME IOVERLAY, 0, STATIC
        ARGFRAME DOVERLAY, 0, STATIC
        FUNCALL Write_IIC_Data, OLED_SendByte
        LOCFRAME ISTACK, 0, STACK
        LOCFRAME PSTACK, 0, STACK
        LOCFRAME XSTACK, 9, STACK
        LOCFRAME IOVERLAY, 0, STATIC
        LOCFRAME DOVERLAY, 0, STATIC
        ARGFRAME ISTACK, 0, STACK
        ARGFRAME PSTACK, 0, STACK
        ARGFRAME XSTACK, 9, STACK
        ARGFRAME IOVERLAY, 0, STATIC
        ARGFRAME DOVERLAY, 0, STATIC
        FUNCALL Write_IIC_Data, OLED_SendByte
        LOCFRAME ISTACK, 0, STACK
        LOCFRAME PSTACK, 0, STACK
        LOCFRAME XSTACK, 9, STACK
        LOCFRAME IOVERLAY, 0, STATIC
        LOCFRAME DOVERLAY, 0, STATIC
        ARGFRAME ISTACK, 0, STACK
        ARGFRAME PSTACK, 0, STACK
        ARGFRAME XSTACK, 9, STACK
        ARGFRAME IOVERLAY, 0, STATIC
        ARGFRAME DOVERLAY, 0, STATIC
        FUNCALL Write_IIC_Data, OLED_Stop
        LOCFRAME ISTACK, 0, STACK
        LOCFRAME PSTACK, 0, STACK
        LOCFRAME XSTACK, 9, STACK
        LOCFRAME IOVERLAY, 0, STATIC
        LOCFRAME DOVERLAY, 0, STATIC
        ARGFRAME ISTACK, 0, STACK
        ARGFRAME PSTACK, 0, STACK
        ARGFRAME XSTACK, 9, STACK
        ARGFRAME IOVERLAY, 0, STATIC
        ARGFRAME DOVERLAY, 0, STATIC
        MOV       A,#-0x9
        LCALL     ?BANKED_ENTER_XDATA
          CFI DPH0 load(1, XDATA, add(CFA_XSP16, literal(-1)))
          CFI DPL0 load(1, XDATA, add(CFA_XSP16, literal(-2)))
          CFI ?BRET_EXT load(1, XDATA, add(CFA_XSP16, literal(-3)))
          CFI ?RET_HIGH load(1, XDATA, add(CFA_XSP16, literal(-4)))
          CFI ?RET_LOW load(1, XDATA, add(CFA_XSP16, literal(-5)))
          CFI R7 load(1, XDATA, add(CFA_XSP16, literal(-6)))
          CFI V0 load(1, XDATA, add(CFA_XSP16, literal(-7)))
          CFI VB load(1, XDATA, add(CFA_XSP16, literal(-8)))
          CFI R6 load(1, XDATA, add(CFA_XSP16, literal(-9)))
          CFI CFA_SP SP+0
          CFI CFA_XSP16 add(XSP16, 9)
        ; Saved register size: 9
        ; Auto size: 0
        LCALL     ?Subroutine6 & 0xFFFF
//  248   OLED_Start();
//  249   OLED_SendByte(0x78);			//D/C#=0; R/W#=0
//  250 
//  251   OLED_SendByte(0x40);			//write data
??CrossCallReturnLabel_8:
        ; Setup parameters for call to function OLED_SendByte
        MOV       R1,#0x40
        LJMP      ?Subroutine0 & 0xFFFF
//  252 	
//  253   OLED_SendByte(IIC_Data);
//  254 
//  255   OLED_Stop();
//  256 }
          CFI EndBlock cfiBlock1

        RSEG BANKED_CODE:HUGECODE:NOROOT(0)
?Subroutine6:
          CFI Block cfiCond2 Using cfiCommon0
          CFI Function Write_IIC_Command
          CFI Conditional ??CrossCallReturnLabel_7
          CFI R6 load(1, XDATA, add(CFA_XSP16, literal(-9)))
          CFI VB load(1, XDATA, add(CFA_XSP16, literal(-8)))
          CFI V0 load(1, XDATA, add(CFA_XSP16, literal(-7)))
          CFI R7 load(1, XDATA, add(CFA_XSP16, literal(-6)))
          CFI ?RET_LOW load(1, XDATA, add(CFA_XSP16, literal(-5)))
          CFI ?RET_HIGH load(1, XDATA, add(CFA_XSP16, literal(-4)))
          CFI ?BRET_EXT load(1, XDATA, add(CFA_XSP16, literal(-3)))
          CFI DPL0 load(1, XDATA, add(CFA_XSP16, literal(-2)))
          CFI DPH0 load(1, XDATA, add(CFA_XSP16, literal(-1)))
          CFI CFA_SP SP+-2
          CFI CFA_XSP16 add(XSP16, 9)
          CFI Block cfiCond3 Using cfiCommon0
          CFI (cfiCond3) Function Write_IIC_Data
          CFI (cfiCond3) Conditional ??CrossCallReturnLabel_8
          CFI (cfiCond3) R6 load(1, XDATA, add(CFA_XSP16, literal(-9)))
          CFI (cfiCond3) VB load(1, XDATA, add(CFA_XSP16, literal(-8)))
          CFI (cfiCond3) V0 load(1, XDATA, add(CFA_XSP16, literal(-7)))
          CFI (cfiCond3) R7 load(1, XDATA, add(CFA_XSP16, literal(-6)))
          CFI (cfiCond3) ?RET_LOW load(1, XDATA, add(CFA_XSP16, literal(-5)))
          CFI (cfiCond3) ?RET_HIGH load(1, XDATA, add(CFA_XSP16, literal(-4)))
          CFI (cfiCond3) ?BRET_EXT load(1, XDATA, add(CFA_XSP16, literal(-3)))
          CFI (cfiCond3) DPL0 load(1, XDATA, add(CFA_XSP16, literal(-2)))
          CFI (cfiCond3) DPH0 load(1, XDATA, add(CFA_XSP16, literal(-1)))
          CFI (cfiCond3) CFA_SP SP+-2
          CFI (cfiCond3) CFA_XSP16 add(XSP16, 9)
          CFI Block cfiPicker4 Using cfiCommon1
          CFI (cfiPicker4) NoFunction
          CFI (cfiPicker4) Picker
        MOV       A,R1
        MOV       R6,A
        ; Setup parameters for call to function OLED_Start
        ; Setup parameters for call to function OLED_Start
        LCALL     `??OLED_Start::?relay`; Banked call to: OLED_Start
        ; Setup parameters for call to function OLED_SendByte
        ; Setup parameters for call to function OLED_SendByte
        MOV       R1,#0x78
        LCALL     `??OLED_SendByte::?relay`; Banked call to: OLED_SendByte
        RET
          CFI EndBlock cfiCond2
          CFI EndBlock cfiCond3
          CFI EndBlock cfiPicker4

        RSEG BANKED_CODE:HUGECODE:NOROOT(0)
//  257 void OLED_WR_Byte(unsigned dat,unsigned cmd){
OLED_WR_Byte:
          CFI Block cfiBlock5 Using cfiCommon0
          CFI Function OLED_WR_Byte
        CODE
        FUNCALL OLED_WR_Byte, Write_IIC_Data
        LOCFRAME ISTACK, 2, STACK
        LOCFRAME PSTACK, 0, STACK
        LOCFRAME XSTACK, 0, STACK
        LOCFRAME IOVERLAY, 0, STATIC
        LOCFRAME DOVERLAY, 0, STATIC
        ARGFRAME ISTACK, 2, STACK
        ARGFRAME PSTACK, 0, STACK
        ARGFRAME XSTACK, 0, STACK
        ARGFRAME IOVERLAY, 0, STATIC
        ARGFRAME DOVERLAY, 0, STATIC
        FUNCALL OLED_WR_Byte, Write_IIC_Command
        LOCFRAME ISTACK, 2, STACK
        LOCFRAME PSTACK, 0, STACK
        LOCFRAME XSTACK, 0, STACK
        LOCFRAME IOVERLAY, 0, STATIC
        LOCFRAME DOVERLAY, 0, STATIC
        ARGFRAME ISTACK, 2, STACK
        ARGFRAME PSTACK, 0, STACK
        ARGFRAME XSTACK, 0, STACK
        ARGFRAME IOVERLAY, 0, STATIC
        ARGFRAME DOVERLAY, 0, STATIC
        PUSH      DPL
          CFI DPL0 Frame(CFA_SP, 4)
          CFI CFA_SP SP+-4
        PUSH      DPH
          CFI DPH0 Frame(CFA_SP, 5)
          CFI CFA_SP SP+-5
        ; Saved register size: 2
        ; Auto size: 0
//  258   if(cmd){
        MOV       A,R4
        ORL       A,R5
        JZ        ??OLED_WR_Byte_0
//  259     Write_IIC_Data(dat);
        ; Setup parameters for call to function Write_IIC_Data
        MOV       A,R2
        MOV       R1,A
        LCALL     `??Write_IIC_Data::?relay`; Banked call to: Write_IIC_Data
        SJMP      ??OLED_WR_Byte_1
//  260   }
//  261   else{
//  262     Write_IIC_Command(dat);
??OLED_WR_Byte_0:
        ; Setup parameters for call to function Write_IIC_Command
        MOV       A,R2
        MOV       R1,A
        LCALL     `??Write_IIC_Command::?relay`; Banked call to: Write_IIC_Command
//  263   }
//  264 }
??OLED_WR_Byte_1:
        LJMP      ??Subroutine18_0 & 0xFFFF
          CFI EndBlock cfiBlock5
//  265 
//  266 /********************************************
//  267 // fill_Picture
//  268 ********************************************/

        RSEG BANKED_CODE:HUGECODE:NOROOT(0)
//  269 void fill_picture(unsigned char fill_Data){
fill_picture:
          CFI Block cfiBlock6 Using cfiCommon0
          CFI Function fill_picture
        CODE
        FUNCALL fill_picture, OLED_WR_Byte
        LOCFRAME ISTACK, 0, STACK
        LOCFRAME PSTACK, 0, STACK
        LOCFRAME XSTACK, 9, STACK
        LOCFRAME IOVERLAY, 0, STATIC
        LOCFRAME DOVERLAY, 0, STATIC
        ARGFRAME ISTACK, 0, STACK
        ARGFRAME PSTACK, 0, STACK
        ARGFRAME XSTACK, 9, STACK
        ARGFRAME IOVERLAY, 0, STATIC
        ARGFRAME DOVERLAY, 0, STATIC
        FUNCALL fill_picture, OLED_WR_Byte
        LOCFRAME ISTACK, 0, STACK
        LOCFRAME PSTACK, 0, STACK
        LOCFRAME XSTACK, 9, STACK
        LOCFRAME IOVERLAY, 0, STATIC
        LOCFRAME DOVERLAY, 0, STATIC
        ARGFRAME ISTACK, 0, STACK
        ARGFRAME PSTACK, 0, STACK
        ARGFRAME XSTACK, 9, STACK
        ARGFRAME IOVERLAY, 0, STATIC
        ARGFRAME DOVERLAY, 0, STATIC
        FUNCALL fill_picture, OLED_WR_Byte
        LOCFRAME ISTACK, 0, STACK
        LOCFRAME PSTACK, 0, STACK
        LOCFRAME XSTACK, 9, STACK
        LOCFRAME IOVERLAY, 0, STATIC
        LOCFRAME DOVERLAY, 0, STATIC
        ARGFRAME ISTACK, 0, STACK
        ARGFRAME PSTACK, 0, STACK
        ARGFRAME XSTACK, 9, STACK
        ARGFRAME IOVERLAY, 0, STATIC
        ARGFRAME DOVERLAY, 0, STATIC
        FUNCALL fill_picture, OLED_WR_Byte
        LOCFRAME ISTACK, 0, STACK
        LOCFRAME PSTACK, 0, STACK
        LOCFRAME XSTACK, 9, STACK
        LOCFRAME IOVERLAY, 0, STATIC
        LOCFRAME DOVERLAY, 0, STATIC
        ARGFRAME ISTACK, 0, STACK
        ARGFRAME PSTACK, 0, STACK
        ARGFRAME XSTACK, 9, STACK
        ARGFRAME IOVERLAY, 0, STATIC
        ARGFRAME DOVERLAY, 0, STATIC
        REQUIRE ?V0
        MOV       A,#-0x9
        LCALL     ?BANKED_ENTER_XDATA
          CFI DPH0 load(1, XDATA, add(CFA_XSP16, literal(-1)))
          CFI DPL0 load(1, XDATA, add(CFA_XSP16, literal(-2)))
          CFI ?BRET_EXT load(1, XDATA, add(CFA_XSP16, literal(-3)))
          CFI ?RET_HIGH load(1, XDATA, add(CFA_XSP16, literal(-4)))
          CFI ?RET_LOW load(1, XDATA, add(CFA_XSP16, literal(-5)))
          CFI R7 load(1, XDATA, add(CFA_XSP16, literal(-6)))
          CFI V0 load(1, XDATA, add(CFA_XSP16, literal(-7)))
          CFI VB load(1, XDATA, add(CFA_XSP16, literal(-8)))
          CFI R6 load(1, XDATA, add(CFA_XSP16, literal(-9)))
          CFI CFA_SP SP+0
          CFI CFA_XSP16 add(XSP16, 9)
        ; Saved register size: 9
        ; Auto size: 0
        MOV       ?V0,R1
//  270   unsigned char m,n;
//  271   for(m=0;m<8;m++)
        MOV       R7,#0x0
//  272   {
//  273     OLED_WR_Byte(0xb0+m,0);		//page0-page1
??fill_picture_0:
        ; Setup parameters for call to function OLED_WR_Byte
        LCALL     ?Subroutine3 & 0xFFFF
//  274     OLED_WR_Byte(0x00,0);		//low column start address
//  275     OLED_WR_Byte(0x10,0);		//high column start address
//  276     for(n=0;n<128;n++)
//  277     {
//  278       OLED_WR_Byte(fill_Data,1);
??CrossCallReturnLabel_0:
        ; Setup parameters for call to function OLED_WR_Byte
        MOV       R4,#0x1
        MOV       R5,#0x0
        MOV       R2,?V0
        MOV       R3,#0x0
        LCALL     `??OLED_WR_Byte::?relay`; Banked call to: OLED_WR_Byte
//  279     }
        DJNZ      R6,??CrossCallReturnLabel_0
//  280   }
        INC       R7
        MOV       A,R7
        CLR       C
        SUBB      A,#0x8
        JC        ??fill_picture_0
//  281 }
        SJMP      ??Subroutine16_0
          CFI EndBlock cfiBlock6
//  282 
//  283 /***********************Delay****************************************/

        RSEG BANKED_CODE:HUGECODE:NOROOT(0)
//  284 void Delay_50ms(unsigned int Del_50ms){
Delay_50ms:
          CFI Block cfiBlock7 Using cfiCommon0
          CFI Function Delay_50ms
        CODE
        ; Saved register size: 0
        ; Auto size: 0
        SJMP      ??Delay_50ms_0
//  285   unsigned int m;
//  286   for(;Del_50ms>0;Del_50ms--){
//  287     for(m=6245;m>0;m--);
??Delay_50ms_1:
        MOV       A,R2
        ADD       A,#-0x1
        DEC       R2
        MOV       A,R3
        ADDC      A,#-0x1
        MOV       R3,A
??Delay_50ms_0:
        MOV       A,R2
        ORL       A,R3
        JNZ       ??Delay_50ms_1
//  288   }
//  289 }
        LJMP      ?BRET
          CFI EndBlock cfiBlock7
//  290 

        RSEG BANKED_CODE:HUGECODE:NOROOT(0)
//  291 void Delay_1ms(unsigned int Del_1ms){
Delay_1ms:
          CFI Block cfiBlock8 Using cfiCommon0
          CFI Function Delay_1ms
        CODE
        ; Saved register size: 0
        ; Auto size: 0
//  292   unsigned char j;
//  293   while(Del_1ms--)
??Delay_1ms_0:
        MOV       A,R2
        MOV       R0,A
        MOV       A,R3
        MOV       R1,A
        MOV       A,R0
        ADD       A,#-0x1
        DEC       R2
        MOV       A,R1
        ADDC      A,#-0x1
        MOV       R3,A
        MOV       A,R0
        ORL       A,R1
        JNZ       ??Delay_1ms_0
//  294   {	
//  295     for(j=0;j<123;j++);
//  296   }
//  297 }
        LJMP      ?BRET
          CFI EndBlock cfiBlock8
//  298 
//  299 //坐标设置
//  300 

        RSEG BANKED_CODE:HUGECODE:NOROOT(0)
//  301 void OLED_Set_Pos(unsigned char x, unsigned char y){
OLED_Set_Pos:
          CFI Block cfiBlock9 Using cfiCommon0
          CFI Function OLED_Set_Pos
        CODE
        FUNCALL OLED_Set_Pos, OLED_WR_Byte
        LOCFRAME ISTACK, 0, STACK
        LOCFRAME PSTACK, 0, STACK
        LOCFRAME XSTACK, 9, STACK
        LOCFRAME IOVERLAY, 0, STATIC
        LOCFRAME DOVERLAY, 0, STATIC
        ARGFRAME ISTACK, 0, STACK
        ARGFRAME PSTACK, 0, STACK
        ARGFRAME XSTACK, 9, STACK
        ARGFRAME IOVERLAY, 0, STATIC
        ARGFRAME DOVERLAY, 0, STATIC
        FUNCALL OLED_Set_Pos, OLED_WR_Byte
        LOCFRAME ISTACK, 0, STACK
        LOCFRAME PSTACK, 0, STACK
        LOCFRAME XSTACK, 9, STACK
        LOCFRAME IOVERLAY, 0, STATIC
        LOCFRAME DOVERLAY, 0, STATIC
        ARGFRAME ISTACK, 0, STACK
        ARGFRAME PSTACK, 0, STACK
        ARGFRAME XSTACK, 9, STACK
        ARGFRAME IOVERLAY, 0, STATIC
        ARGFRAME DOVERLAY, 0, STATIC
        FUNCALL OLED_Set_Pos, OLED_WR_Byte
        LOCFRAME ISTACK, 0, STACK
        LOCFRAME PSTACK, 0, STACK
        LOCFRAME XSTACK, 9, STACK
        LOCFRAME IOVERLAY, 0, STATIC
        LOCFRAME DOVERLAY, 0, STATIC
        ARGFRAME ISTACK, 0, STACK
        ARGFRAME PSTACK, 0, STACK
        ARGFRAME XSTACK, 9, STACK
        ARGFRAME IOVERLAY, 0, STATIC
        ARGFRAME DOVERLAY, 0, STATIC
        MOV       A,#-0x9
        LCALL     ?BANKED_ENTER_XDATA
          CFI DPH0 load(1, XDATA, add(CFA_XSP16, literal(-1)))
          CFI DPL0 load(1, XDATA, add(CFA_XSP16, literal(-2)))
          CFI ?BRET_EXT load(1, XDATA, add(CFA_XSP16, literal(-3)))
          CFI ?RET_HIGH load(1, XDATA, add(CFA_XSP16, literal(-4)))
          CFI ?RET_LOW load(1, XDATA, add(CFA_XSP16, literal(-5)))
          CFI R7 load(1, XDATA, add(CFA_XSP16, literal(-6)))
          CFI V0 load(1, XDATA, add(CFA_XSP16, literal(-7)))
          CFI VB load(1, XDATA, add(CFA_XSP16, literal(-8)))
          CFI R6 load(1, XDATA, add(CFA_XSP16, literal(-9)))
          CFI CFA_SP SP+0
          CFI CFA_XSP16 add(XSP16, 9)
        ; Saved register size: 9
        ; Auto size: 0
        MOV       A,R1
        MOV       R6,A
        MOV       A,R2
//  302   OLED_WR_Byte(0xb0+y,OLED_CMD);
        ; Setup parameters for call to function OLED_WR_Byte
        MOV       R4,#0x0
        MOV       R5,#0x0
        ADD       A,#-0x50
        MOV       R2,A
        CLR       A
        ADDC      A,#0x0
        MOV       R3,A
        LCALL     ?Subroutine8 & 0xFFFF
//  303   OLED_WR_Byte(((x&0xf0)>>4)|0x10,OLED_CMD);
??CrossCallReturnLabel_11:
        SWAP      A
        ANL       A,#0xf
        ORL       A,#0x10
        MOV       R2,A
        MOV       R3,#0x0
        LCALL     ?Subroutine8 & 0xFFFF
//  304   OLED_WR_Byte((x&0x0f),OLED_CMD); 
??CrossCallReturnLabel_12:
        ANL       A,#0xf
        MOV       R2,A
        MOV       R3,#0x0
        LCALL     `??OLED_WR_Byte::?relay`; Banked call to: OLED_WR_Byte
//  305 }   	  
        SJMP      ??Subroutine16_0
          CFI EndBlock cfiBlock9

        RSEG BANKED_CODE:HUGECODE:NOROOT(0)
?Subroutine8:
          CFI Block cfiCond10 Using cfiCommon0
          CFI Function OLED_Set_Pos
          CFI Conditional ??CrossCallReturnLabel_11
          CFI R6 load(1, XDATA, add(CFA_XSP16, literal(-9)))
          CFI VB load(1, XDATA, add(CFA_XSP16, literal(-8)))
          CFI V0 load(1, XDATA, add(CFA_XSP16, literal(-7)))
          CFI R7 load(1, XDATA, add(CFA_XSP16, literal(-6)))
          CFI ?RET_LOW load(1, XDATA, add(CFA_XSP16, literal(-5)))
          CFI ?RET_HIGH load(1, XDATA, add(CFA_XSP16, literal(-4)))
          CFI ?BRET_EXT load(1, XDATA, add(CFA_XSP16, literal(-3)))
          CFI DPL0 load(1, XDATA, add(CFA_XSP16, literal(-2)))
          CFI DPH0 load(1, XDATA, add(CFA_XSP16, literal(-1)))
          CFI CFA_SP SP+-2
          CFI CFA_XSP16 add(XSP16, 9)
          CFI Block cfiCond11 Using cfiCommon0
          CFI (cfiCond11) Function OLED_Set_Pos
          CFI (cfiCond11) Conditional ??CrossCallReturnLabel_12
          CFI (cfiCond11) R6 load(1, XDATA, add(CFA_XSP16, literal(-9)))
          CFI (cfiCond11) VB load(1, XDATA, add(CFA_XSP16, literal(-8)))
          CFI (cfiCond11) V0 load(1, XDATA, add(CFA_XSP16, literal(-7)))
          CFI (cfiCond11) R7 load(1, XDATA, add(CFA_XSP16, literal(-6)))
          CFI (cfiCond11) ?RET_LOW load(1, XDATA, add(CFA_XSP16, literal(-5)))
          CFI (cfiCond11) ?RET_HIGH load(1, XDATA, add(CFA_XSP16, literal(-4)))
          CFI (cfiCond11) ?BRET_EXT load(1, XDATA, add(CFA_XSP16, literal(-3)))
          CFI (cfiCond11) DPL0 load(1, XDATA, add(CFA_XSP16, literal(-2)))
          CFI (cfiCond11) DPH0 load(1, XDATA, add(CFA_XSP16, literal(-1)))
          CFI (cfiCond11) CFA_SP SP+-2
          CFI (cfiCond11) CFA_XSP16 add(XSP16, 9)
          CFI Block cfiPicker12 Using cfiCommon1
          CFI (cfiPicker12) NoFunction
          CFI (cfiPicker12) Picker
        LCALL     ??Subroutine19_0 & 0xFFFF
??CrossCallReturnLabel_47:
        MOV       A,R6
        RET
          CFI EndBlock cfiCond10
          CFI EndBlock cfiCond11
          CFI EndBlock cfiPicker12

        RSEG BANKED_CODE:HUGECODE:NOROOT(0)
?Subroutine0:
          CFI Block cfiBlock13 Using cfiCommon0
          CFI NoFunction
          CFI CFA_SP SP+0
          CFI CFA_XSP16 add(XSP16, 9)
          CFI VB load(1, XDATA, add(CFA_XSP16, literal(-8)))
          CFI DPL0 load(1, XDATA, add(CFA_XSP16, literal(-2)))
          CFI DPH0 load(1, XDATA, add(CFA_XSP16, literal(-1)))
          CFI R6 load(1, XDATA, add(CFA_XSP16, literal(-9)))
          CFI R7 load(1, XDATA, add(CFA_XSP16, literal(-6)))
          CFI V0 load(1, XDATA, add(CFA_XSP16, literal(-7)))
          CFI ?BRET_EXT load(1, XDATA, add(CFA_XSP16, literal(-3)))
          CFI ?RET_HIGH load(1, XDATA, add(CFA_XSP16, literal(-4)))
          CFI ?RET_LOW load(1, XDATA, add(CFA_XSP16, literal(-5)))
        LCALL     `??OLED_SendByte::?relay`; Banked call to: OLED_SendByte
        ; Setup parameters for call to function OLED_SendByte
        ; Setup parameters for call to function OLED_SendByte
        MOV       A,R6
        MOV       R1,A
        LCALL     `??OLED_SendByte::?relay`; Banked call to: OLED_SendByte
        ; Setup parameters for call to function OLED_Stop
        ; Setup parameters for call to function OLED_Stop
        LCALL     `??OLED_Stop::?relay`; Banked call to: OLED_Stop
          CFI EndBlock cfiBlock13
        REQUIRE ??Subroutine16_0
        ; // Fall through to label ??Subroutine16_0

        RSEG BANKED_CODE:HUGECODE:NOROOT(0)
??Subroutine16_0:
          CFI Block cfiBlock14 Using cfiCommon0
          CFI NoFunction
          CFI CFA_SP SP+0
          CFI CFA_XSP16 add(XSP16, 9)
          CFI VB load(1, XDATA, add(CFA_XSP16, literal(-8)))
          CFI DPL0 load(1, XDATA, add(CFA_XSP16, literal(-2)))
          CFI DPH0 load(1, XDATA, add(CFA_XSP16, literal(-1)))
          CFI R6 load(1, XDATA, add(CFA_XSP16, literal(-9)))
          CFI R7 load(1, XDATA, add(CFA_XSP16, literal(-6)))
          CFI V0 load(1, XDATA, add(CFA_XSP16, literal(-7)))
          CFI ?BRET_EXT load(1, XDATA, add(CFA_XSP16, literal(-3)))
          CFI ?RET_HIGH load(1, XDATA, add(CFA_XSP16, literal(-4)))
          CFI ?RET_LOW load(1, XDATA, add(CFA_XSP16, literal(-5)))
        MOV       R7,#0x1
        LJMP      ?BANKED_LEAVE_XDATA
          CFI EndBlock cfiBlock14
//  306 //开启OLED显示    

        RSEG BANKED_CODE:HUGECODE:NOROOT(0)
//  307 void OLED_Display_On(void){
OLED_Display_On:
          CFI Block cfiBlock15 Using cfiCommon0
          CFI Function OLED_Display_On
        CODE
        FUNCALL OLED_Display_On, OLED_WR_Byte
        LOCFRAME ISTACK, 2, STACK
        LOCFRAME PSTACK, 0, STACK
        LOCFRAME XSTACK, 0, STACK
        LOCFRAME IOVERLAY, 0, STATIC
        LOCFRAME DOVERLAY, 0, STATIC
        ARGFRAME ISTACK, 2, STACK
        ARGFRAME PSTACK, 0, STACK
        ARGFRAME XSTACK, 0, STACK
        ARGFRAME IOVERLAY, 0, STATIC
        ARGFRAME DOVERLAY, 0, STATIC
        FUNCALL OLED_Display_On, OLED_WR_Byte
        LOCFRAME ISTACK, 2, STACK
        LOCFRAME PSTACK, 0, STACK
        LOCFRAME XSTACK, 0, STACK
        LOCFRAME IOVERLAY, 0, STATIC
        LOCFRAME DOVERLAY, 0, STATIC
        ARGFRAME ISTACK, 2, STACK
        ARGFRAME PSTACK, 0, STACK
        ARGFRAME XSTACK, 0, STACK
        ARGFRAME IOVERLAY, 0, STATIC
        ARGFRAME DOVERLAY, 0, STATIC
        FUNCALL OLED_Display_On, OLED_WR_Byte
        LOCFRAME ISTACK, 2, STACK
        LOCFRAME PSTACK, 0, STACK
        LOCFRAME XSTACK, 0, STACK
        LOCFRAME IOVERLAY, 0, STATIC
        LOCFRAME DOVERLAY, 0, STATIC
        ARGFRAME ISTACK, 2, STACK
        ARGFRAME PSTACK, 0, STACK
        ARGFRAME XSTACK, 0, STACK
        ARGFRAME IOVERLAY, 0, STATIC
        ARGFRAME DOVERLAY, 0, STATIC
        PUSH      DPL
          CFI DPL0 Frame(CFA_SP, 4)
          CFI CFA_SP SP+-4
        PUSH      DPH
          CFI DPH0 Frame(CFA_SP, 5)
          CFI CFA_SP SP+-5
        ; Saved register size: 2
        ; Auto size: 0
//  308   OLED_WR_Byte(0X8D,OLED_CMD);  //SET DCDC命令
        ; Setup parameters for call to function OLED_WR_Byte
        SJMP      ?Subroutine1
//  309   OLED_WR_Byte(0X14,OLED_CMD);  //DCDC ON
//  310   OLED_WR_Byte(0XAF,OLED_CMD);  //DISPLAY ON
//  311 }
          CFI EndBlock cfiBlock15
//  312 //关闭OLED显示     

        RSEG BANKED_CODE:HUGECODE:NOROOT(0)
//  313 void OLED_Display_Off(void){
OLED_Display_Off:
          CFI Block cfiBlock16 Using cfiCommon0
          CFI Function OLED_Display_Off
        CODE
        FUNCALL OLED_Display_Off, OLED_WR_Byte
        LOCFRAME ISTACK, 2, STACK
        LOCFRAME PSTACK, 0, STACK
        LOCFRAME XSTACK, 0, STACK
        LOCFRAME IOVERLAY, 0, STATIC
        LOCFRAME DOVERLAY, 0, STATIC
        ARGFRAME ISTACK, 2, STACK
        ARGFRAME PSTACK, 0, STACK
        ARGFRAME XSTACK, 0, STACK
        ARGFRAME IOVERLAY, 0, STATIC
        ARGFRAME DOVERLAY, 0, STATIC
        FUNCALL OLED_Display_Off, OLED_WR_Byte
        LOCFRAME ISTACK, 2, STACK
        LOCFRAME PSTACK, 0, STACK
        LOCFRAME XSTACK, 0, STACK
        LOCFRAME IOVERLAY, 0, STATIC
        LOCFRAME DOVERLAY, 0, STATIC
        ARGFRAME ISTACK, 2, STACK
        ARGFRAME PSTACK, 0, STACK
        ARGFRAME XSTACK, 0, STACK
        ARGFRAME IOVERLAY, 0, STATIC
        ARGFRAME DOVERLAY, 0, STATIC
        FUNCALL OLED_Display_Off, OLED_WR_Byte
        LOCFRAME ISTACK, 2, STACK
        LOCFRAME PSTACK, 0, STACK
        LOCFRAME XSTACK, 0, STACK
        LOCFRAME IOVERLAY, 0, STATIC
        LOCFRAME DOVERLAY, 0, STATIC
        ARGFRAME ISTACK, 2, STACK
        ARGFRAME PSTACK, 0, STACK
        ARGFRAME XSTACK, 0, STACK
        ARGFRAME IOVERLAY, 0, STATIC
        ARGFRAME DOVERLAY, 0, STATIC
        PUSH      DPL
          CFI DPL0 Frame(CFA_SP, 4)
          CFI CFA_SP SP+-4
        PUSH      DPH
          CFI DPH0 Frame(CFA_SP, 5)
          CFI CFA_SP SP+-5
        ; Saved register size: 2
        ; Auto size: 0
//  314   OLED_WR_Byte(0X8D,OLED_CMD);  //SET DCDC命令
        ; Setup parameters for call to function OLED_WR_Byte
        MOV       R4,#0x0
        MOV       R5,#0x0
        MOV       R2,#-0x73
        LCALL     ?Subroutine4 & 0xFFFF
//  315   OLED_WR_Byte(0X10,OLED_CMD);  //DCDC OFF
//  316   OLED_WR_Byte(0XAE,OLED_CMD);  //DISPLAY OFF
??CrossCallReturnLabel_3:
        MOV       R2,#-0x52
        SJMP      ??Subroutine17_0
//  317 }		   			 
          CFI EndBlock cfiBlock16

        RSEG BANKED_CODE:HUGECODE:NOROOT(0)
?Subroutine1:
          CFI Block cfiBlock17 Using cfiCommon0
          CFI NoFunction
          CFI CFA_SP SP+-5
          CFI DPL0 Frame(CFA_SP, 4)
          CFI DPH0 Frame(CFA_SP, 5)
        MOV       R4,#0x0
        MOV       R5,#0x0
        MOV       R2,#-0x73
        LCALL     ?Subroutine9 & 0xFFFF
??CrossCallReturnLabel_13:
        MOV       R2,#0x14
        LCALL     ?Subroutine9 & 0xFFFF
??CrossCallReturnLabel_14:
        MOV       R2,#-0x51
          CFI EndBlock cfiBlock17
        REQUIRE ??Subroutine17_0
        ; // Fall through to label ??Subroutine17_0

        RSEG BANKED_CODE:HUGECODE:NOROOT(0)
??Subroutine17_0:
          CFI Block cfiBlock18 Using cfiCommon0
          CFI NoFunction
          CFI CFA_SP SP+-5
          CFI DPL0 Frame(CFA_SP, 4)
          CFI DPH0 Frame(CFA_SP, 5)
        MOV       R3,#0x0
        LCALL     `??OLED_WR_Byte::?relay`; Banked call to: OLED_WR_Byte
          CFI EndBlock cfiBlock18
        REQUIRE ??Subroutine18_0
        ; // Fall through to label ??Subroutine18_0

        RSEG BANKED_CODE:HUGECODE:NOROOT(0)
??Subroutine18_0:
          CFI Block cfiBlock19 Using cfiCommon0
          CFI NoFunction
          CFI CFA_SP SP+-5
          CFI DPL0 Frame(CFA_SP, 4)
          CFI DPH0 Frame(CFA_SP, 5)
        POP       DPH
          CFI CFA_SP SP+-4
          CFI DPH0 SameValue
        POP       DPL
          CFI CFA_SP SP+-3
          CFI DPL0 SameValue
        LJMP      ?BRET
          CFI EndBlock cfiBlock19
//  318 //清屏函数,清完屏,整个屏幕是黑色的!和没点亮一样!!!	  

        RSEG BANKED_CODE:HUGECODE:NOROOT(0)
//  319 void OLED_Clear(void){  
OLED_Clear:
          CFI Block cfiBlock20 Using cfiCommon0
          CFI Function OLED_Clear
        CODE
        FUNCALL OLED_Clear, OLED_WR_Byte
        LOCFRAME ISTACK, 0, STACK
        LOCFRAME PSTACK, 0, STACK
        LOCFRAME XSTACK, 9, STACK
        LOCFRAME IOVERLAY, 0, STATIC
        LOCFRAME DOVERLAY, 0, STATIC
        ARGFRAME ISTACK, 0, STACK
        ARGFRAME PSTACK, 0, STACK
        ARGFRAME XSTACK, 9, STACK
        ARGFRAME IOVERLAY, 0, STATIC
        ARGFRAME DOVERLAY, 0, STATIC
        FUNCALL OLED_Clear, OLED_WR_Byte
        LOCFRAME ISTACK, 0, STACK
        LOCFRAME PSTACK, 0, STACK
        LOCFRAME XSTACK, 9, STACK
        LOCFRAME IOVERLAY, 0, STATIC
        LOCFRAME DOVERLAY, 0, STATIC
        ARGFRAME ISTACK, 0, STACK
        ARGFRAME PSTACK, 0, STACK
        ARGFRAME XSTACK, 9, STACK
        ARGFRAME IOVERLAY, 0, STATIC
        ARGFRAME DOVERLAY, 0, STATIC
        FUNCALL OLED_Clear, OLED_WR_Byte
        LOCFRAME ISTACK, 0, STACK
        LOCFRAME PSTACK, 0, STACK
        LOCFRAME XSTACK, 9, STACK
        LOCFRAME IOVERLAY, 0, STATIC
        LOCFRAME DOVERLAY, 0, STATIC
        ARGFRAME ISTACK, 0, STACK
        ARGFRAME PSTACK, 0, STACK
        ARGFRAME XSTACK, 9, STACK
        ARGFRAME IOVERLAY, 0, STATIC
        ARGFRAME DOVERLAY, 0, STATIC
        FUNCALL OLED_Clear, OLED_WR_Byte
        LOCFRAME ISTACK, 0, STACK
        LOCFRAME PSTACK, 0, STACK
        LOCFRAME XSTACK, 9, STACK
        LOCFRAME IOVERLAY, 0, STATIC
        LOCFRAME DOVERLAY, 0, STATIC
        ARGFRAME ISTACK, 0, STACK
        ARGFRAME PSTACK, 0, STACK
        ARGFRAME XSTACK, 9, STACK
        ARGFRAME IOVERLAY, 0, STATIC
        ARGFRAME DOVERLAY, 0, STATIC
        MOV       A,#-0x9
        LCALL     ?BANKED_ENTER_XDATA
          CFI DPH0 load(1, XDATA, add(CFA_XSP16, literal(-1)))
          CFI DPL0 load(1, XDATA, add(CFA_XSP16, literal(-2)))
          CFI ?BRET_EXT load(1, XDATA, add(CFA_XSP16, literal(-3)))
          CFI ?RET_HIGH load(1, XDATA, add(CFA_XSP16, literal(-4)))
          CFI ?RET_LOW load(1, XDATA, add(CFA_XSP16, literal(-5)))
          CFI R7 load(1, XDATA, add(CFA_XSP16, literal(-6)))
          CFI V0 load(1, XDATA, add(CFA_XSP16, literal(-7)))
          CFI VB load(1, XDATA, add(CFA_XSP16, literal(-8)))
          CFI R6 load(1, XDATA, add(CFA_XSP16, literal(-9)))
          CFI CFA_SP SP+0
          CFI CFA_XSP16 add(XSP16, 9)
        ; Saved register size: 9
        ; Auto size: 0
//  320   unsigned char i,n;		    
//  321   for(i=0;i<8;i++)  
        MOV       R7,#0x0
//  322   {  
//  323     OLED_WR_Byte (0xb0+i,OLED_CMD);    //设置页地址（0~7）
??OLED_Clear_0:
        ; Setup parameters for call to function OLED_WR_Byte
        LCALL     ?Subroutine3 & 0xFFFF
//  324     OLED_WR_Byte (0x00,OLED_CMD);      //设置显示位置―列低地址
//  325     OLED_WR_Byte (0x10,OLED_CMD);      //设置显示位置―列高地址
//  326     for(n=0;n<128;n++){
//  327       OLED_WR_Byte(0,OLED_DATA); 
??CrossCallReturnLabel_1:
        ; Setup parameters for call to function OLED_WR_Byte
        MOV       R4,#0x1
        MOV       R5,#0x0
        MOV       R2,#0x0
        MOV       R3,#0x0
        LCALL     `??OLED_WR_Byte::?relay`; Banked call to: OLED_WR_Byte
//  328     }
        DJNZ      R6,??CrossCallReturnLabel_1
//  329   } //更新显示
        INC       R7
        MOV       A,R7
        CLR       C
        SUBB      A,#0x8
        JC        ??OLED_Clear_0
//  330 }
        SJMP      ??Subroutine16_0
          CFI EndBlock cfiBlock20

        RSEG BANKED_CODE:HUGECODE:NOROOT(0)
?Subroutine3:
          CFI Block cfiCond21 Using cfiCommon0
          CFI Function fill_picture
          CFI Conditional ??CrossCallReturnLabel_0
          CFI R6 load(1, XDATA, add(CFA_XSP16, literal(-9)))
          CFI VB load(1, XDATA, add(CFA_XSP16, literal(-8)))
          CFI V0 load(1, XDATA, add(CFA_XSP16, literal(-7)))
          CFI R7 load(1, XDATA, add(CFA_XSP16, literal(-6)))
          CFI ?RET_LOW load(1, XDATA, add(CFA_XSP16, literal(-5)))
          CFI ?RET_HIGH load(1, XDATA, add(CFA_XSP16, literal(-4)))
          CFI ?BRET_EXT load(1, XDATA, add(CFA_XSP16, literal(-3)))
          CFI DPL0 load(1, XDATA, add(CFA_XSP16, literal(-2)))
          CFI DPH0 load(1, XDATA, add(CFA_XSP16, literal(-1)))
          CFI CFA_SP SP+-2
          CFI CFA_XSP16 add(XSP16, 9)
          CFI Block cfiCond22 Using cfiCommon0
          CFI (cfiCond22) Function OLED_Clear
          CFI (cfiCond22) Conditional ??CrossCallReturnLabel_1
          CFI (cfiCond22) R6 load(1, XDATA, add(CFA_XSP16, literal(-9)))
          CFI (cfiCond22) VB load(1, XDATA, add(CFA_XSP16, literal(-8)))
          CFI (cfiCond22) V0 load(1, XDATA, add(CFA_XSP16, literal(-7)))
          CFI (cfiCond22) R7 load(1, XDATA, add(CFA_XSP16, literal(-6)))
          CFI (cfiCond22) ?RET_LOW load(1, XDATA, add(CFA_XSP16, literal(-5)))
          CFI (cfiCond22) ?RET_HIGH load(1, XDATA, add(CFA_XSP16, literal(-4)))
          CFI (cfiCond22) ?BRET_EXT load(1, XDATA, add(CFA_XSP16, literal(-3)))
          CFI (cfiCond22) DPL0 load(1, XDATA, add(CFA_XSP16, literal(-2)))
          CFI (cfiCond22) DPH0 load(1, XDATA, add(CFA_XSP16, literal(-1)))
          CFI (cfiCond22) CFA_SP SP+-2
          CFI (cfiCond22) CFA_XSP16 add(XSP16, 9)
          CFI Block cfiCond23 Using cfiCommon0
          CFI (cfiCond23) Function OLED_On
          CFI (cfiCond23) Conditional ??CrossCallReturnLabel_2
          CFI (cfiCond23) R6 load(1, XDATA, add(CFA_XSP16, literal(-9)))
          CFI (cfiCond23) VB load(1, XDATA, add(CFA_XSP16, literal(-8)))
          CFI (cfiCond23) V0 load(1, XDATA, add(CFA_XSP16, literal(-7)))
          CFI (cfiCond23) R7 load(1, XDATA, add(CFA_XSP16, literal(-6)))
          CFI (cfiCond23) ?RET_LOW load(1, XDATA, add(CFA_XSP16, literal(-5)))
          CFI (cfiCond23) ?RET_HIGH load(1, XDATA, add(CFA_XSP16, literal(-4)))
          CFI (cfiCond23) ?BRET_EXT load(1, XDATA, add(CFA_XSP16, literal(-3)))
          CFI (cfiCond23) DPL0 load(1, XDATA, add(CFA_XSP16, literal(-2)))
          CFI (cfiCond23) DPH0 load(1, XDATA, add(CFA_XSP16, literal(-1)))
          CFI (cfiCond23) CFA_SP SP+-2
          CFI (cfiCond23) CFA_XSP16 add(XSP16, 9)
          CFI Block cfiPicker24 Using cfiCommon1
          CFI (cfiPicker24) NoFunction
          CFI (cfiPicker24) Picker
        MOV       R4,#0x0
        MOV       R5,#0x0
        MOV       A,R7
        ADD       A,#-0x50
        MOV       R2,A
        CLR       A
        ADDC      A,#0x0
        MOV       R3,A
        LCALL     ?Subroutine14 & 0xFFFF
??CrossCallReturnLabel_43:
        LCALL     ?Subroutine12 & 0xFFFF
??CrossCallReturnLabel_38:
        MOV       R6,#-0x80
        RET
          CFI EndBlock cfiCond21
          CFI EndBlock cfiCond22
          CFI EndBlock cfiCond23
          CFI EndBlock cfiPicker24

        RSEG BANKED_CODE:HUGECODE:NOROOT(0)
//  331 void OLED_On(void){  
OLED_On:
          CFI Block cfiBlock25 Using cfiCommon0
          CFI Function OLED_On
        CODE
        FUNCALL OLED_On, OLED_WR_Byte
        LOCFRAME ISTACK, 0, STACK
        LOCFRAME PSTACK, 0, STACK
        LOCFRAME XSTACK, 9, STACK
        LOCFRAME IOVERLAY, 0, STATIC
        LOCFRAME DOVERLAY, 0, STATIC
        ARGFRAME ISTACK, 0, STACK
        ARGFRAME PSTACK, 0, STACK
        ARGFRAME XSTACK, 9, STACK
        ARGFRAME IOVERLAY, 0, STATIC
        ARGFRAME DOVERLAY, 0, STATIC
        FUNCALL OLED_On, OLED_WR_Byte
        LOCFRAME ISTACK, 0, STACK
        LOCFRAME PSTACK, 0, STACK
        LOCFRAME XSTACK, 9, STACK
        LOCFRAME IOVERLAY, 0, STATIC
        LOCFRAME DOVERLAY, 0, STATIC
        ARGFRAME ISTACK, 0, STACK
        ARGFRAME PSTACK, 0, STACK
        ARGFRAME XSTACK, 9, STACK
        ARGFRAME IOVERLAY, 0, STATIC
        ARGFRAME DOVERLAY, 0, STATIC
        FUNCALL OLED_On, OLED_WR_Byte
        LOCFRAME ISTACK, 0, STACK
        LOCFRAME PSTACK, 0, STACK
        LOCFRAME XSTACK, 9, STACK
        LOCFRAME IOVERLAY, 0, STATIC
        LOCFRAME DOVERLAY, 0, STATIC
        ARGFRAME ISTACK, 0, STACK
        ARGFRAME PSTACK, 0, STACK
        ARGFRAME XSTACK, 9, STACK
        ARGFRAME IOVERLAY, 0, STATIC
        ARGFRAME DOVERLAY, 0, STATIC
        FUNCALL OLED_On, OLED_WR_Byte
        LOCFRAME ISTACK, 0, STACK
        LOCFRAME PSTACK, 0, STACK
        LOCFRAME XSTACK, 9, STACK
        LOCFRAME IOVERLAY, 0, STATIC
        LOCFRAME DOVERLAY, 0, STATIC
        ARGFRAME ISTACK, 0, STACK
        ARGFRAME PSTACK, 0, STACK
        ARGFRAME XSTACK, 9, STACK
        ARGFRAME IOVERLAY, 0, STATIC
        ARGFRAME DOVERLAY, 0, STATIC
        MOV       A,#-0x9
        LCALL     ?BANKED_ENTER_XDATA
          CFI DPH0 load(1, XDATA, add(CFA_XSP16, literal(-1)))
          CFI DPL0 load(1, XDATA, add(CFA_XSP16, literal(-2)))
          CFI ?BRET_EXT load(1, XDATA, add(CFA_XSP16, literal(-3)))
          CFI ?RET_HIGH load(1, XDATA, add(CFA_XSP16, literal(-4)))
          CFI ?RET_LOW load(1, XDATA, add(CFA_XSP16, literal(-5)))
          CFI R7 load(1, XDATA, add(CFA_XSP16, literal(-6)))
          CFI V0 load(1, XDATA, add(CFA_XSP16, literal(-7)))
          CFI VB load(1, XDATA, add(CFA_XSP16, literal(-8)))
          CFI R6 load(1, XDATA, add(CFA_XSP16, literal(-9)))
          CFI CFA_SP SP+0
          CFI CFA_XSP16 add(XSP16, 9)
        ; Saved register size: 9
        ; Auto size: 0
//  332   unsigned char i,n;		    
//  333   for(i=0;i<8;i++)  
        MOV       R7,#0x0
//  334   {  
//  335     OLED_WR_Byte (0xb0+i,OLED_CMD);    //设置页地址（0~7）
??OLED_On_0:
        ; Setup parameters for call to function OLED_WR_Byte
        LCALL     ?Subroutine3 & 0xFFFF
//  336     OLED_WR_Byte (0x00,OLED_CMD);      //设置显示位置―列低地址
//  337     OLED_WR_Byte (0x10,OLED_CMD);      //设置显示位置―列高地址   
//  338     for(n=0;n<128;n++){
//  339       OLED_WR_Byte(1,OLED_DATA);
??CrossCallReturnLabel_2:
        ; Setup parameters for call to function OLED_WR_Byte
        MOV       R4,#0x1
        MOV       R5,#0x0
        MOV       R2,#0x1
        MOV       R3,#0x0
        LCALL     `??OLED_WR_Byte::?relay`; Banked call to: OLED_WR_Byte
//  340     }
        DJNZ      R6,??CrossCallReturnLabel_2
//  341   } //更新显示
        INC       R7
        MOV       A,R7
        CLR       C
        SUBB      A,#0x8
        JC        ??OLED_On_0
//  342 }
        LJMP      ??Subroutine16_0 & 0xFFFF
          CFI EndBlock cfiBlock25
//  343 //在指定位置显示一个字符,包括部分字符
//  344 //x:0~127
//  345 //y:0~63
//  346 //mode:0,反白显示;1,正常显示				 
//  347 //size:选择字体 16/12 

        RSEG BANKED_CODE:HUGECODE:NOROOT(0)
//  348 void OLED_ShowChar(unsigned char x,unsigned char y,unsigned char chr,unsigned char Char_Size){      	
OLED_ShowChar:
          CFI Block cfiBlock26 Using cfiCommon0
          CFI Function OLED_ShowChar
        CODE
        FUNCALL OLED_ShowChar, OLED_Set_Pos
        LOCFRAME ISTACK, 0, STACK
        LOCFRAME PSTACK, 0, STACK
        LOCFRAME XSTACK, 16, STACK
        LOCFRAME IOVERLAY, 0, STATIC
        LOCFRAME DOVERLAY, 0, STATIC
        ARGFRAME ISTACK, 0, STACK
        ARGFRAME PSTACK, 0, STACK
        ARGFRAME XSTACK, 16, STACK
        ARGFRAME IOVERLAY, 0, STATIC
        ARGFRAME DOVERLAY, 0, STATIC
        FUNCALL OLED_ShowChar, OLED_WR_Byte
        LOCFRAME ISTACK, 0, STACK
        LOCFRAME PSTACK, 0, STACK
        LOCFRAME XSTACK, 16, STACK
        LOCFRAME IOVERLAY, 0, STATIC
        LOCFRAME DOVERLAY, 0, STATIC
        ARGFRAME ISTACK, 0, STACK
        ARGFRAME PSTACK, 0, STACK
        ARGFRAME XSTACK, 16, STACK
        ARGFRAME IOVERLAY, 0, STATIC
        ARGFRAME DOVERLAY, 0, STATIC
        FUNCALL OLED_ShowChar, OLED_Set_Pos
        LOCFRAME ISTACK, 0, STACK
        LOCFRAME PSTACK, 0, STACK
        LOCFRAME XSTACK, 16, STACK
        LOCFRAME IOVERLAY, 0, STATIC
        LOCFRAME DOVERLAY, 0, STATIC
        ARGFRAME ISTACK, 0, STACK
        ARGFRAME PSTACK, 0, STACK
        ARGFRAME XSTACK, 16, STACK
        ARGFRAME IOVERLAY, 0, STATIC
        ARGFRAME DOVERLAY, 0, STATIC
        FUNCALL OLED_ShowChar, OLED_WR_Byte
        LOCFRAME ISTACK, 0, STACK
        LOCFRAME PSTACK, 0, STACK
        LOCFRAME XSTACK, 16, STACK
        LOCFRAME IOVERLAY, 0, STATIC
        LOCFRAME DOVERLAY, 0, STATIC
        ARGFRAME ISTACK, 0, STACK
        ARGFRAME PSTACK, 0, STACK
        ARGFRAME XSTACK, 16, STACK
        ARGFRAME IOVERLAY, 0, STATIC
        ARGFRAME DOVERLAY, 0, STATIC
        FUNCALL OLED_ShowChar, OLED_Set_Pos
        LOCFRAME ISTACK, 0, STACK
        LOCFRAME PSTACK, 0, STACK
        LOCFRAME XSTACK, 16, STACK
        LOCFRAME IOVERLAY, 0, STATIC
        LOCFRAME DOVERLAY, 0, STATIC
        ARGFRAME ISTACK, 0, STACK
        ARGFRAME PSTACK, 0, STACK
        ARGFRAME XSTACK, 16, STACK
        ARGFRAME IOVERLAY, 0, STATIC
        ARGFRAME DOVERLAY, 0, STATIC
        FUNCALL OLED_ShowChar, OLED_WR_Byte
        LOCFRAME ISTACK, 0, STACK
        LOCFRAME PSTACK, 0, STACK
        LOCFRAME XSTACK, 16, STACK
        LOCFRAME IOVERLAY, 0, STATIC
        LOCFRAME DOVERLAY, 0, STATIC
        ARGFRAME ISTACK, 0, STACK
        ARGFRAME PSTACK, 0, STACK
        ARGFRAME XSTACK, 16, STACK
        ARGFRAME IOVERLAY, 0, STATIC
        ARGFRAME DOVERLAY, 0, STATIC
        REQUIRE ?V0
        REQUIRE ?V1
        REQUIRE ?V2
        REQUIRE ?V3
        REQUIRE ?V4
        REQUIRE ?V6
        REQUIRE ?V7
        MOV       A,#-0x10
        LCALL     ?BANKED_ENTER_XDATA
          CFI DPH0 load(1, XDATA, add(CFA_XSP16, literal(-1)))
          CFI DPL0 load(1, XDATA, add(CFA_XSP16, literal(-2)))
          CFI ?BRET_EXT load(1, XDATA, add(CFA_XSP16, literal(-3)))
          CFI ?RET_HIGH load(1, XDATA, add(CFA_XSP16, literal(-4)))
          CFI ?RET_LOW load(1, XDATA, add(CFA_XSP16, literal(-5)))
          CFI R7 load(1, XDATA, add(CFA_XSP16, literal(-6)))
          CFI V7 load(1, XDATA, add(CFA_XSP16, literal(-7)))
          CFI V6 load(1, XDATA, add(CFA_XSP16, literal(-8)))
          CFI V5 load(1, XDATA, add(CFA_XSP16, literal(-9)))
          CFI V4 load(1, XDATA, add(CFA_XSP16, literal(-10)))
          CFI V3 load(1, XDATA, add(CFA_XSP16, literal(-11)))
          CFI V2 load(1, XDATA, add(CFA_XSP16, literal(-12)))
          CFI V1 load(1, XDATA, add(CFA_XSP16, literal(-13)))
          CFI V0 load(1, XDATA, add(CFA_XSP16, literal(-14)))
          CFI VB load(1, XDATA, add(CFA_XSP16, literal(-15)))
          CFI R6 load(1, XDATA, add(CFA_XSP16, literal(-16)))
          CFI CFA_SP SP+0
          CFI CFA_XSP16 add(XSP16, 16)
        ; Saved register size: 16
        ; Auto size: 0
        MOV       A,R1
        MOV       R6,A
        MOV       ?V2,R2
//  349   unsigned char c=0,i=0;	
        MOV       R7,#0x0
//  350   c=chr-' ';//得到偏移后的值			
        MOV       A,#-0x20
        ADD       A,R3
        MOV       R0,A
//  351   if(x>Max_Column-1){
        MOV       A,R1
        CLR       C
        SUBB      A,#-0x80
        JC        ??OLED_ShowChar_0
//  352     x=0;
        MOV       R6,#0x0
//  353     y=y+2;
        MOV       A,#0x2
        ADD       A,R2
        MOV       ?V2,A
//  354   }
//  355   if(Char_Size ==16){
??OLED_ShowChar_0:
        MOV       A,R0
        MOV       ?V6,A
        MOV       ?V7,R7
        MOV       A,#0x10
        XRL       A,R4
        MOV       R2,?V2
        JNZ       ??OLED_ShowChar_1
//  356     OLED_Set_Pos(x,y);	
        ; Setup parameters for call to function OLED_Set_Pos
        MOV       A,R6
        MOV       R1,A
        LCALL     `??OLED_Set_Pos::?relay`; Banked call to: OLED_Set_Pos
//  357     for(i=0;i<8;i++){
        MOV       A,#0x4
        MOV       R0,#?V6
        LCALL     ?S_SHL
        MOV       ?V0,?V6
        MOV       ?V1,?V7
//  358       OLED_WR_Byte(F8X16[c*16+i],OLED_DATA);
??OLED_ShowChar_2:
        ; Setup parameters for call to function OLED_WR_Byte
        MOV       R4,#0x1
        MOV       R5,#0x0
        MOV       A,R7
        MOV       R0,A
        MOV       A,?V0
        ADD       A,R0
        MOV       R0,A
        CLR       A
        ADDC      A,?V1
        MOV       R1,A
        MOV       A,#F8X16 & 0xff
        ADD       A,R0
        MOV       DPL,A
        MOV       A,#(F8X16 >> 8) & 0xff
        LCALL     ?Subroutine10 & 0xFFFF
//  359     }
??CrossCallReturnLabel_34:
        JC        ??OLED_ShowChar_2
//  360     OLED_Set_Pos(x,y+1);
        ; Setup parameters for call to function OLED_Set_Pos
        MOV       A,#0x1
        ADD       A,?V2
        MOV       R2,A
        MOV       A,R6
        MOV       R1,A
        LCALL     `??OLED_Set_Pos::?relay`; Banked call to: OLED_Set_Pos
//  361     for(i=0;i<8;i++){
        MOV       R7,#0x0
//  362       OLED_WR_Byte(F8X16[c*16+i+8],OLED_DATA);
??OLED_ShowChar_3:
        ; Setup parameters for call to function OLED_WR_Byte
        MOV       R4,#0x1
        MOV       R5,#0x0
        MOV       A,R7
        MOV       R0,A
        MOV       A,?V0
        ADD       A,R0
        MOV       R0,A
        CLR       A
        ADDC      A,?V1
        MOV       R1,A
        MOV       A,#(F8X16 + 8) & 0xff
        ADD       A,R0
        MOV       DPL,A
        MOV       A,#((F8X16 + 8) >> 8) & 0xff
        LCALL     ?Subroutine10 & 0xFFFF
//  363     }
//  364   }
??CrossCallReturnLabel_35:
        JNC       ??OLED_ShowChar_4
        SJMP      ??OLED_ShowChar_3
//  365   else{	
//  366     OLED_Set_Pos(x,y);
??OLED_ShowChar_1:
        ; Setup parameters for call to function OLED_Set_Pos
        MOV       A,R6
        MOV       R1,A
        LCALL     `??OLED_Set_Pos::?relay`; Banked call to: OLED_Set_Pos
//  367     for(i=0;i<6;i++)
//  368     OLED_WR_Byte(F6x8[c][i],OLED_DATA);     
??OLED_ShowChar_5:
        ; Setup parameters for call to function OLED_WR_Byte
        MOV       R4,#0x1
        MOV       R5,#0x0
        MOV       A,R7
        MOV       R2,A
        MOV       A,?V6
        MOV       B,#0x6
        MUL       AB
        MOV       R0,A
        MOV       ?V0,B
        MOV       R1,?V0
        MOV       A,#F6x8 & 0xff
        ADD       A,R0
        MOV       R0,A
        MOV       A,#(F6x8 >> 8) & 0xff
        ADDC      A,R1
        MOV       R1,A
        MOV       A,R0
        ADD       A,R2
        MOV       DPL,A
        CLR       A
        ADDC      A,R1
        LCALL     ?Subroutine11 & 0xFFFF
??CrossCallReturnLabel_36:
        INC       R7
        MOV       A,R7
        CLR       C
        SUBB      A,#0x6
        JC        ??OLED_ShowChar_5
//  369   }
//  370 }
??OLED_ShowChar_4:
          CFI EndBlock cfiBlock26
        REQUIRE ?Subroutine2
        ; // Fall through to label ?Subroutine2

        RSEG BANKED_CODE:HUGECODE:NOROOT(0)
?Subroutine2:
          CFI Block cfiBlock27 Using cfiCommon0
          CFI NoFunction
          CFI CFA_SP SP+0
          CFI CFA_XSP16 add(XSP16, 16)
          CFI VB load(1, XDATA, add(CFA_XSP16, literal(-15)))
          CFI DPL0 load(1, XDATA, add(CFA_XSP16, literal(-2)))
          CFI DPH0 load(1, XDATA, add(CFA_XSP16, literal(-1)))
          CFI R6 load(1, XDATA, add(CFA_XSP16, literal(-16)))
          CFI R7 load(1, XDATA, add(CFA_XSP16, literal(-6)))
          CFI V0 load(1, XDATA, add(CFA_XSP16, literal(-14)))
          CFI V1 load(1, XDATA, add(CFA_XSP16, literal(-13)))
          CFI V2 load(1, XDATA, add(CFA_XSP16, literal(-12)))
          CFI V3 load(1, XDATA, add(CFA_XSP16, literal(-11)))
          CFI V4 load(1, XDATA, add(CFA_XSP16, literal(-10)))
          CFI V5 load(1, XDATA, add(CFA_XSP16, literal(-9)))
          CFI V6 load(1, XDATA, add(CFA_XSP16, literal(-8)))
          CFI V7 load(1, XDATA, add(CFA_XSP16, literal(-7)))
          CFI ?BRET_EXT load(1, XDATA, add(CFA_XSP16, literal(-3)))
          CFI ?RET_HIGH load(1, XDATA, add(CFA_XSP16, literal(-4)))
          CFI ?RET_LOW load(1, XDATA, add(CFA_XSP16, literal(-5)))
        MOV       R7,#0x8
        LJMP      ?BANKED_LEAVE_XDATA
          CFI EndBlock cfiBlock27

        RSEG BANKED_CODE:HUGECODE:NOROOT(0)
?Subroutine10:
          CFI Block cfiCond28 Using cfiCommon0
          CFI Function OLED_ShowChar
          CFI Conditional ??CrossCallReturnLabel_34
          CFI R6 load(1, XDATA, add(CFA_XSP16, literal(-16)))
          CFI VB load(1, XDATA, add(CFA_XSP16, literal(-15)))
          CFI V0 load(1, XDATA, add(CFA_XSP16, literal(-14)))
          CFI V1 load(1, XDATA, add(CFA_XSP16, literal(-13)))
          CFI V2 load(1, XDATA, add(CFA_XSP16, literal(-12)))
          CFI V3 load(1, XDATA, add(CFA_XSP16, literal(-11)))
          CFI V4 load(1, XDATA, add(CFA_XSP16, literal(-10)))
          CFI V5 load(1, XDATA, add(CFA_XSP16, literal(-9)))
          CFI V6 load(1, XDATA, add(CFA_XSP16, literal(-8)))
          CFI V7 load(1, XDATA, add(CFA_XSP16, literal(-7)))
          CFI R7 load(1, XDATA, add(CFA_XSP16, literal(-6)))
          CFI ?RET_LOW load(1, XDATA, add(CFA_XSP16, literal(-5)))
          CFI ?RET_HIGH load(1, XDATA, add(CFA_XSP16, literal(-4)))
          CFI ?BRET_EXT load(1, XDATA, add(CFA_XSP16, literal(-3)))
          CFI DPL0 load(1, XDATA, add(CFA_XSP16, literal(-2)))
          CFI DPH0 load(1, XDATA, add(CFA_XSP16, literal(-1)))
          CFI CFA_SP SP+-2
          CFI CFA_XSP16 add(XSP16, 16)
          CFI Block cfiCond29 Using cfiCommon0
          CFI (cfiCond29) Function OLED_ShowChar
          CFI (cfiCond29) Conditional ??CrossCallReturnLabel_35
          CFI (cfiCond29) R6 load(1, XDATA, add(CFA_XSP16, literal(-16)))
          CFI (cfiCond29) VB load(1, XDATA, add(CFA_XSP16, literal(-15)))
          CFI (cfiCond29) V0 load(1, XDATA, add(CFA_XSP16, literal(-14)))
          CFI (cfiCond29) V1 load(1, XDATA, add(CFA_XSP16, literal(-13)))
          CFI (cfiCond29) V2 load(1, XDATA, add(CFA_XSP16, literal(-12)))
          CFI (cfiCond29) V3 load(1, XDATA, add(CFA_XSP16, literal(-11)))
          CFI (cfiCond29) V4 load(1, XDATA, add(CFA_XSP16, literal(-10)))
          CFI (cfiCond29) V5 load(1, XDATA, add(CFA_XSP16, literal(-9)))
          CFI (cfiCond29) V6 load(1, XDATA, add(CFA_XSP16, literal(-8)))
          CFI (cfiCond29) V7 load(1, XDATA, add(CFA_XSP16, literal(-7)))
          CFI (cfiCond29) R7 load(1, XDATA, add(CFA_XSP16, literal(-6)))
          CFI (cfiCond29) ?RET_LOW load(1, XDATA, add(CFA_XSP16, literal(-5)))
          CFI (cfiCond29) ?RET_HIGH load(1, XDATA, add(CFA_XSP16, literal(-4)))
          CFI (cfiCond29) ?BRET_EXT load(1, XDATA, add(CFA_XSP16, literal(-3)))
          CFI (cfiCond29) DPL0 load(1, XDATA, add(CFA_XSP16, literal(-2)))
          CFI (cfiCond29) DPH0 load(1, XDATA, add(CFA_XSP16, literal(-1)))
          CFI (cfiCond29) CFA_SP SP+-2
          CFI (cfiCond29) CFA_XSP16 add(XSP16, 16)
          CFI Block cfiPicker30 Using cfiCommon1
          CFI (cfiPicker30) NoFunction
          CFI (cfiPicker30) Picker
        ADDC      A,R1
        LCALL     ?Subroutine13 & 0xFFFF
??CrossCallReturnLabel_40:
        INC       R7
        MOV       A,R7
        CLR       C
        SUBB      A,#0x8
        RET
          CFI EndBlock cfiCond28
          CFI EndBlock cfiCond29
          CFI EndBlock cfiPicker30
//  371 //m^n函数

        RSEG BANKED_CODE:HUGECODE:NOROOT(0)
//  372 unsigned long oled_pow(unsigned char m,unsigned char n){
oled_pow:
          CFI Block cfiBlock31 Using cfiCommon0
          CFI Function oled_pow
        CODE
        REQUIRE ?V0
        REQUIRE ?V1
        REQUIRE ?V2
        REQUIRE ?V3
        REQUIRE ?V4
        REQUIRE ?V5
        REQUIRE ?V6
        REQUIRE ?V7
        MOV       A,#-0x10
        LCALL     ?BANKED_ENTER_XDATA
          CFI DPH0 load(1, XDATA, add(CFA_XSP16, literal(-1)))
          CFI DPL0 load(1, XDATA, add(CFA_XSP16, literal(-2)))
          CFI ?BRET_EXT load(1, XDATA, add(CFA_XSP16, literal(-3)))
          CFI ?RET_HIGH load(1, XDATA, add(CFA_XSP16, literal(-4)))
          CFI ?RET_LOW load(1, XDATA, add(CFA_XSP16, literal(-5)))
          CFI R7 load(1, XDATA, add(CFA_XSP16, literal(-6)))
          CFI V7 load(1, XDATA, add(CFA_XSP16, literal(-7)))
          CFI V6 load(1, XDATA, add(CFA_XSP16, literal(-8)))
          CFI V5 load(1, XDATA, add(CFA_XSP16, literal(-9)))
          CFI V4 load(1, XDATA, add(CFA_XSP16, literal(-10)))
          CFI V3 load(1, XDATA, add(CFA_XSP16, literal(-11)))
          CFI V2 load(1, XDATA, add(CFA_XSP16, literal(-12)))
          CFI V1 load(1, XDATA, add(CFA_XSP16, literal(-13)))
          CFI V0 load(1, XDATA, add(CFA_XSP16, literal(-14)))
          CFI VB load(1, XDATA, add(CFA_XSP16, literal(-15)))
          CFI R6 load(1, XDATA, add(CFA_XSP16, literal(-16)))
          CFI CFA_SP SP+0
          CFI CFA_XSP16 add(XSP16, 16)
        ; Saved register size: 16
        ; Auto size: 0
        MOV       A,R1
        MOV       R7,A
        MOV       A,R2
        MOV       R6,A
//  373   unsigned long result=1;	 
        MOV       ?V4,#0x1
        MOV       ?V5,#0x0
        MOV       ?V6,#0x0
        MOV       ?V7,#0x0
        SJMP      ??oled_pow_0
//  374   while(n--)result*=m;
??oled_pow_1:
        MOV       ?V0,R7
        CLR       A
        MOV       ?V1,A
        MOV       ?V2,A
        MOV       ?V3,A
        MOV       R0,#?V4
        MOV       R1,#?V0
        LCALL     ?L_MUL
??oled_pow_0:
        MOV       A,R6
        MOV       R0,A
        MOV       A,#-0x1
        ADD       A,R0
        MOV       R6,A
        INC       A
        JNZ       ??oled_pow_1
//  375   return result;
        MOV       R2,?V4
        MOV       R3,?V5
        MOV       R4,?V6
        MOV       R5,?V7
        SJMP      ?Subroutine2
//  376 }				  
          CFI EndBlock cfiBlock31
//  377 //显示2个数字
//  378 //x,y :起点坐标	 
//  379 //len :数字的位数
//  380 //size:字体大小
//  381 //mode:模式	0,填充模式;1,叠加模式
//  382 //num:数值(0~4294967295);	 		  

        RSEG BANKED_CODE:HUGECODE:NOROOT(0)
//  383 void OLED_ShowNum(unsigned char x,unsigned char y,unsigned long num,unsigned char len,unsigned char size2){         	
OLED_ShowNum:
          CFI Block cfiBlock32 Using cfiCommon0
          CFI Function OLED_ShowNum
        CODE
        FUNCALL OLED_ShowNum, OLED_ShowChar
        LOCFRAME ISTACK, 0, STACK
        LOCFRAME PSTACK, 0, STACK
        LOCFRAME XSTACK, 24, STACK
        LOCFRAME IOVERLAY, 0, STATIC
        LOCFRAME DOVERLAY, 0, STATIC
        ARGFRAME ISTACK, 0, STACK
        ARGFRAME PSTACK, 0, STACK
        ARGFRAME XSTACK, 24, STACK
        ARGFRAME IOVERLAY, 0, STATIC
        ARGFRAME DOVERLAY, 0, STATIC
        FUNCALL OLED_ShowNum, oled_pow
        LOCFRAME ISTACK, 0, STACK
        LOCFRAME PSTACK, 0, STACK
        LOCFRAME XSTACK, 24, STACK
        LOCFRAME IOVERLAY, 0, STATIC
        LOCFRAME DOVERLAY, 0, STATIC
        ARGFRAME ISTACK, 0, STACK
        ARGFRAME PSTACK, 0, STACK
        ARGFRAME XSTACK, 24, STACK
        ARGFRAME IOVERLAY, 0, STATIC
        ARGFRAME DOVERLAY, 0, STATIC
        FUNCALL OLED_ShowNum, OLED_ShowChar
        LOCFRAME ISTACK, 0, STACK
        LOCFRAME PSTACK, 0, STACK
        LOCFRAME XSTACK, 24, STACK
        LOCFRAME IOVERLAY, 0, STATIC
        LOCFRAME DOVERLAY, 0, STATIC
        ARGFRAME ISTACK, 0, STACK
        ARGFRAME PSTACK, 0, STACK
        ARGFRAME XSTACK, 24, STACK
        ARGFRAME IOVERLAY, 0, STATIC
        ARGFRAME DOVERLAY, 0, STATIC
        REQUIRE ?V0
        REQUIRE ?V1
        REQUIRE ?V2
        REQUIRE ?V3
        REQUIRE ?V4
        REQUIRE ?V5
        REQUIRE ?V6
        REQUIRE ?V7
        REQUIRE ?V8
        REQUIRE ?V9
        REQUIRE ?V10
        REQUIRE ?V11
        REQUIRE ?V12
        REQUIRE ?V13
        REQUIRE ?V14
        REQUIRE ?V15
        MOV       A,#-0x18
        LCALL     ?BANKED_ENTER_XDATA
          CFI DPH0 load(1, XDATA, add(CFA_XSP16, literal(-1)))
          CFI DPL0 load(1, XDATA, add(CFA_XSP16, literal(-2)))
          CFI ?BRET_EXT load(1, XDATA, add(CFA_XSP16, literal(-3)))
          CFI ?RET_HIGH load(1, XDATA, add(CFA_XSP16, literal(-4)))
          CFI ?RET_LOW load(1, XDATA, add(CFA_XSP16, literal(-5)))
          CFI R7 load(1, XDATA, add(CFA_XSP16, literal(-6)))
          CFI V15 load(1, XDATA, add(CFA_XSP16, literal(-7)))
          CFI V14 load(1, XDATA, add(CFA_XSP16, literal(-8)))
          CFI V13 load(1, XDATA, add(CFA_XSP16, literal(-9)))
          CFI V12 load(1, XDATA, add(CFA_XSP16, literal(-10)))
          CFI V11 load(1, XDATA, add(CFA_XSP16, literal(-11)))
          CFI V10 load(1, XDATA, add(CFA_XSP16, literal(-12)))
          CFI V9 load(1, XDATA, add(CFA_XSP16, literal(-13)))
          CFI V8 load(1, XDATA, add(CFA_XSP16, literal(-14)))
          CFI V7 load(1, XDATA, add(CFA_XSP16, literal(-15)))
          CFI V6 load(1, XDATA, add(CFA_XSP16, literal(-16)))
          CFI V5 load(1, XDATA, add(CFA_XSP16, literal(-17)))
          CFI V4 load(1, XDATA, add(CFA_XSP16, literal(-18)))
          CFI V3 load(1, XDATA, add(CFA_XSP16, literal(-19)))
          CFI V2 load(1, XDATA, add(CFA_XSP16, literal(-20)))
          CFI V1 load(1, XDATA, add(CFA_XSP16, literal(-21)))
          CFI V0 load(1, XDATA, add(CFA_XSP16, literal(-22)))
          CFI VB load(1, XDATA, add(CFA_XSP16, literal(-23)))
          CFI R6 load(1, XDATA, add(CFA_XSP16, literal(-24)))
          CFI CFA_SP SP+0
          CFI CFA_XSP16 add(XSP16, 24)
        ; Saved register size: 24
        ; Auto size: 0
        MOV       ?V15,R1
        MOV       ?V14,R2
        MOV       ?V13,R3
        MOV       ?V12,R4
//  384   unsigned char t,temp;
//  385   unsigned char enshow=0;
        MOV       R7,#0x0
//  386   for(t=0;t<len;t++){
        MOV       R6,#0x0
        MOV       A,#0x18
        LCALL     ?XSTACK_DISP0_8
        MOV       R0,#?V4
        LCALL     ?L_MOV_X
        SJMP      ??OLED_ShowNum_0
//  387     temp=(num/oled_pow(10,len-t-1))%10;
//  388     if(enshow==0&&t<(len-1)){
//  389       if(temp==0){
//  390         OLED_ShowChar(x+(size2/2)*t,y,' ',size2);
//  391         continue;
//  392       }
//  393       else{
//  394         enshow=1;
??OLED_ShowNum_1:
        MOV       R7,#0x1
//  395       }
//  396     }
//  397     OLED_ShowChar(x+(size2/2)*t,y,temp+'0',size2);
??OLED_ShowNum_2:
        ; Setup parameters for call to function OLED_ShowChar
        MOV       R4,?V12
        MOV       A,#0x30
        ADD       A,R0
        MOV       R3,A
??OLED_ShowNum_3:
        MOV       R2,?V14
        LCALL     `??OLED_ShowChar::?relay`; Banked call to: OLED_ShowChar
        INC       R6
??OLED_ShowNum_0:
        MOV       A,R6
        CLR       C
        SUBB      A,?V13
        JNC       ??OLED_ShowNum_4
        MOV       ?V0,?V4
        MOV       ?V1,?V5
        MOV       ?V2,?V6
        MOV       ?V3,?V7
        ; Setup parameters for call to function oled_pow
        MOV       A,?V13
        CLR       C
        SUBB      A,R6
        DEC       A
        MOV       R2,A
        MOV       R1,#0xa
        LCALL     `??oled_pow::?relay`; Banked call to: oled_pow
        MOV       ?V8,R2
        MOV       ?V9,R3
        MOV       ?V10,R4
        MOV       ?V11,R5
        MOV       R0,#?V0
        MOV       R1,#?V8
        LCALL     ?UL_DIV_MOD
        MOV       DPTR,#__Constant_a
        MOV       R0,#?V8
        LCALL     ?L_MOV_X
        MOV       R0,#?V0
        MOV       R1,#?V8
        LCALL     ?UL_DIV_MOD
        MOV       A,?V8
        MOV       R0,A
        MOV       A,R6
        MOV       B,A
        MOV       A,?V12
        CLR       C
        RRC       A
        MUL       AB
        ADD       A,?V15
        MOV       R1,A
        MOV       A,R7
        JNZ       ??OLED_ShowNum_2
        MOV       A,R6
        MOV       R4,A
        MOV       A,?V13
        ADD       A,#-0x1
        MOV       R2,A
        CLR       A
        ADDC      A,#-0x1
        MOV       R3,A
        CLR       C
        MOV       A,R4
        SUBB      A,R2
        CLR       A
        SUBB      A,R3
        MOV       C,0xD0 /* PSW */.2
        XRL       A,PSW
        RLC       A
        JNC       ??OLED_ShowNum_2
        MOV       A,R0
        JNZ       ??OLED_ShowNum_1
        ; Setup parameters for call to function OLED_ShowChar
        MOV       R4,?V12
        MOV       R3,#0x20
        SJMP      ??OLED_ShowNum_3
//  398   }
//  399 } 
??OLED_ShowNum_4:
        MOV       R7,#0x10
        LJMP      ?BANKED_LEAVE_XDATA
          CFI EndBlock cfiBlock32
//  400 //显示一个字符号串

        RSEG BANKED_CODE:HUGECODE:NOROOT(0)
//  401 void OLED_ShowString(unsigned char x,unsigned char y,unsigned char *chr,unsigned char Char_Size){
OLED_ShowString:
          CFI Block cfiBlock33 Using cfiCommon0
          CFI Function OLED_ShowString
        CODE
        FUNCALL OLED_ShowString, OLED_ShowChar
        LOCFRAME ISTACK, 0, STACK
        LOCFRAME PSTACK, 0, STACK
        LOCFRAME XSTACK, 12, STACK
        LOCFRAME IOVERLAY, 0, STATIC
        LOCFRAME DOVERLAY, 0, STATIC
        ARGFRAME ISTACK, 0, STACK
        ARGFRAME PSTACK, 0, STACK
        ARGFRAME XSTACK, 12, STACK
        ARGFRAME IOVERLAY, 0, STATIC
        ARGFRAME DOVERLAY, 0, STATIC
        REQUIRE ?V0
        REQUIRE ?V1
        REQUIRE ?V2
        REQUIRE ?V3
        MOV       A,#-0xc
        LCALL     ?BANKED_ENTER_XDATA
          CFI DPH0 load(1, XDATA, add(CFA_XSP16, literal(-1)))
          CFI DPL0 load(1, XDATA, add(CFA_XSP16, literal(-2)))
          CFI ?BRET_EXT load(1, XDATA, add(CFA_XSP16, literal(-3)))
          CFI ?RET_HIGH load(1, XDATA, add(CFA_XSP16, literal(-4)))
          CFI ?RET_LOW load(1, XDATA, add(CFA_XSP16, literal(-5)))
          CFI R7 load(1, XDATA, add(CFA_XSP16, literal(-6)))
          CFI V3 load(1, XDATA, add(CFA_XSP16, literal(-7)))
          CFI V2 load(1, XDATA, add(CFA_XSP16, literal(-8)))
          CFI V1 load(1, XDATA, add(CFA_XSP16, literal(-9)))
          CFI V0 load(1, XDATA, add(CFA_XSP16, literal(-10)))
          CFI VB load(1, XDATA, add(CFA_XSP16, literal(-11)))
          CFI R6 load(1, XDATA, add(CFA_XSP16, literal(-12)))
          CFI CFA_SP SP+0
          CFI CFA_XSP16 add(XSP16, 12)
        ; Saved register size: 12
        ; Auto size: 0
        MOV       ?V0,R1
        MOV       ?V2,R2
        MOV       A,R4
        MOV       R6,A
        MOV       A,R5
        MOV       R7,A
        MOV       ?V3,R3
//  402   unsigned char j=0;
        MOV       ?V1,#0x0
        SJMP      ??OLED_ShowString_0
//  403   while (chr[j]!='\0'){
//  404     OLED_ShowChar(x,y,chr[j],Char_Size);
??OLED_ShowString_1:
        ; Setup parameters for call to function OLED_ShowChar
        MOV       R4,?V3
        MOV       R2,?V2
        MOV       R1,?V0
        LCALL     `??OLED_ShowChar::?relay`; Banked call to: OLED_ShowChar
//  405     x+=8;
        MOV       A,#0x8
        ADD       A,?V0
        MOV       ?V0,A
//  406     if(x>120){
        CLR       C
        SUBB      A,#0x79
        JC        ??OLED_ShowString_2
//  407       x=0;
        MOV       ?V0,#0x0
//  408       y+=2;
        INC       ?V2
        INC       ?V2
//  409     }
//  410     j++;
??OLED_ShowString_2:
        INC       ?V1
//  411   }
??OLED_ShowString_0:
        MOV       R0,?V1
        MOV       A,R6
        ADD       A,R0
        MOV       DPL,A
        CLR       A
        ADDC      A,R7
        MOV       DPH,A
        MOVX      A,@DPTR
        MOV       R3,A
        JNZ       ??OLED_ShowString_1
//  412 }
        MOV       R7,#0x4
        LJMP      ?BANKED_LEAVE_XDATA
          CFI EndBlock cfiBlock33
//  413 //显示汉字

        RSEG BANKED_CODE:HUGECODE:NOROOT(0)
//  414 void OLED_ShowCHinese(unsigned char x,unsigned char y,unsigned char no){      			    
OLED_ShowCHinese:
          CFI Block cfiBlock34 Using cfiCommon0
          CFI Function OLED_ShowCHinese
        CODE
        FUNCALL OLED_ShowCHinese, OLED_Set_Pos
        LOCFRAME ISTACK, 0, STACK
        LOCFRAME PSTACK, 0, STACK
        LOCFRAME XSTACK, 14, STACK
        LOCFRAME IOVERLAY, 0, STATIC
        LOCFRAME DOVERLAY, 0, STATIC
        ARGFRAME ISTACK, 0, STACK
        ARGFRAME PSTACK, 0, STACK
        ARGFRAME XSTACK, 14, STACK
        ARGFRAME IOVERLAY, 0, STATIC
        ARGFRAME DOVERLAY, 0, STATIC
        FUNCALL OLED_ShowCHinese, OLED_WR_Byte
        LOCFRAME ISTACK, 0, STACK
        LOCFRAME PSTACK, 0, STACK
        LOCFRAME XSTACK, 14, STACK
        LOCFRAME IOVERLAY, 0, STATIC
        LOCFRAME DOVERLAY, 0, STATIC
        ARGFRAME ISTACK, 0, STACK
        ARGFRAME PSTACK, 0, STACK
        ARGFRAME XSTACK, 14, STACK
        ARGFRAME IOVERLAY, 0, STATIC
        ARGFRAME DOVERLAY, 0, STATIC
        FUNCALL OLED_ShowCHinese, OLED_Set_Pos
        LOCFRAME ISTACK, 0, STACK
        LOCFRAME PSTACK, 0, STACK
        LOCFRAME XSTACK, 14, STACK
        LOCFRAME IOVERLAY, 0, STATIC
        LOCFRAME DOVERLAY, 0, STATIC
        ARGFRAME ISTACK, 0, STACK
        ARGFRAME PSTACK, 0, STACK
        ARGFRAME XSTACK, 14, STACK
        ARGFRAME IOVERLAY, 0, STATIC
        ARGFRAME DOVERLAY, 0, STATIC
        FUNCALL OLED_ShowCHinese, OLED_WR_Byte
        LOCFRAME ISTACK, 0, STACK
        LOCFRAME PSTACK, 0, STACK
        LOCFRAME XSTACK, 14, STACK
        LOCFRAME IOVERLAY, 0, STATIC
        LOCFRAME DOVERLAY, 0, STATIC
        ARGFRAME ISTACK, 0, STACK
        ARGFRAME PSTACK, 0, STACK
        ARGFRAME XSTACK, 14, STACK
        ARGFRAME IOVERLAY, 0, STATIC
        ARGFRAME DOVERLAY, 0, STATIC
        REQUIRE ?V0
        REQUIRE ?V1
        REQUIRE ?V2
        REQUIRE ?V3
        REQUIRE ?V4
        REQUIRE ?V5
        MOV       A,#-0xe
        LCALL     ?BANKED_ENTER_XDATA
          CFI DPH0 load(1, XDATA, add(CFA_XSP16, literal(-1)))
          CFI DPL0 load(1, XDATA, add(CFA_XSP16, literal(-2)))
          CFI ?BRET_EXT load(1, XDATA, add(CFA_XSP16, literal(-3)))
          CFI ?RET_HIGH load(1, XDATA, add(CFA_XSP16, literal(-4)))
          CFI ?RET_LOW load(1, XDATA, add(CFA_XSP16, literal(-5)))
          CFI R7 load(1, XDATA, add(CFA_XSP16, literal(-6)))
          CFI V5 load(1, XDATA, add(CFA_XSP16, literal(-7)))
          CFI V4 load(1, XDATA, add(CFA_XSP16, literal(-8)))
          CFI V3 load(1, XDATA, add(CFA_XSP16, literal(-9)))
          CFI V2 load(1, XDATA, add(CFA_XSP16, literal(-10)))
          CFI V1 load(1, XDATA, add(CFA_XSP16, literal(-11)))
          CFI V0 load(1, XDATA, add(CFA_XSP16, literal(-12)))
          CFI VB load(1, XDATA, add(CFA_XSP16, literal(-13)))
          CFI R6 load(1, XDATA, add(CFA_XSP16, literal(-14)))
          CFI CFA_SP SP+0
          CFI CFA_XSP16 add(XSP16, 14)
        ; Saved register size: 14
        ; Auto size: 0
        MOV       ?V1,R1
        MOV       ?V2,R2
        MOV       ?V3,R3
//  415   unsigned char t,adder=0;
//  416   OLED_Set_Pos(x,y);
        ; Setup parameters for call to function OLED_Set_Pos
        LCALL     `??OLED_Set_Pos::?relay`; Banked call to: OLED_Set_Pos
//  417   for(t=0;t<16;t++){
        MOV       ?V0,#0x0
        MOV       A,?V3
        MOV       ?V4,A
        MOV       ?V5,#0x0
        MOV       A,#0x6
        MOV       R0,#?V4
        LCALL     ?S_SHL
        MOV       A,#Hzk & 0xff
        ADD       A,?V4
        MOV       R6,A
        MOV       A,#(Hzk >> 8) & 0xff
        ADDC      A,?V5
        MOV       R7,A
//  418     OLED_WR_Byte(Hzk[2*no][t],OLED_DATA);
??OLED_ShowCHinese_0:
        ; Setup parameters for call to function OLED_WR_Byte
        MOV       R4,#0x1
        MOV       R5,#0x0
        MOV       R0,?V0
        MOV       A,R6
        ADD       A,R0
        MOV       DPL,A
        CLR       A
        ADDC      A,R7
        LCALL     ?Subroutine5 & 0xFFFF
//  419     adder+=1;
//  420   }	
??CrossCallReturnLabel_5:
        JC        ??OLED_ShowCHinese_0
//  421   OLED_Set_Pos(x,y+1);	
        ; Setup parameters for call to function OLED_Set_Pos
        MOV       A,#0x1
        ADD       A,?V2
        MOV       R2,A
        MOV       R1,?V1
        LCALL     `??OLED_Set_Pos::?relay`; Banked call to: OLED_Set_Pos
//  422   for(t=0;t<16;t++){	
        MOV       ?V0,#0x0
//  423     OLED_WR_Byte(Hzk[2*no+1][t],OLED_DATA);
??OLED_ShowCHinese_1:
        ; Setup parameters for call to function OLED_WR_Byte
        MOV       R4,#0x1
        MOV       R5,#0x0
        MOV       R0,?V0
        MOV       A,R6
        ADD       A,R0
        MOV       R0,A
        CLR       A
        ADDC      A,R7
        MOV       R1,A
        MOV       A,R0
        ADD       A,#0x20
        MOV       DPL,A
        CLR       A
        ADDC      A,R1
        LCALL     ?Subroutine5 & 0xFFFF
//  424     adder+=1;
//  425   }
??CrossCallReturnLabel_6:
        JC        ??OLED_ShowCHinese_1
//  426 }
        MOV       R7,#0x6
        LJMP      ?BANKED_LEAVE_XDATA
          CFI EndBlock cfiBlock34

        RSEG BANKED_CODE:HUGECODE:NOROOT(0)
?Subroutine5:
          CFI Block cfiCond35 Using cfiCommon0
          CFI Function OLED_ShowCHinese
          CFI Conditional ??CrossCallReturnLabel_5
          CFI R6 load(1, XDATA, add(CFA_XSP16, literal(-14)))
          CFI VB load(1, XDATA, add(CFA_XSP16, literal(-13)))
          CFI V0 load(1, XDATA, add(CFA_XSP16, literal(-12)))
          CFI V1 load(1, XDATA, add(CFA_XSP16, literal(-11)))
          CFI V2 load(1, XDATA, add(CFA_XSP16, literal(-10)))
          CFI V3 load(1, XDATA, add(CFA_XSP16, literal(-9)))
          CFI V4 load(1, XDATA, add(CFA_XSP16, literal(-8)))
          CFI V5 load(1, XDATA, add(CFA_XSP16, literal(-7)))
          CFI R7 load(1, XDATA, add(CFA_XSP16, literal(-6)))
          CFI ?RET_LOW load(1, XDATA, add(CFA_XSP16, literal(-5)))
          CFI ?RET_HIGH load(1, XDATA, add(CFA_XSP16, literal(-4)))
          CFI ?BRET_EXT load(1, XDATA, add(CFA_XSP16, literal(-3)))
          CFI DPL0 load(1, XDATA, add(CFA_XSP16, literal(-2)))
          CFI DPH0 load(1, XDATA, add(CFA_XSP16, literal(-1)))
          CFI CFA_SP SP+-2
          CFI CFA_XSP16 add(XSP16, 14)
          CFI Block cfiCond36 Using cfiCommon0
          CFI (cfiCond36) Function OLED_ShowCHinese
          CFI (cfiCond36) Conditional ??CrossCallReturnLabel_6
          CFI (cfiCond36) R6 load(1, XDATA, add(CFA_XSP16, literal(-14)))
          CFI (cfiCond36) VB load(1, XDATA, add(CFA_XSP16, literal(-13)))
          CFI (cfiCond36) V0 load(1, XDATA, add(CFA_XSP16, literal(-12)))
          CFI (cfiCond36) V1 load(1, XDATA, add(CFA_XSP16, literal(-11)))
          CFI (cfiCond36) V2 load(1, XDATA, add(CFA_XSP16, literal(-10)))
          CFI (cfiCond36) V3 load(1, XDATA, add(CFA_XSP16, literal(-9)))
          CFI (cfiCond36) V4 load(1, XDATA, add(CFA_XSP16, literal(-8)))
          CFI (cfiCond36) V5 load(1, XDATA, add(CFA_XSP16, literal(-7)))
          CFI (cfiCond36) R7 load(1, XDATA, add(CFA_XSP16, literal(-6)))
          CFI (cfiCond36) ?RET_LOW load(1, XDATA, add(CFA_XSP16, literal(-5)))
          CFI (cfiCond36) ?RET_HIGH load(1, XDATA, add(CFA_XSP16, literal(-4)))
          CFI (cfiCond36) ?BRET_EXT load(1, XDATA, add(CFA_XSP16, literal(-3)))
          CFI (cfiCond36) DPL0 load(1, XDATA, add(CFA_XSP16, literal(-2)))
          CFI (cfiCond36) DPH0 load(1, XDATA, add(CFA_XSP16, literal(-1)))
          CFI (cfiCond36) CFA_SP SP+-2
          CFI (cfiCond36) CFA_XSP16 add(XSP16, 14)
          CFI Block cfiPicker37 Using cfiCommon1
          CFI (cfiPicker37) NoFunction
          CFI (cfiPicker37) Picker
        LCALL     ?Subroutine13 & 0xFFFF
??CrossCallReturnLabel_41:
        INC       ?V0
        MOV       A,?V0
        CLR       C
        SUBB      A,#0x10
        RET
          CFI EndBlock cfiCond35
          CFI EndBlock cfiCond36
          CFI EndBlock cfiPicker37
//  427 /***********功能描述：显示显示BMP图片128×64起始点坐标(x,y),x的范围0～127，y为页的范围0～7*****************/

        RSEG BANKED_CODE:HUGECODE:NOROOT(0)
//  428 void OLED_DrawBMP(unsigned char x0, unsigned char y0,unsigned char x1, unsigned char y1,unsigned char BMP[]){ 	
OLED_DrawBMP:
          CFI Block cfiBlock38 Using cfiCommon0
          CFI Function OLED_DrawBMP
        CODE
        FUNCALL OLED_DrawBMP, OLED_WR_Byte
        LOCFRAME ISTACK, 0, STACK
        LOCFRAME PSTACK, 0, STACK
        LOCFRAME XSTACK, 16, STACK
        LOCFRAME IOVERLAY, 0, STATIC
        LOCFRAME DOVERLAY, 0, STATIC
        ARGFRAME ISTACK, 0, STACK
        ARGFRAME PSTACK, 0, STACK
        ARGFRAME XSTACK, 16, STACK
        ARGFRAME IOVERLAY, 0, STATIC
        ARGFRAME DOVERLAY, 0, STATIC
        FUNCALL OLED_DrawBMP, OLED_Set_Pos
        LOCFRAME ISTACK, 0, STACK
        LOCFRAME PSTACK, 0, STACK
        LOCFRAME XSTACK, 16, STACK
        LOCFRAME IOVERLAY, 0, STATIC
        LOCFRAME DOVERLAY, 0, STATIC
        ARGFRAME ISTACK, 0, STACK
        ARGFRAME PSTACK, 0, STACK
        ARGFRAME XSTACK, 16, STACK
        ARGFRAME IOVERLAY, 0, STATIC
        ARGFRAME DOVERLAY, 0, STATIC
        REQUIRE ?V0
        REQUIRE ?V1
        REQUIRE ?V2
        REQUIRE ?V3
        REQUIRE ?V4
        REQUIRE ?V5
        REQUIRE ?V6
        REQUIRE ?V7
        MOV       A,#-0x10
        LCALL     ?BANKED_ENTER_XDATA
          CFI DPH0 load(1, XDATA, add(CFA_XSP16, literal(-1)))
          CFI DPL0 load(1, XDATA, add(CFA_XSP16, literal(-2)))
          CFI ?BRET_EXT load(1, XDATA, add(CFA_XSP16, literal(-3)))
          CFI ?RET_HIGH load(1, XDATA, add(CFA_XSP16, literal(-4)))
          CFI ?RET_LOW load(1, XDATA, add(CFA_XSP16, literal(-5)))
          CFI R7 load(1, XDATA, add(CFA_XSP16, literal(-6)))
          CFI V7 load(1, XDATA, add(CFA_XSP16, literal(-7)))
          CFI V6 load(1, XDATA, add(CFA_XSP16, literal(-8)))
          CFI V5 load(1, XDATA, add(CFA_XSP16, literal(-9)))
          CFI V4 load(1, XDATA, add(CFA_XSP16, literal(-10)))
          CFI V3 load(1, XDATA, add(CFA_XSP16, literal(-11)))
          CFI V2 load(1, XDATA, add(CFA_XSP16, literal(-12)))
          CFI V1 load(1, XDATA, add(CFA_XSP16, literal(-13)))
          CFI V0 load(1, XDATA, add(CFA_XSP16, literal(-14)))
          CFI VB load(1, XDATA, add(CFA_XSP16, literal(-15)))
          CFI R6 load(1, XDATA, add(CFA_XSP16, literal(-16)))
          CFI CFA_SP SP+0
          CFI CFA_XSP16 add(XSP16, 16)
        ; Saved register size: 16
        ; Auto size: 0
        MOV       ?V3,R1
        MOV       ?V5,R3
        MOV       ?V6,R4
//  429   unsigned int j=0;
        MOV       ?V0,#0x0
        MOV       ?V1,#0x0
//  430   unsigned char x,y;
//  431   if(y1%8==0){
//  432     y=y1/8;
//  433   }
//  434   else{
//  435     y=y1/8+1;
//  436   }
//  437   for(y=y0;y<y1;y++){
        MOV       ?V2,R2
        MOV       A,#0x10
        LCALL     ?XSTACK_DISP0_8
        MOVX      A,@DPTR
        MOV       R0,A
        INC       DPTR
        MOVX      A,@DPTR
        MOV       R1,A
        MOV       A,R0
        MOV       R6,A
        MOV       A,R1
        MOV       R7,A
        SJMP      ??OLED_DrawBMP_0
//  438     OLED_Set_Pos(x0,y);
//  439     for(x=x0;x<x1;x++){      
//  440       OLED_WR_Byte(BMP[j++],OLED_DATA);	    	
??OLED_DrawBMP_1:
        ; Setup parameters for call to function OLED_WR_Byte
        MOV       R4,#0x1
        MOV       R5,#0x0
        MOV       A,R6
        ADD       A,?V0
        MOV       DPL,A
        MOV       A,R7
        ADDC      A,?V1
        LCALL     ?Subroutine11 & 0xFFFF
//  441     }
??CrossCallReturnLabel_37:
        INC       ?V0
        MOV       A,?V0
        JNZ       ??OLED_DrawBMP_2
        INC       ?V1
??OLED_DrawBMP_2:
        INC       ?V7
??OLED_DrawBMP_3:
        MOV       A,?V7
        CLR       C
        SUBB      A,?V5
        JC        ??OLED_DrawBMP_1
        INC       ?V2
??OLED_DrawBMP_0:
        MOV       A,?V2
        CLR       C
        SUBB      A,?V6
        JNC       ??OLED_DrawBMP_4
        ; Setup parameters for call to function OLED_Set_Pos
        MOV       R2,?V2
        MOV       R1,?V3
        LCALL     `??OLED_Set_Pos::?relay`; Banked call to: OLED_Set_Pos
        MOV       ?V7,?V3
        SJMP      ??OLED_DrawBMP_3
//  442   }
//  443 } 
??OLED_DrawBMP_4:
        LJMP      ?Subroutine2 & 0xFFFF
          CFI EndBlock cfiBlock38

        RSEG BANKED_CODE:HUGECODE:NOROOT(0)
?Subroutine11:
          CFI Block cfiCond39 Using cfiCommon0
          CFI Function OLED_ShowChar
          CFI Conditional ??CrossCallReturnLabel_36
          CFI R6 load(1, XDATA, add(CFA_XSP16, literal(-16)))
          CFI VB load(1, XDATA, add(CFA_XSP16, literal(-15)))
          CFI V0 load(1, XDATA, add(CFA_XSP16, literal(-14)))
          CFI V1 load(1, XDATA, add(CFA_XSP16, literal(-13)))
          CFI V2 load(1, XDATA, add(CFA_XSP16, literal(-12)))
          CFI V3 load(1, XDATA, add(CFA_XSP16, literal(-11)))
          CFI V4 load(1, XDATA, add(CFA_XSP16, literal(-10)))
          CFI V5 load(1, XDATA, add(CFA_XSP16, literal(-9)))
          CFI V6 load(1, XDATA, add(CFA_XSP16, literal(-8)))
          CFI V7 load(1, XDATA, add(CFA_XSP16, literal(-7)))
          CFI R7 load(1, XDATA, add(CFA_XSP16, literal(-6)))
          CFI ?RET_LOW load(1, XDATA, add(CFA_XSP16, literal(-5)))
          CFI ?RET_HIGH load(1, XDATA, add(CFA_XSP16, literal(-4)))
          CFI ?BRET_EXT load(1, XDATA, add(CFA_XSP16, literal(-3)))
          CFI DPL0 load(1, XDATA, add(CFA_XSP16, literal(-2)))
          CFI DPH0 load(1, XDATA, add(CFA_XSP16, literal(-1)))
          CFI CFA_SP SP+-2
          CFI CFA_XSP16 add(XSP16, 16)
          CFI Block cfiCond40 Using cfiCommon0
          CFI (cfiCond40) Function OLED_DrawBMP
          CFI (cfiCond40) Conditional ??CrossCallReturnLabel_37
          CFI (cfiCond40) R6 load(1, XDATA, add(CFA_XSP16, literal(-16)))
          CFI (cfiCond40) VB load(1, XDATA, add(CFA_XSP16, literal(-15)))
          CFI (cfiCond40) V0 load(1, XDATA, add(CFA_XSP16, literal(-14)))
          CFI (cfiCond40) V1 load(1, XDATA, add(CFA_XSP16, literal(-13)))
          CFI (cfiCond40) V2 load(1, XDATA, add(CFA_XSP16, literal(-12)))
          CFI (cfiCond40) V3 load(1, XDATA, add(CFA_XSP16, literal(-11)))
          CFI (cfiCond40) V4 load(1, XDATA, add(CFA_XSP16, literal(-10)))
          CFI (cfiCond40) V5 load(1, XDATA, add(CFA_XSP16, literal(-9)))
          CFI (cfiCond40) V6 load(1, XDATA, add(CFA_XSP16, literal(-8)))
          CFI (cfiCond40) V7 load(1, XDATA, add(CFA_XSP16, literal(-7)))
          CFI (cfiCond40) R7 load(1, XDATA, add(CFA_XSP16, literal(-6)))
          CFI (cfiCond40) ?RET_LOW load(1, XDATA, add(CFA_XSP16, literal(-5)))
          CFI (cfiCond40) ?RET_HIGH load(1, XDATA, add(CFA_XSP16, literal(-4)))
          CFI (cfiCond40) ?BRET_EXT load(1, XDATA, add(CFA_XSP16, literal(-3)))
          CFI (cfiCond40) DPL0 load(1, XDATA, add(CFA_XSP16, literal(-2)))
          CFI (cfiCond40) DPH0 load(1, XDATA, add(CFA_XSP16, literal(-1)))
          CFI (cfiCond40) CFA_SP SP+-2
          CFI (cfiCond40) CFA_XSP16 add(XSP16, 16)
          CFI Block cfiPicker41 Using cfiCommon1
          CFI (cfiPicker41) NoFunction
          CFI (cfiPicker41) Picker
        LCALL     ?Subroutine13 & 0xFFFF
??CrossCallReturnLabel_42:
        RET
          CFI EndBlock cfiCond39
          CFI EndBlock cfiCond40
          CFI EndBlock cfiPicker41

        RSEG BANKED_CODE:HUGECODE:NOROOT(0)
?Subroutine13:
          CFI Block cfiCond42 Using cfiCommon0
          CFI Function OLED_ShowChar
          CFI Conditional ??CrossCallReturnLabel_40, ??CrossCallReturnLabel_34
          CFI R6 load(1, XDATA, add(CFA_XSP16, literal(-16)))
          CFI VB load(1, XDATA, add(CFA_XSP16, literal(-15)))
          CFI V0 load(1, XDATA, add(CFA_XSP16, literal(-14)))
          CFI V1 load(1, XDATA, add(CFA_XSP16, literal(-13)))
          CFI V2 load(1, XDATA, add(CFA_XSP16, literal(-12)))
          CFI V3 load(1, XDATA, add(CFA_XSP16, literal(-11)))
          CFI V4 load(1, XDATA, add(CFA_XSP16, literal(-10)))
          CFI V5 load(1, XDATA, add(CFA_XSP16, literal(-9)))
          CFI V6 load(1, XDATA, add(CFA_XSP16, literal(-8)))
          CFI V7 load(1, XDATA, add(CFA_XSP16, literal(-7)))
          CFI R7 load(1, XDATA, add(CFA_XSP16, literal(-6)))
          CFI ?RET_LOW load(1, XDATA, add(CFA_XSP16, literal(-5)))
          CFI ?RET_HIGH load(1, XDATA, add(CFA_XSP16, literal(-4)))
          CFI ?BRET_EXT load(1, XDATA, add(CFA_XSP16, literal(-3)))
          CFI DPL0 load(1, XDATA, add(CFA_XSP16, literal(-2)))
          CFI DPH0 load(1, XDATA, add(CFA_XSP16, literal(-1)))
          CFI CFA_SP SP+-4
          CFI CFA_XSP16 add(XSP16, 16)
          CFI Block cfiCond43 Using cfiCommon0
          CFI (cfiCond43) Function OLED_ShowChar
          CFI (cfiCond43) Conditional ??CrossCallReturnLabel_40, ??CrossCallReturnLabel_35
          CFI (cfiCond43) R6 load(1, XDATA, add(CFA_XSP16, literal(-16)))
          CFI (cfiCond43) VB load(1, XDATA, add(CFA_XSP16, literal(-15)))
          CFI (cfiCond43) V0 load(1, XDATA, add(CFA_XSP16, literal(-14)))
          CFI (cfiCond43) V1 load(1, XDATA, add(CFA_XSP16, literal(-13)))
          CFI (cfiCond43) V2 load(1, XDATA, add(CFA_XSP16, literal(-12)))
          CFI (cfiCond43) V3 load(1, XDATA, add(CFA_XSP16, literal(-11)))
          CFI (cfiCond43) V4 load(1, XDATA, add(CFA_XSP16, literal(-10)))
          CFI (cfiCond43) V5 load(1, XDATA, add(CFA_XSP16, literal(-9)))
          CFI (cfiCond43) V6 load(1, XDATA, add(CFA_XSP16, literal(-8)))
          CFI (cfiCond43) V7 load(1, XDATA, add(CFA_XSP16, literal(-7)))
          CFI (cfiCond43) R7 load(1, XDATA, add(CFA_XSP16, literal(-6)))
          CFI (cfiCond43) ?RET_LOW load(1, XDATA, add(CFA_XSP16, literal(-5)))
          CFI (cfiCond43) ?RET_HIGH load(1, XDATA, add(CFA_XSP16, literal(-4)))
          CFI (cfiCond43) ?BRET_EXT load(1, XDATA, add(CFA_XSP16, literal(-3)))
          CFI (cfiCond43) DPL0 load(1, XDATA, add(CFA_XSP16, literal(-2)))
          CFI (cfiCond43) DPH0 load(1, XDATA, add(CFA_XSP16, literal(-1)))
          CFI (cfiCond43) CFA_SP SP+-4
          CFI (cfiCond43) CFA_XSP16 add(XSP16, 16)
          CFI Block cfiCond44 Using cfiCommon0
          CFI (cfiCond44) Function OLED_ShowCHinese
          CFI (cfiCond44) Conditional ??CrossCallReturnLabel_41, ??CrossCallReturnLabel_5
          CFI (cfiCond44) R6 load(1, XDATA, add(CFA_XSP16, literal(-14)))
          CFI (cfiCond44) VB load(1, XDATA, add(CFA_XSP16, literal(-13)))
          CFI (cfiCond44) V0 load(1, XDATA, add(CFA_XSP16, literal(-12)))
          CFI (cfiCond44) V1 load(1, XDATA, add(CFA_XSP16, literal(-11)))
          CFI (cfiCond44) V2 load(1, XDATA, add(CFA_XSP16, literal(-10)))
          CFI (cfiCond44) V3 load(1, XDATA, add(CFA_XSP16, literal(-9)))
          CFI (cfiCond44) V4 load(1, XDATA, add(CFA_XSP16, literal(-8)))
          CFI (cfiCond44) V5 load(1, XDATA, add(CFA_XSP16, literal(-7)))
          CFI (cfiCond44) R7 load(1, XDATA, add(CFA_XSP16, literal(-6)))
          CFI (cfiCond44) ?RET_LOW load(1, XDATA, add(CFA_XSP16, literal(-5)))
          CFI (cfiCond44) ?RET_HIGH load(1, XDATA, add(CFA_XSP16, literal(-4)))
          CFI (cfiCond44) ?BRET_EXT load(1, XDATA, add(CFA_XSP16, literal(-3)))
          CFI (cfiCond44) DPL0 load(1, XDATA, add(CFA_XSP16, literal(-2)))
          CFI (cfiCond44) DPH0 load(1, XDATA, add(CFA_XSP16, literal(-1)))
          CFI (cfiCond44) CFA_SP SP+-4
          CFI (cfiCond44) CFA_XSP16 add(XSP16, 14)
          CFI Block cfiCond45 Using cfiCommon0
          CFI (cfiCond45) Function OLED_ShowCHinese
          CFI (cfiCond45) Conditional ??CrossCallReturnLabel_41, ??CrossCallReturnLabel_6
          CFI (cfiCond45) R6 load(1, XDATA, add(CFA_XSP16, literal(-14)))
          CFI (cfiCond45) VB load(1, XDATA, add(CFA_XSP16, literal(-13)))
          CFI (cfiCond45) V0 load(1, XDATA, add(CFA_XSP16, literal(-12)))
          CFI (cfiCond45) V1 load(1, XDATA, add(CFA_XSP16, literal(-11)))
          CFI (cfiCond45) V2 load(1, XDATA, add(CFA_XSP16, literal(-10)))
          CFI (cfiCond45) V3 load(1, XDATA, add(CFA_XSP16, literal(-9)))
          CFI (cfiCond45) V4 load(1, XDATA, add(CFA_XSP16, literal(-8)))
          CFI (cfiCond45) V5 load(1, XDATA, add(CFA_XSP16, literal(-7)))
          CFI (cfiCond45) R7 load(1, XDATA, add(CFA_XSP16, literal(-6)))
          CFI (cfiCond45) ?RET_LOW load(1, XDATA, add(CFA_XSP16, literal(-5)))
          CFI (cfiCond45) ?RET_HIGH load(1, XDATA, add(CFA_XSP16, literal(-4)))
          CFI (cfiCond45) ?BRET_EXT load(1, XDATA, add(CFA_XSP16, literal(-3)))
          CFI (cfiCond45) DPL0 load(1, XDATA, add(CFA_XSP16, literal(-2)))
          CFI (cfiCond45) DPH0 load(1, XDATA, add(CFA_XSP16, literal(-1)))
          CFI (cfiCond45) CFA_SP SP+-4
          CFI (cfiCond45) CFA_XSP16 add(XSP16, 14)
          CFI Block cfiCond46 Using cfiCommon0
          CFI (cfiCond46) Function OLED_ShowChar
          CFI (cfiCond46) Conditional ??CrossCallReturnLabel_42, ??CrossCallReturnLabel_36
          CFI (cfiCond46) R6 load(1, XDATA, add(CFA_XSP16, literal(-16)))
          CFI (cfiCond46) VB load(1, XDATA, add(CFA_XSP16, literal(-15)))
          CFI (cfiCond46) V0 load(1, XDATA, add(CFA_XSP16, literal(-14)))
          CFI (cfiCond46) V1 load(1, XDATA, add(CFA_XSP16, literal(-13)))
          CFI (cfiCond46) V2 load(1, XDATA, add(CFA_XSP16, literal(-12)))
          CFI (cfiCond46) V3 load(1, XDATA, add(CFA_XSP16, literal(-11)))
          CFI (cfiCond46) V4 load(1, XDATA, add(CFA_XSP16, literal(-10)))
          CFI (cfiCond46) V5 load(1, XDATA, add(CFA_XSP16, literal(-9)))
          CFI (cfiCond46) V6 load(1, XDATA, add(CFA_XSP16, literal(-8)))
          CFI (cfiCond46) V7 load(1, XDATA, add(CFA_XSP16, literal(-7)))
          CFI (cfiCond46) R7 load(1, XDATA, add(CFA_XSP16, literal(-6)))
          CFI (cfiCond46) ?RET_LOW load(1, XDATA, add(CFA_XSP16, literal(-5)))
          CFI (cfiCond46) ?RET_HIGH load(1, XDATA, add(CFA_XSP16, literal(-4)))
          CFI (cfiCond46) ?BRET_EXT load(1, XDATA, add(CFA_XSP16, literal(-3)))
          CFI (cfiCond46) DPL0 load(1, XDATA, add(CFA_XSP16, literal(-2)))
          CFI (cfiCond46) DPH0 load(1, XDATA, add(CFA_XSP16, literal(-1)))
          CFI (cfiCond46) CFA_SP SP+-4
          CFI (cfiCond46) CFA_XSP16 add(XSP16, 16)
          CFI Block cfiCond47 Using cfiCommon0
          CFI (cfiCond47) Function OLED_DrawBMP
          CFI (cfiCond47) Conditional ??CrossCallReturnLabel_42, ??CrossCallReturnLabel_37
          CFI (cfiCond47) R6 load(1, XDATA, add(CFA_XSP16, literal(-16)))
          CFI (cfiCond47) VB load(1, XDATA, add(CFA_XSP16, literal(-15)))
          CFI (cfiCond47) V0 load(1, XDATA, add(CFA_XSP16, literal(-14)))
          CFI (cfiCond47) V1 load(1, XDATA, add(CFA_XSP16, literal(-13)))
          CFI (cfiCond47) V2 load(1, XDATA, add(CFA_XSP16, literal(-12)))
          CFI (cfiCond47) V3 load(1, XDATA, add(CFA_XSP16, literal(-11)))
          CFI (cfiCond47) V4 load(1, XDATA, add(CFA_XSP16, literal(-10)))
          CFI (cfiCond47) V5 load(1, XDATA, add(CFA_XSP16, literal(-9)))
          CFI (cfiCond47) V6 load(1, XDATA, add(CFA_XSP16, literal(-8)))
          CFI (cfiCond47) V7 load(1, XDATA, add(CFA_XSP16, literal(-7)))
          CFI (cfiCond47) R7 load(1, XDATA, add(CFA_XSP16, literal(-6)))
          CFI (cfiCond47) ?RET_LOW load(1, XDATA, add(CFA_XSP16, literal(-5)))
          CFI (cfiCond47) ?RET_HIGH load(1, XDATA, add(CFA_XSP16, literal(-4)))
          CFI (cfiCond47) ?BRET_EXT load(1, XDATA, add(CFA_XSP16, literal(-3)))
          CFI (cfiCond47) DPL0 load(1, XDATA, add(CFA_XSP16, literal(-2)))
          CFI (cfiCond47) DPH0 load(1, XDATA, add(CFA_XSP16, literal(-1)))
          CFI (cfiCond47) CFA_SP SP+-4
          CFI (cfiCond47) CFA_XSP16 add(XSP16, 16)
          CFI Block cfiPicker48 Using cfiCommon1
          CFI (cfiPicker48) NoFunction
          CFI (cfiPicker48) Picker
        MOV       DPH,A
        MOVX      A,@DPTR
        MOV       R2,A
        MOV       R3,#0x0
        LCALL     `??OLED_WR_Byte::?relay`; Banked call to: OLED_WR_Byte
        RET
          CFI EndBlock cfiCond42
          CFI EndBlock cfiCond43
          CFI EndBlock cfiCond44
          CFI EndBlock cfiCond45
          CFI EndBlock cfiCond46
          CFI EndBlock cfiCond47
          CFI EndBlock cfiPicker48
//  444 
//  445 //初始化SSD1306					    

        RSEG BANKED_CODE:HUGECODE:NOROOT(0)
//  446 void OLED_Init(void){ 	 
OLED_Init:
          CFI Block cfiBlock49 Using cfiCommon0
          CFI Function OLED_Init
        CODE
        FUNCALL OLED_Init, OLED_WR_Byte
        LOCFRAME ISTACK, 2, STACK
        LOCFRAME PSTACK, 0, STACK
        LOCFRAME XSTACK, 0, STACK
        LOCFRAME IOVERLAY, 0, STATIC
        LOCFRAME DOVERLAY, 0, STATIC
        ARGFRAME ISTACK, 2, STACK
        ARGFRAME PSTACK, 0, STACK
        ARGFRAME XSTACK, 0, STACK
        ARGFRAME IOVERLAY, 0, STATIC
        ARGFRAME DOVERLAY, 0, STATIC
        FUNCALL OLED_Init, OLED_WR_Byte
        LOCFRAME ISTACK, 2, STACK
        LOCFRAME PSTACK, 0, STACK
        LOCFRAME XSTACK, 0, STACK
        LOCFRAME IOVERLAY, 0, STATIC
        LOCFRAME DOVERLAY, 0, STATIC
        ARGFRAME ISTACK, 2, STACK
        ARGFRAME PSTACK, 0, STACK
        ARGFRAME XSTACK, 0, STACK
        ARGFRAME IOVERLAY, 0, STATIC
        ARGFRAME DOVERLAY, 0, STATIC
        FUNCALL OLED_Init, OLED_WR_Byte
        LOCFRAME ISTACK, 2, STACK
        LOCFRAME PSTACK, 0, STACK
        LOCFRAME XSTACK, 0, STACK
        LOCFRAME IOVERLAY, 0, STATIC
        LOCFRAME DOVERLAY, 0, STATIC
        ARGFRAME ISTACK, 2, STACK
        ARGFRAME PSTACK, 0, STACK
        ARGFRAME XSTACK, 0, STACK
        ARGFRAME IOVERLAY, 0, STATIC
        ARGFRAME DOVERLAY, 0, STATIC
        FUNCALL OLED_Init, OLED_WR_Byte
        LOCFRAME ISTACK, 2, STACK
        LOCFRAME PSTACK, 0, STACK
        LOCFRAME XSTACK, 0, STACK
        LOCFRAME IOVERLAY, 0, STATIC
        LOCFRAME DOVERLAY, 0, STATIC
        ARGFRAME ISTACK, 2, STACK
        ARGFRAME PSTACK, 0, STACK
        ARGFRAME XSTACK, 0, STACK
        ARGFRAME IOVERLAY, 0, STATIC
        ARGFRAME DOVERLAY, 0, STATIC
        FUNCALL OLED_Init, OLED_WR_Byte
        LOCFRAME ISTACK, 2, STACK
        LOCFRAME PSTACK, 0, STACK
        LOCFRAME XSTACK, 0, STACK
        LOCFRAME IOVERLAY, 0, STATIC
        LOCFRAME DOVERLAY, 0, STATIC
        ARGFRAME ISTACK, 2, STACK
        ARGFRAME PSTACK, 0, STACK
        ARGFRAME XSTACK, 0, STACK
        ARGFRAME IOVERLAY, 0, STATIC
        ARGFRAME DOVERLAY, 0, STATIC
        FUNCALL OLED_Init, OLED_WR_Byte
        LOCFRAME ISTACK, 2, STACK
        LOCFRAME PSTACK, 0, STACK
        LOCFRAME XSTACK, 0, STACK
        LOCFRAME IOVERLAY, 0, STATIC
        LOCFRAME DOVERLAY, 0, STATIC
        ARGFRAME ISTACK, 2, STACK
        ARGFRAME PSTACK, 0, STACK
        ARGFRAME XSTACK, 0, STACK
        ARGFRAME IOVERLAY, 0, STATIC
        ARGFRAME DOVERLAY, 0, STATIC
        FUNCALL OLED_Init, OLED_WR_Byte
        LOCFRAME ISTACK, 2, STACK
        LOCFRAME PSTACK, 0, STACK
        LOCFRAME XSTACK, 0, STACK
        LOCFRAME IOVERLAY, 0, STATIC
        LOCFRAME DOVERLAY, 0, STATIC
        ARGFRAME ISTACK, 2, STACK
        ARGFRAME PSTACK, 0, STACK
        ARGFRAME XSTACK, 0, STACK
        ARGFRAME IOVERLAY, 0, STATIC
        ARGFRAME DOVERLAY, 0, STATIC
        FUNCALL OLED_Init, OLED_WR_Byte
        LOCFRAME ISTACK, 2, STACK
        LOCFRAME PSTACK, 0, STACK
        LOCFRAME XSTACK, 0, STACK
        LOCFRAME IOVERLAY, 0, STATIC
        LOCFRAME DOVERLAY, 0, STATIC
        ARGFRAME ISTACK, 2, STACK
        ARGFRAME PSTACK, 0, STACK
        ARGFRAME XSTACK, 0, STACK
        ARGFRAME IOVERLAY, 0, STATIC
        ARGFRAME DOVERLAY, 0, STATIC
        FUNCALL OLED_Init, OLED_WR_Byte
        LOCFRAME ISTACK, 2, STACK
        LOCFRAME PSTACK, 0, STACK
        LOCFRAME XSTACK, 0, STACK
        LOCFRAME IOVERLAY, 0, STATIC
        LOCFRAME DOVERLAY, 0, STATIC
        ARGFRAME ISTACK, 2, STACK
        ARGFRAME PSTACK, 0, STACK
        ARGFRAME XSTACK, 0, STACK
        ARGFRAME IOVERLAY, 0, STATIC
        ARGFRAME DOVERLAY, 0, STATIC
        FUNCALL OLED_Init, OLED_WR_Byte
        LOCFRAME ISTACK, 2, STACK
        LOCFRAME PSTACK, 0, STACK
        LOCFRAME XSTACK, 0, STACK
        LOCFRAME IOVERLAY, 0, STATIC
        LOCFRAME DOVERLAY, 0, STATIC
        ARGFRAME ISTACK, 2, STACK
        ARGFRAME PSTACK, 0, STACK
        ARGFRAME XSTACK, 0, STACK
        ARGFRAME IOVERLAY, 0, STATIC
        ARGFRAME DOVERLAY, 0, STATIC
        FUNCALL OLED_Init, OLED_WR_Byte
        LOCFRAME ISTACK, 2, STACK
        LOCFRAME PSTACK, 0, STACK
        LOCFRAME XSTACK, 0, STACK
        LOCFRAME IOVERLAY, 0, STATIC
        LOCFRAME DOVERLAY, 0, STATIC
        ARGFRAME ISTACK, 2, STACK
        ARGFRAME PSTACK, 0, STACK
        ARGFRAME XSTACK, 0, STACK
        ARGFRAME IOVERLAY, 0, STATIC
        ARGFRAME DOVERLAY, 0, STATIC
        FUNCALL OLED_Init, OLED_WR_Byte
        LOCFRAME ISTACK, 2, STACK
        LOCFRAME PSTACK, 0, STACK
        LOCFRAME XSTACK, 0, STACK
        LOCFRAME IOVERLAY, 0, STATIC
        LOCFRAME DOVERLAY, 0, STATIC
        ARGFRAME ISTACK, 2, STACK
        ARGFRAME PSTACK, 0, STACK
        ARGFRAME XSTACK, 0, STACK
        ARGFRAME IOVERLAY, 0, STATIC
        ARGFRAME DOVERLAY, 0, STATIC
        FUNCALL OLED_Init, OLED_WR_Byte
        LOCFRAME ISTACK, 2, STACK
        LOCFRAME PSTACK, 0, STACK
        LOCFRAME XSTACK, 0, STACK
        LOCFRAME IOVERLAY, 0, STATIC
        LOCFRAME DOVERLAY, 0, STATIC
        ARGFRAME ISTACK, 2, STACK
        ARGFRAME PSTACK, 0, STACK
        ARGFRAME XSTACK, 0, STACK
        ARGFRAME IOVERLAY, 0, STATIC
        ARGFRAME DOVERLAY, 0, STATIC
        FUNCALL OLED_Init, OLED_WR_Byte
        LOCFRAME ISTACK, 2, STACK
        LOCFRAME PSTACK, 0, STACK
        LOCFRAME XSTACK, 0, STACK
        LOCFRAME IOVERLAY, 0, STATIC
        LOCFRAME DOVERLAY, 0, STATIC
        ARGFRAME ISTACK, 2, STACK
        ARGFRAME PSTACK, 0, STACK
        ARGFRAME XSTACK, 0, STACK
        ARGFRAME IOVERLAY, 0, STATIC
        ARGFRAME DOVERLAY, 0, STATIC
        FUNCALL OLED_Init, OLED_WR_Byte
        LOCFRAME ISTACK, 2, STACK
        LOCFRAME PSTACK, 0, STACK
        LOCFRAME XSTACK, 0, STACK
        LOCFRAME IOVERLAY, 0, STATIC
        LOCFRAME DOVERLAY, 0, STATIC
        ARGFRAME ISTACK, 2, STACK
        ARGFRAME PSTACK, 0, STACK
        ARGFRAME XSTACK, 0, STACK
        ARGFRAME IOVERLAY, 0, STATIC
        ARGFRAME DOVERLAY, 0, STATIC
        FUNCALL OLED_Init, OLED_WR_Byte
        LOCFRAME ISTACK, 2, STACK
        LOCFRAME PSTACK, 0, STACK
        LOCFRAME XSTACK, 0, STACK
        LOCFRAME IOVERLAY, 0, STATIC
        LOCFRAME DOVERLAY, 0, STATIC
        ARGFRAME ISTACK, 2, STACK
        ARGFRAME PSTACK, 0, STACK
        ARGFRAME XSTACK, 0, STACK
        ARGFRAME IOVERLAY, 0, STATIC
        ARGFRAME DOVERLAY, 0, STATIC
        FUNCALL OLED_Init, OLED_WR_Byte
        LOCFRAME ISTACK, 2, STACK
        LOCFRAME PSTACK, 0, STACK
        LOCFRAME XSTACK, 0, STACK
        LOCFRAME IOVERLAY, 0, STATIC
        LOCFRAME DOVERLAY, 0, STATIC
        ARGFRAME ISTACK, 2, STACK
        ARGFRAME PSTACK, 0, STACK
        ARGFRAME XSTACK, 0, STACK
        ARGFRAME IOVERLAY, 0, STATIC
        ARGFRAME DOVERLAY, 0, STATIC
        FUNCALL OLED_Init, OLED_WR_Byte
        LOCFRAME ISTACK, 2, STACK
        LOCFRAME PSTACK, 0, STACK
        LOCFRAME XSTACK, 0, STACK
        LOCFRAME IOVERLAY, 0, STATIC
        LOCFRAME DOVERLAY, 0, STATIC
        ARGFRAME ISTACK, 2, STACK
        ARGFRAME PSTACK, 0, STACK
        ARGFRAME XSTACK, 0, STACK
        ARGFRAME IOVERLAY, 0, STATIC
        ARGFRAME DOVERLAY, 0, STATIC
        FUNCALL OLED_Init, OLED_WR_Byte
        LOCFRAME ISTACK, 2, STACK
        LOCFRAME PSTACK, 0, STACK
        LOCFRAME XSTACK, 0, STACK
        LOCFRAME IOVERLAY, 0, STATIC
        LOCFRAME DOVERLAY, 0, STATIC
        ARGFRAME ISTACK, 2, STACK
        ARGFRAME PSTACK, 0, STACK
        ARGFRAME XSTACK, 0, STACK
        ARGFRAME IOVERLAY, 0, STATIC
        ARGFRAME DOVERLAY, 0, STATIC
        FUNCALL OLED_Init, OLED_WR_Byte
        LOCFRAME ISTACK, 2, STACK
        LOCFRAME PSTACK, 0, STACK
        LOCFRAME XSTACK, 0, STACK
        LOCFRAME IOVERLAY, 0, STATIC
        LOCFRAME DOVERLAY, 0, STATIC
        ARGFRAME ISTACK, 2, STACK
        ARGFRAME PSTACK, 0, STACK
        ARGFRAME XSTACK, 0, STACK
        ARGFRAME IOVERLAY, 0, STATIC
        ARGFRAME DOVERLAY, 0, STATIC
        FUNCALL OLED_Init, OLED_WR_Byte
        LOCFRAME ISTACK, 2, STACK
        LOCFRAME PSTACK, 0, STACK
        LOCFRAME XSTACK, 0, STACK
        LOCFRAME IOVERLAY, 0, STATIC
        LOCFRAME DOVERLAY, 0, STATIC
        ARGFRAME ISTACK, 2, STACK
        ARGFRAME PSTACK, 0, STACK
        ARGFRAME XSTACK, 0, STACK
        ARGFRAME IOVERLAY, 0, STATIC
        ARGFRAME DOVERLAY, 0, STATIC
        FUNCALL OLED_Init, OLED_WR_Byte
        LOCFRAME ISTACK, 2, STACK
        LOCFRAME PSTACK, 0, STACK
        LOCFRAME XSTACK, 0, STACK
        LOCFRAME IOVERLAY, 0, STATIC
        LOCFRAME DOVERLAY, 0, STATIC
        ARGFRAME ISTACK, 2, STACK
        ARGFRAME PSTACK, 0, STACK
        ARGFRAME XSTACK, 0, STACK
        ARGFRAME IOVERLAY, 0, STATIC
        ARGFRAME DOVERLAY, 0, STATIC
        FUNCALL OLED_Init, OLED_WR_Byte
        LOCFRAME ISTACK, 2, STACK
        LOCFRAME PSTACK, 0, STACK
        LOCFRAME XSTACK, 0, STACK
        LOCFRAME IOVERLAY, 0, STATIC
        LOCFRAME DOVERLAY, 0, STATIC
        ARGFRAME ISTACK, 2, STACK
        ARGFRAME PSTACK, 0, STACK
        ARGFRAME XSTACK, 0, STACK
        ARGFRAME IOVERLAY, 0, STATIC
        ARGFRAME DOVERLAY, 0, STATIC
        FUNCALL OLED_Init, OLED_WR_Byte
        LOCFRAME ISTACK, 2, STACK
        LOCFRAME PSTACK, 0, STACK
        LOCFRAME XSTACK, 0, STACK
        LOCFRAME IOVERLAY, 0, STATIC
        LOCFRAME DOVERLAY, 0, STATIC
        ARGFRAME ISTACK, 2, STACK
        ARGFRAME PSTACK, 0, STACK
        ARGFRAME XSTACK, 0, STACK
        ARGFRAME IOVERLAY, 0, STATIC
        ARGFRAME DOVERLAY, 0, STATIC
        FUNCALL OLED_Init, OLED_WR_Byte
        LOCFRAME ISTACK, 2, STACK
        LOCFRAME PSTACK, 0, STACK
        LOCFRAME XSTACK, 0, STACK
        LOCFRAME IOVERLAY, 0, STATIC
        LOCFRAME DOVERLAY, 0, STATIC
        ARGFRAME ISTACK, 2, STACK
        ARGFRAME PSTACK, 0, STACK
        ARGFRAME XSTACK, 0, STACK
        ARGFRAME IOVERLAY, 0, STATIC
        ARGFRAME DOVERLAY, 0, STATIC
        FUNCALL OLED_Init, OLED_WR_Byte
        LOCFRAME ISTACK, 2, STACK
        LOCFRAME PSTACK, 0, STACK
        LOCFRAME XSTACK, 0, STACK
        LOCFRAME IOVERLAY, 0, STATIC
        LOCFRAME DOVERLAY, 0, STATIC
        ARGFRAME ISTACK, 2, STACK
        ARGFRAME PSTACK, 0, STACK
        ARGFRAME XSTACK, 0, STACK
        ARGFRAME IOVERLAY, 0, STATIC
        ARGFRAME DOVERLAY, 0, STATIC
        FUNCALL OLED_Init, OLED_WR_Byte
        LOCFRAME ISTACK, 2, STACK
        LOCFRAME PSTACK, 0, STACK
        LOCFRAME XSTACK, 0, STACK
        LOCFRAME IOVERLAY, 0, STATIC
        LOCFRAME DOVERLAY, 0, STATIC
        ARGFRAME ISTACK, 2, STACK
        ARGFRAME PSTACK, 0, STACK
        ARGFRAME XSTACK, 0, STACK
        ARGFRAME IOVERLAY, 0, STATIC
        ARGFRAME DOVERLAY, 0, STATIC
        PUSH      DPL
          CFI DPL0 Frame(CFA_SP, 4)
          CFI CFA_SP SP+-4
        PUSH      DPH
          CFI DPH0 Frame(CFA_SP, 5)
          CFI CFA_SP SP+-5
        ; Saved register size: 2
        ; Auto size: 0
//  447     OLED_WR_Byte(0xAE,OLED_CMD);//--display off
        ; Setup parameters for call to function OLED_WR_Byte
        MOV       R4,#0x0
        MOV       R5,#0x0
        MOV       R2,#-0x52
        LCALL     ?Subroutine7 & 0xFFFF
//  448     OLED_WR_Byte(0x00,OLED_CMD);//---set low column address
??CrossCallReturnLabel_9:
        LCALL     ?Subroutine4 & 0xFFFF
//  449     OLED_WR_Byte(0x10,OLED_CMD);//---set high column address
//  450     OLED_WR_Byte(0x40,OLED_CMD);//--set start line address  
??CrossCallReturnLabel_4:
        MOV       R2,#0x40
        LCALL     ?Subroutine9 & 0xFFFF
//  451     OLED_WR_Byte(0xB0,OLED_CMD);//--set page address
??CrossCallReturnLabel_15:
        MOV       R2,#-0x50
        LCALL     ?Subroutine9 & 0xFFFF
//  452     OLED_WR_Byte(0x81,OLED_CMD); // contract control
??CrossCallReturnLabel_16:
        MOV       R2,#-0x7f
        LCALL     ?Subroutine9 & 0xFFFF
//  453     OLED_WR_Byte(0xFF,OLED_CMD);//--128   
??CrossCallReturnLabel_17:
        MOV       R2,#-0x1
        LCALL     ?Subroutine9 & 0xFFFF
//  454     OLED_WR_Byte(0xA1,OLED_CMD);//set segment remap 
??CrossCallReturnLabel_18:
        MOV       R2,#-0x5f
        LCALL     ?Subroutine9 & 0xFFFF
//  455     OLED_WR_Byte(0xA6,OLED_CMD);//--normal / reverse
??CrossCallReturnLabel_19:
        MOV       R2,#-0x5a
        LCALL     ?Subroutine9 & 0xFFFF
//  456     OLED_WR_Byte(0xA8,OLED_CMD);//--set multiplex ratio(1 to 64)
??CrossCallReturnLabel_20:
        MOV       R2,#-0x58
        LCALL     ?Subroutine9 & 0xFFFF
//  457     OLED_WR_Byte(0x3F,OLED_CMD);//--1/32 duty
??CrossCallReturnLabel_21:
        MOV       R2,#0x3f
        LCALL     ?Subroutine9 & 0xFFFF
//  458     OLED_WR_Byte(0xC8,OLED_CMD);//Com scan direction
??CrossCallReturnLabel_22:
        MOV       R2,#-0x38
        LCALL     ?Subroutine9 & 0xFFFF
//  459     OLED_WR_Byte(0xD3,OLED_CMD);//-set display offset
??CrossCallReturnLabel_23:
        MOV       R2,#-0x2d
        LCALL     ?Subroutine7 & 0xFFFF
//  460     OLED_WR_Byte(0x00,OLED_CMD);//
??CrossCallReturnLabel_10:
        LCALL     ?Subroutine9 & 0xFFFF
//  461 
//  462     OLED_WR_Byte(0xD5,OLED_CMD);//set osc division
??CrossCallReturnLabel_24:
        MOV       R2,#-0x2b
        LCALL     ?Subroutine9 & 0xFFFF
//  463     OLED_WR_Byte(0x80,OLED_CMD);//
??CrossCallReturnLabel_25:
        MOV       R2,#-0x80
        LCALL     ?Subroutine9 & 0xFFFF
//  464 
//  465     OLED_WR_Byte(0xD8,OLED_CMD);//set area color mode off
??CrossCallReturnLabel_26:
        MOV       R2,#-0x28
        LCALL     ?Subroutine9 & 0xFFFF
//  466     OLED_WR_Byte(0x05,OLED_CMD);//
??CrossCallReturnLabel_27:
        MOV       R2,#0x5
        LCALL     ?Subroutine9 & 0xFFFF
//  467 
//  468     OLED_WR_Byte(0xD9,OLED_CMD);//Set Pre-Charge Period
??CrossCallReturnLabel_28:
        MOV       R2,#-0x27
        LCALL     ?Subroutine9 & 0xFFFF
//  469     OLED_WR_Byte(0xF1,OLED_CMD);//
??CrossCallReturnLabel_29:
        MOV       R2,#-0xf
        LCALL     ?Subroutine9 & 0xFFFF
//  470 
//  471     OLED_WR_Byte(0xDA,OLED_CMD);//set com pin configuartion
??CrossCallReturnLabel_30:
        MOV       R2,#-0x26
        LCALL     ?Subroutine9 & 0xFFFF
//  472     OLED_WR_Byte(0x12,OLED_CMD);//
??CrossCallReturnLabel_31:
        MOV       R2,#0x12
        LCALL     ?Subroutine9 & 0xFFFF
//  473 
//  474     OLED_WR_Byte(0xDB,OLED_CMD);//set Vcomh
??CrossCallReturnLabel_32:
        MOV       R2,#-0x25
        LCALL     ?Subroutine9 & 0xFFFF
//  475     OLED_WR_Byte(0x30,OLED_CMD);//
??CrossCallReturnLabel_33:
        MOV       R2,#0x30
        MOV       R3,#0x0
        LCALL     `??OLED_WR_Byte::?relay`; Banked call to: OLED_WR_Byte
//  476 
//  477     OLED_WR_Byte(0x8D,OLED_CMD);//set charge pump enable
        ; Setup parameters for call to function OLED_WR_Byte
        LJMP      ?Subroutine1 & 0xFFFF
//  478     OLED_WR_Byte(0x14,OLED_CMD);//
//  479 
//  480     OLED_WR_Byte(0xAF,OLED_CMD);//--turn on oled panel
//  481 }  
          CFI EndBlock cfiBlock49

        RSEG BANKED_CODE:HUGECODE:NOROOT(0)
?Subroutine9:
          CFI Block cfiCond50 Using cfiCommon0
          CFI Function OLED_Display_On
          CFI Conditional ??CrossCallReturnLabel_13
          CFI DPL0 Frame(CFA_SP, 4)
          CFI DPH0 Frame(CFA_SP, 5)
          CFI CFA_SP SP+-7
          CFI Block cfiCond51 Using cfiCommon0
          CFI (cfiCond51) Function OLED_Init
          CFI (cfiCond51) Conditional ??CrossCallReturnLabel_13
          CFI (cfiCond51) DPL0 Frame(CFA_SP, 4)
          CFI (cfiCond51) DPH0 Frame(CFA_SP, 5)
          CFI (cfiCond51) CFA_SP SP+-7
          CFI Block cfiCond52 Using cfiCommon0
          CFI (cfiCond52) Function OLED_Display_On
          CFI (cfiCond52) Conditional ??CrossCallReturnLabel_14
          CFI (cfiCond52) DPL0 Frame(CFA_SP, 4)
          CFI (cfiCond52) DPH0 Frame(CFA_SP, 5)
          CFI (cfiCond52) CFA_SP SP+-7
          CFI Block cfiCond53 Using cfiCommon0
          CFI (cfiCond53) Function OLED_Init
          CFI (cfiCond53) Conditional ??CrossCallReturnLabel_14
          CFI (cfiCond53) DPL0 Frame(CFA_SP, 4)
          CFI (cfiCond53) DPH0 Frame(CFA_SP, 5)
          CFI (cfiCond53) CFA_SP SP+-7
          CFI Block cfiCond54 Using cfiCommon0
          CFI (cfiCond54) Function OLED_Init
          CFI (cfiCond54) Conditional ??CrossCallReturnLabel_15
          CFI (cfiCond54) DPL0 Frame(CFA_SP, 4)
          CFI (cfiCond54) DPH0 Frame(CFA_SP, 5)
          CFI (cfiCond54) CFA_SP SP+-7
          CFI Block cfiCond55 Using cfiCommon0
          CFI (cfiCond55) Function OLED_Init
          CFI (cfiCond55) Conditional ??CrossCallReturnLabel_16
          CFI (cfiCond55) DPL0 Frame(CFA_SP, 4)
          CFI (cfiCond55) DPH0 Frame(CFA_SP, 5)
          CFI (cfiCond55) CFA_SP SP+-7
          CFI Block cfiCond56 Using cfiCommon0
          CFI (cfiCond56) Function OLED_Init
          CFI (cfiCond56) Conditional ??CrossCallReturnLabel_17
          CFI (cfiCond56) DPL0 Frame(CFA_SP, 4)
          CFI (cfiCond56) DPH0 Frame(CFA_SP, 5)
          CFI (cfiCond56) CFA_SP SP+-7
          CFI Block cfiCond57 Using cfiCommon0
          CFI (cfiCond57) Function OLED_Init
          CFI (cfiCond57) Conditional ??CrossCallReturnLabel_18
          CFI (cfiCond57) DPL0 Frame(CFA_SP, 4)
          CFI (cfiCond57) DPH0 Frame(CFA_SP, 5)
          CFI (cfiCond57) CFA_SP SP+-7
          CFI Block cfiCond58 Using cfiCommon0
          CFI (cfiCond58) Function OLED_Init
          CFI (cfiCond58) Conditional ??CrossCallReturnLabel_19
          CFI (cfiCond58) DPL0 Frame(CFA_SP, 4)
          CFI (cfiCond58) DPH0 Frame(CFA_SP, 5)
          CFI (cfiCond58) CFA_SP SP+-7
          CFI Block cfiCond59 Using cfiCommon0
          CFI (cfiCond59) Function OLED_Init
          CFI (cfiCond59) Conditional ??CrossCallReturnLabel_20
          CFI (cfiCond59) DPL0 Frame(CFA_SP, 4)
          CFI (cfiCond59) DPH0 Frame(CFA_SP, 5)
          CFI (cfiCond59) CFA_SP SP+-7
          CFI Block cfiCond60 Using cfiCommon0
          CFI (cfiCond60) Function OLED_Init
          CFI (cfiCond60) Conditional ??CrossCallReturnLabel_21
          CFI (cfiCond60) DPL0 Frame(CFA_SP, 4)
          CFI (cfiCond60) DPH0 Frame(CFA_SP, 5)
          CFI (cfiCond60) CFA_SP SP+-7
          CFI Block cfiCond61 Using cfiCommon0
          CFI (cfiCond61) Function OLED_Init
          CFI (cfiCond61) Conditional ??CrossCallReturnLabel_22
          CFI (cfiCond61) DPL0 Frame(CFA_SP, 4)
          CFI (cfiCond61) DPH0 Frame(CFA_SP, 5)
          CFI (cfiCond61) CFA_SP SP+-7
          CFI Block cfiCond62 Using cfiCommon0
          CFI (cfiCond62) Function OLED_Init
          CFI (cfiCond62) Conditional ??CrossCallReturnLabel_23
          CFI (cfiCond62) DPL0 Frame(CFA_SP, 4)
          CFI (cfiCond62) DPH0 Frame(CFA_SP, 5)
          CFI (cfiCond62) CFA_SP SP+-7
          CFI Block cfiCond63 Using cfiCommon0
          CFI (cfiCond63) Function OLED_Init
          CFI (cfiCond63) Conditional ??CrossCallReturnLabel_24
          CFI (cfiCond63) DPL0 Frame(CFA_SP, 4)
          CFI (cfiCond63) DPH0 Frame(CFA_SP, 5)
          CFI (cfiCond63) CFA_SP SP+-7
          CFI Block cfiCond64 Using cfiCommon0
          CFI (cfiCond64) Function OLED_Init
          CFI (cfiCond64) Conditional ??CrossCallReturnLabel_25
          CFI (cfiCond64) DPL0 Frame(CFA_SP, 4)
          CFI (cfiCond64) DPH0 Frame(CFA_SP, 5)
          CFI (cfiCond64) CFA_SP SP+-7
          CFI Block cfiCond65 Using cfiCommon0
          CFI (cfiCond65) Function OLED_Init
          CFI (cfiCond65) Conditional ??CrossCallReturnLabel_26
          CFI (cfiCond65) DPL0 Frame(CFA_SP, 4)
          CFI (cfiCond65) DPH0 Frame(CFA_SP, 5)
          CFI (cfiCond65) CFA_SP SP+-7
          CFI Block cfiCond66 Using cfiCommon0
          CFI (cfiCond66) Function OLED_Init
          CFI (cfiCond66) Conditional ??CrossCallReturnLabel_27
          CFI (cfiCond66) DPL0 Frame(CFA_SP, 4)
          CFI (cfiCond66) DPH0 Frame(CFA_SP, 5)
          CFI (cfiCond66) CFA_SP SP+-7
          CFI Block cfiCond67 Using cfiCommon0
          CFI (cfiCond67) Function OLED_Init
          CFI (cfiCond67) Conditional ??CrossCallReturnLabel_28
          CFI (cfiCond67) DPL0 Frame(CFA_SP, 4)
          CFI (cfiCond67) DPH0 Frame(CFA_SP, 5)
          CFI (cfiCond67) CFA_SP SP+-7
          CFI Block cfiCond68 Using cfiCommon0
          CFI (cfiCond68) Function OLED_Init
          CFI (cfiCond68) Conditional ??CrossCallReturnLabel_29
          CFI (cfiCond68) DPL0 Frame(CFA_SP, 4)
          CFI (cfiCond68) DPH0 Frame(CFA_SP, 5)
          CFI (cfiCond68) CFA_SP SP+-7
          CFI Block cfiCond69 Using cfiCommon0
          CFI (cfiCond69) Function OLED_Init
          CFI (cfiCond69) Conditional ??CrossCallReturnLabel_30
          CFI (cfiCond69) DPL0 Frame(CFA_SP, 4)
          CFI (cfiCond69) DPH0 Frame(CFA_SP, 5)
          CFI (cfiCond69) CFA_SP SP+-7
          CFI Block cfiCond70 Using cfiCommon0
          CFI (cfiCond70) Function OLED_Init
          CFI (cfiCond70) Conditional ??CrossCallReturnLabel_31
          CFI (cfiCond70) DPL0 Frame(CFA_SP, 4)
          CFI (cfiCond70) DPH0 Frame(CFA_SP, 5)
          CFI (cfiCond70) CFA_SP SP+-7
          CFI Block cfiCond71 Using cfiCommon0
          CFI (cfiCond71) Function OLED_Init
          CFI (cfiCond71) Conditional ??CrossCallReturnLabel_32
          CFI (cfiCond71) DPL0 Frame(CFA_SP, 4)
          CFI (cfiCond71) DPH0 Frame(CFA_SP, 5)
          CFI (cfiCond71) CFA_SP SP+-7
          CFI Block cfiCond72 Using cfiCommon0
          CFI (cfiCond72) Function OLED_Init
          CFI (cfiCond72) Conditional ??CrossCallReturnLabel_33
          CFI (cfiCond72) DPL0 Frame(CFA_SP, 4)
          CFI (cfiCond72) DPH0 Frame(CFA_SP, 5)
          CFI (cfiCond72) CFA_SP SP+-7
          CFI Block cfiPicker73 Using cfiCommon1
          CFI (cfiPicker73) NoFunction
          CFI (cfiPicker73) Picker
        LCALL     ?Subroutine15 & 0xFFFF
??CrossCallReturnLabel_45:
        RET
          CFI EndBlock cfiCond50
          CFI EndBlock cfiCond51
          CFI EndBlock cfiCond52
          CFI EndBlock cfiCond53
          CFI EndBlock cfiCond54
          CFI EndBlock cfiCond55
          CFI EndBlock cfiCond56
          CFI EndBlock cfiCond57
          CFI EndBlock cfiCond58
          CFI EndBlock cfiCond59
          CFI EndBlock cfiCond60
          CFI EndBlock cfiCond61
          CFI EndBlock cfiCond62
          CFI EndBlock cfiCond63
          CFI EndBlock cfiCond64
          CFI EndBlock cfiCond65
          CFI EndBlock cfiCond66
          CFI EndBlock cfiCond67
          CFI EndBlock cfiCond68
          CFI EndBlock cfiCond69
          CFI EndBlock cfiCond70
          CFI EndBlock cfiCond71
          CFI EndBlock cfiCond72
          CFI EndBlock cfiPicker73

        RSEG BANKED_CODE:HUGECODE:NOROOT(0)
?Subroutine15:
          CFI Block cfiCond74 Using cfiCommon0
          CFI Function OLED_Display_On
          CFI Conditional ??CrossCallReturnLabel_45, ??CrossCallReturnLabel_13
          CFI DPL0 Frame(CFA_SP, 4)
          CFI DPH0 Frame(CFA_SP, 5)
          CFI CFA_SP SP+-9
          CFI Block cfiCond75 Using cfiCommon0
          CFI (cfiCond75) Function OLED_Init
          CFI (cfiCond75) Conditional ??CrossCallReturnLabel_45, ??CrossCallReturnLabel_13
          CFI (cfiCond75) DPL0 Frame(CFA_SP, 4)
          CFI (cfiCond75) DPH0 Frame(CFA_SP, 5)
          CFI (cfiCond75) CFA_SP SP+-9
          CFI Block cfiCond76 Using cfiCommon0
          CFI (cfiCond76) Function OLED_Display_On
          CFI (cfiCond76) Conditional ??CrossCallReturnLabel_45, ??CrossCallReturnLabel_14
          CFI (cfiCond76) DPL0 Frame(CFA_SP, 4)
          CFI (cfiCond76) DPH0 Frame(CFA_SP, 5)
          CFI (cfiCond76) CFA_SP SP+-9
          CFI Block cfiCond77 Using cfiCommon0
          CFI (cfiCond77) Function OLED_Init
          CFI (cfiCond77) Conditional ??CrossCallReturnLabel_45, ??CrossCallReturnLabel_14
          CFI (cfiCond77) DPL0 Frame(CFA_SP, 4)
          CFI (cfiCond77) DPH0 Frame(CFA_SP, 5)
          CFI (cfiCond77) CFA_SP SP+-9
          CFI Block cfiCond78 Using cfiCommon0
          CFI (cfiCond78) Function OLED_Init
          CFI (cfiCond78) Conditional ??CrossCallReturnLabel_45, ??CrossCallReturnLabel_15
          CFI (cfiCond78) DPL0 Frame(CFA_SP, 4)
          CFI (cfiCond78) DPH0 Frame(CFA_SP, 5)
          CFI (cfiCond78) CFA_SP SP+-9
          CFI Block cfiCond79 Using cfiCommon0
          CFI (cfiCond79) Function OLED_Init
          CFI (cfiCond79) Conditional ??CrossCallReturnLabel_45, ??CrossCallReturnLabel_16
          CFI (cfiCond79) DPL0 Frame(CFA_SP, 4)
          CFI (cfiCond79) DPH0 Frame(CFA_SP, 5)
          CFI (cfiCond79) CFA_SP SP+-9
          CFI Block cfiCond80 Using cfiCommon0
          CFI (cfiCond80) Function OLED_Init
          CFI (cfiCond80) Conditional ??CrossCallReturnLabel_45, ??CrossCallReturnLabel_17
          CFI (cfiCond80) DPL0 Frame(CFA_SP, 4)
          CFI (cfiCond80) DPH0 Frame(CFA_SP, 5)
          CFI (cfiCond80) CFA_SP SP+-9
          CFI Block cfiCond81 Using cfiCommon0
          CFI (cfiCond81) Function OLED_Init
          CFI (cfiCond81) Conditional ??CrossCallReturnLabel_45, ??CrossCallReturnLabel_18
          CFI (cfiCond81) DPL0 Frame(CFA_SP, 4)
          CFI (cfiCond81) DPH0 Frame(CFA_SP, 5)
          CFI (cfiCond81) CFA_SP SP+-9
          CFI Block cfiCond82 Using cfiCommon0
          CFI (cfiCond82) Function OLED_Init
          CFI (cfiCond82) Conditional ??CrossCallReturnLabel_45, ??CrossCallReturnLabel_19
          CFI (cfiCond82) DPL0 Frame(CFA_SP, 4)
          CFI (cfiCond82) DPH0 Frame(CFA_SP, 5)
          CFI (cfiCond82) CFA_SP SP+-9
          CFI Block cfiCond83 Using cfiCommon0
          CFI (cfiCond83) Function OLED_Init
          CFI (cfiCond83) Conditional ??CrossCallReturnLabel_45, ??CrossCallReturnLabel_20
          CFI (cfiCond83) DPL0 Frame(CFA_SP, 4)
          CFI (cfiCond83) DPH0 Frame(CFA_SP, 5)
          CFI (cfiCond83) CFA_SP SP+-9
          CFI Block cfiCond84 Using cfiCommon0
          CFI (cfiCond84) Function OLED_Init
          CFI (cfiCond84) Conditional ??CrossCallReturnLabel_45, ??CrossCallReturnLabel_21
          CFI (cfiCond84) DPL0 Frame(CFA_SP, 4)
          CFI (cfiCond84) DPH0 Frame(CFA_SP, 5)
          CFI (cfiCond84) CFA_SP SP+-9
          CFI Block cfiCond85 Using cfiCommon0
          CFI (cfiCond85) Function OLED_Init
          CFI (cfiCond85) Conditional ??CrossCallReturnLabel_45, ??CrossCallReturnLabel_22
          CFI (cfiCond85) DPL0 Frame(CFA_SP, 4)
          CFI (cfiCond85) DPH0 Frame(CFA_SP, 5)
          CFI (cfiCond85) CFA_SP SP+-9
          CFI Block cfiCond86 Using cfiCommon0
          CFI (cfiCond86) Function OLED_Init
          CFI (cfiCond86) Conditional ??CrossCallReturnLabel_45, ??CrossCallReturnLabel_23
          CFI (cfiCond86) DPL0 Frame(CFA_SP, 4)
          CFI (cfiCond86) DPH0 Frame(CFA_SP, 5)
          CFI (cfiCond86) CFA_SP SP+-9
          CFI Block cfiCond87 Using cfiCommon0
          CFI (cfiCond87) Function OLED_Init
          CFI (cfiCond87) Conditional ??CrossCallReturnLabel_45, ??CrossCallReturnLabel_24
          CFI (cfiCond87) DPL0 Frame(CFA_SP, 4)
          CFI (cfiCond87) DPH0 Frame(CFA_SP, 5)
          CFI (cfiCond87) CFA_SP SP+-9
          CFI Block cfiCond88 Using cfiCommon0
          CFI (cfiCond88) Function OLED_Init
          CFI (cfiCond88) Conditional ??CrossCallReturnLabel_45, ??CrossCallReturnLabel_25
          CFI (cfiCond88) DPL0 Frame(CFA_SP, 4)
          CFI (cfiCond88) DPH0 Frame(CFA_SP, 5)
          CFI (cfiCond88) CFA_SP SP+-9
          CFI Block cfiCond89 Using cfiCommon0
          CFI (cfiCond89) Function OLED_Init
          CFI (cfiCond89) Conditional ??CrossCallReturnLabel_45, ??CrossCallReturnLabel_26
          CFI (cfiCond89) DPL0 Frame(CFA_SP, 4)
          CFI (cfiCond89) DPH0 Frame(CFA_SP, 5)
          CFI (cfiCond89) CFA_SP SP+-9
          CFI Block cfiCond90 Using cfiCommon0
          CFI (cfiCond90) Function OLED_Init
          CFI (cfiCond90) Conditional ??CrossCallReturnLabel_45, ??CrossCallReturnLabel_27
          CFI (cfiCond90) DPL0 Frame(CFA_SP, 4)
          CFI (cfiCond90) DPH0 Frame(CFA_SP, 5)
          CFI (cfiCond90) CFA_SP SP+-9
          CFI Block cfiCond91 Using cfiCommon0
          CFI (cfiCond91) Function OLED_Init
          CFI (cfiCond91) Conditional ??CrossCallReturnLabel_45, ??CrossCallReturnLabel_28
          CFI (cfiCond91) DPL0 Frame(CFA_SP, 4)
          CFI (cfiCond91) DPH0 Frame(CFA_SP, 5)
          CFI (cfiCond91) CFA_SP SP+-9
          CFI Block cfiCond92 Using cfiCommon0
          CFI (cfiCond92) Function OLED_Init
          CFI (cfiCond92) Conditional ??CrossCallReturnLabel_45, ??CrossCallReturnLabel_29
          CFI (cfiCond92) DPL0 Frame(CFA_SP, 4)
          CFI (cfiCond92) DPH0 Frame(CFA_SP, 5)
          CFI (cfiCond92) CFA_SP SP+-9
          CFI Block cfiCond93 Using cfiCommon0
          CFI (cfiCond93) Function OLED_Init
          CFI (cfiCond93) Conditional ??CrossCallReturnLabel_45, ??CrossCallReturnLabel_30
          CFI (cfiCond93) DPL0 Frame(CFA_SP, 4)
          CFI (cfiCond93) DPH0 Frame(CFA_SP, 5)
          CFI (cfiCond93) CFA_SP SP+-9
          CFI Block cfiCond94 Using cfiCommon0
          CFI (cfiCond94) Function OLED_Init
          CFI (cfiCond94) Conditional ??CrossCallReturnLabel_45, ??CrossCallReturnLabel_31
          CFI (cfiCond94) DPL0 Frame(CFA_SP, 4)
          CFI (cfiCond94) DPH0 Frame(CFA_SP, 5)
          CFI (cfiCond94) CFA_SP SP+-9
          CFI Block cfiCond95 Using cfiCommon0
          CFI (cfiCond95) Function OLED_Init
          CFI (cfiCond95) Conditional ??CrossCallReturnLabel_45, ??CrossCallReturnLabel_32
          CFI (cfiCond95) DPL0 Frame(CFA_SP, 4)
          CFI (cfiCond95) DPH0 Frame(CFA_SP, 5)
          CFI (cfiCond95) CFA_SP SP+-9
          CFI Block cfiCond96 Using cfiCommon0
          CFI (cfiCond96) Function OLED_Init
          CFI (cfiCond96) Conditional ??CrossCallReturnLabel_45, ??CrossCallReturnLabel_33
          CFI (cfiCond96) DPL0 Frame(CFA_SP, 4)
          CFI (cfiCond96) DPH0 Frame(CFA_SP, 5)
          CFI (cfiCond96) CFA_SP SP+-9
          CFI Block cfiCond97 Using cfiCommon0
          CFI (cfiCond97) Function fill_picture
          CFI (cfiCond97) Conditional ??CrossCallReturnLabel_46, ??CrossCallReturnLabel_38, ??CrossCallReturnLabel_0
          CFI (cfiCond97) R6 load(1, XDATA, add(CFA_XSP16, literal(-9)))
          CFI (cfiCond97) VB load(1, XDATA, add(CFA_XSP16, literal(-8)))
          CFI (cfiCond97) V0 load(1, XDATA, add(CFA_XSP16, literal(-7)))
          CFI (cfiCond97) R7 load(1, XDATA, add(CFA_XSP16, literal(-6)))
          CFI (cfiCond97) ?RET_LOW load(1, XDATA, add(CFA_XSP16, literal(-5)))
          CFI (cfiCond97) ?RET_HIGH load(1, XDATA, add(CFA_XSP16, literal(-4)))
          CFI (cfiCond97) ?BRET_EXT load(1, XDATA, add(CFA_XSP16, literal(-3)))
          CFI (cfiCond97) DPL0 load(1, XDATA, add(CFA_XSP16, literal(-2)))
          CFI (cfiCond97) DPH0 load(1, XDATA, add(CFA_XSP16, literal(-1)))
          CFI (cfiCond97) CFA_SP SP+-6
          CFI (cfiCond97) CFA_XSP16 add(XSP16, 9)
          CFI Block cfiCond98 Using cfiCommon0
          CFI (cfiCond98) Function OLED_Clear
          CFI (cfiCond98) Conditional ??CrossCallReturnLabel_46, ??CrossCallReturnLabel_38, ??CrossCallReturnLabel_1
          CFI (cfiCond98) R6 load(1, XDATA, add(CFA_XSP16, literal(-9)))
          CFI (cfiCond98) VB load(1, XDATA, add(CFA_XSP16, literal(-8)))
          CFI (cfiCond98) V0 load(1, XDATA, add(CFA_XSP16, literal(-7)))
          CFI (cfiCond98) R7 load(1, XDATA, add(CFA_XSP16, literal(-6)))
          CFI (cfiCond98) ?RET_LOW load(1, XDATA, add(CFA_XSP16, literal(-5)))
          CFI (cfiCond98) ?RET_HIGH load(1, XDATA, add(CFA_XSP16, literal(-4)))
          CFI (cfiCond98) ?BRET_EXT load(1, XDATA, add(CFA_XSP16, literal(-3)))
          CFI (cfiCond98) DPL0 load(1, XDATA, add(CFA_XSP16, literal(-2)))
          CFI (cfiCond98) DPH0 load(1, XDATA, add(CFA_XSP16, literal(-1)))
          CFI (cfiCond98) CFA_SP SP+-6
          CFI (cfiCond98) CFA_XSP16 add(XSP16, 9)
          CFI Block cfiCond99 Using cfiCommon0
          CFI (cfiCond99) Function OLED_On
          CFI (cfiCond99) Conditional ??CrossCallReturnLabel_46, ??CrossCallReturnLabel_38, ??CrossCallReturnLabel_2
          CFI (cfiCond99) R6 load(1, XDATA, add(CFA_XSP16, literal(-9)))
          CFI (cfiCond99) VB load(1, XDATA, add(CFA_XSP16, literal(-8)))
          CFI (cfiCond99) V0 load(1, XDATA, add(CFA_XSP16, literal(-7)))
          CFI (cfiCond99) R7 load(1, XDATA, add(CFA_XSP16, literal(-6)))
          CFI (cfiCond99) ?RET_LOW load(1, XDATA, add(CFA_XSP16, literal(-5)))
          CFI (cfiCond99) ?RET_HIGH load(1, XDATA, add(CFA_XSP16, literal(-4)))
          CFI (cfiCond99) ?BRET_EXT load(1, XDATA, add(CFA_XSP16, literal(-3)))
          CFI (cfiCond99) DPL0 load(1, XDATA, add(CFA_XSP16, literal(-2)))
          CFI (cfiCond99) DPH0 load(1, XDATA, add(CFA_XSP16, literal(-1)))
          CFI (cfiCond99) CFA_SP SP+-6
          CFI (cfiCond99) CFA_XSP16 add(XSP16, 9)
          CFI Block cfiCond100 Using cfiCommon0
          CFI (cfiCond100) Function OLED_Display_Off
          CFI (cfiCond100) Conditional ??CrossCallReturnLabel_46, ??CrossCallReturnLabel_39, ??CrossCallReturnLabel_3
          CFI (cfiCond100) DPL0 Frame(CFA_SP, 4)
          CFI (cfiCond100) DPH0 Frame(CFA_SP, 5)
          CFI (cfiCond100) CFA_SP SP+-11
          CFI Block cfiCond101 Using cfiCommon0
          CFI (cfiCond101) Function OLED_Init
          CFI (cfiCond101) Conditional ??CrossCallReturnLabel_46, ??CrossCallReturnLabel_39, ??CrossCallReturnLabel_4
          CFI (cfiCond101) DPL0 Frame(CFA_SP, 4)
          CFI (cfiCond101) DPH0 Frame(CFA_SP, 5)
          CFI (cfiCond101) CFA_SP SP+-11
          CFI Block cfiPicker102 Using cfiCommon1
          CFI (cfiPicker102) NoFunction
          CFI (cfiPicker102) Picker
        MOV       R3,#0x0
          CFI EndBlock cfiCond74
          CFI EndBlock cfiCond75
          CFI EndBlock cfiCond76
          CFI EndBlock cfiCond77
          CFI EndBlock cfiCond78
          CFI EndBlock cfiCond79
          CFI EndBlock cfiCond80
          CFI EndBlock cfiCond81
          CFI EndBlock cfiCond82
          CFI EndBlock cfiCond83
          CFI EndBlock cfiCond84
          CFI EndBlock cfiCond85
          CFI EndBlock cfiCond86
          CFI EndBlock cfiCond87
          CFI EndBlock cfiCond88
          CFI EndBlock cfiCond89
          CFI EndBlock cfiCond90
          CFI EndBlock cfiCond91
          CFI EndBlock cfiCond92
          CFI EndBlock cfiCond93
          CFI EndBlock cfiCond94
          CFI EndBlock cfiCond95
          CFI EndBlock cfiCond96
          CFI EndBlock cfiCond97
          CFI EndBlock cfiCond98
          CFI EndBlock cfiCond99
          CFI EndBlock cfiCond100
          CFI EndBlock cfiCond101
          CFI EndBlock cfiPicker102
        REQUIRE ??Subroutine19_0
        ; // Fall through to label ??Subroutine19_0

        RSEG BANKED_CODE:HUGECODE:NOROOT(0)
??Subroutine19_0:
          CFI Block cfiCond103 Using cfiCommon0
          CFI Function OLED_Set_Pos
          CFI Conditional ??CrossCallReturnLabel_47, ??CrossCallReturnLabel_11
          CFI R6 load(1, XDATA, add(CFA_XSP16, literal(-9)))
          CFI VB load(1, XDATA, add(CFA_XSP16, literal(-8)))
          CFI V0 load(1, XDATA, add(CFA_XSP16, literal(-7)))
          CFI R7 load(1, XDATA, add(CFA_XSP16, literal(-6)))
          CFI ?RET_LOW load(1, XDATA, add(CFA_XSP16, literal(-5)))
          CFI ?RET_HIGH load(1, XDATA, add(CFA_XSP16, literal(-4)))
          CFI ?BRET_EXT load(1, XDATA, add(CFA_XSP16, literal(-3)))
          CFI DPL0 load(1, XDATA, add(CFA_XSP16, literal(-2)))
          CFI DPH0 load(1, XDATA, add(CFA_XSP16, literal(-1)))
          CFI CFA_SP SP+-4
          CFI CFA_XSP16 add(XSP16, 9)
          CFI Block cfiCond104 Using cfiCommon0
          CFI (cfiCond104) Function OLED_Set_Pos
          CFI (cfiCond104) Conditional ??CrossCallReturnLabel_47, ??CrossCallReturnLabel_12
          CFI (cfiCond104) R6 load(1, XDATA, add(CFA_XSP16, literal(-9)))
          CFI (cfiCond104) VB load(1, XDATA, add(CFA_XSP16, literal(-8)))
          CFI (cfiCond104) V0 load(1, XDATA, add(CFA_XSP16, literal(-7)))
          CFI (cfiCond104) R7 load(1, XDATA, add(CFA_XSP16, literal(-6)))
          CFI (cfiCond104) ?RET_LOW load(1, XDATA, add(CFA_XSP16, literal(-5)))
          CFI (cfiCond104) ?RET_HIGH load(1, XDATA, add(CFA_XSP16, literal(-4)))
          CFI (cfiCond104) ?BRET_EXT load(1, XDATA, add(CFA_XSP16, literal(-3)))
          CFI (cfiCond104) DPL0 load(1, XDATA, add(CFA_XSP16, literal(-2)))
          CFI (cfiCond104) DPH0 load(1, XDATA, add(CFA_XSP16, literal(-1)))
          CFI (cfiCond104) CFA_SP SP+-4
          CFI (cfiCond104) CFA_XSP16 add(XSP16, 9)
          CFI Block cfiCond105 Using cfiCommon0
          CFI (cfiCond105) Function fill_picture
          CFI (cfiCond105) Conditional ??CrossCallReturnLabel_48, ??CrossCallReturnLabel_43, ??CrossCallReturnLabel_0
          CFI (cfiCond105) R6 load(1, XDATA, add(CFA_XSP16, literal(-9)))
          CFI (cfiCond105) VB load(1, XDATA, add(CFA_XSP16, literal(-8)))
          CFI (cfiCond105) V0 load(1, XDATA, add(CFA_XSP16, literal(-7)))
          CFI (cfiCond105) R7 load(1, XDATA, add(CFA_XSP16, literal(-6)))
          CFI (cfiCond105) ?RET_LOW load(1, XDATA, add(CFA_XSP16, literal(-5)))
          CFI (cfiCond105) ?RET_HIGH load(1, XDATA, add(CFA_XSP16, literal(-4)))
          CFI (cfiCond105) ?BRET_EXT load(1, XDATA, add(CFA_XSP16, literal(-3)))
          CFI (cfiCond105) DPL0 load(1, XDATA, add(CFA_XSP16, literal(-2)))
          CFI (cfiCond105) DPH0 load(1, XDATA, add(CFA_XSP16, literal(-1)))
          CFI (cfiCond105) CFA_SP SP+-6
          CFI (cfiCond105) CFA_XSP16 add(XSP16, 9)
          CFI Block cfiCond106 Using cfiCommon0
          CFI (cfiCond106) Function OLED_Clear
          CFI (cfiCond106) Conditional ??CrossCallReturnLabel_48, ??CrossCallReturnLabel_43, ??CrossCallReturnLabel_1
          CFI (cfiCond106) R6 load(1, XDATA, add(CFA_XSP16, literal(-9)))
          CFI (cfiCond106) VB load(1, XDATA, add(CFA_XSP16, literal(-8)))
          CFI (cfiCond106) V0 load(1, XDATA, add(CFA_XSP16, literal(-7)))
          CFI (cfiCond106) R7 load(1, XDATA, add(CFA_XSP16, literal(-6)))
          CFI (cfiCond106) ?RET_LOW load(1, XDATA, add(CFA_XSP16, literal(-5)))
          CFI (cfiCond106) ?RET_HIGH load(1, XDATA, add(CFA_XSP16, literal(-4)))
          CFI (cfiCond106) ?BRET_EXT load(1, XDATA, add(CFA_XSP16, literal(-3)))
          CFI (cfiCond106) DPL0 load(1, XDATA, add(CFA_XSP16, literal(-2)))
          CFI (cfiCond106) DPH0 load(1, XDATA, add(CFA_XSP16, literal(-1)))
          CFI (cfiCond106) CFA_SP SP+-6
          CFI (cfiCond106) CFA_XSP16 add(XSP16, 9)
          CFI Block cfiCond107 Using cfiCommon0
          CFI (cfiCond107) Function OLED_On
          CFI (cfiCond107) Conditional ??CrossCallReturnLabel_48, ??CrossCallReturnLabel_43, ??CrossCallReturnLabel_2
          CFI (cfiCond107) R6 load(1, XDATA, add(CFA_XSP16, literal(-9)))
          CFI (cfiCond107) VB load(1, XDATA, add(CFA_XSP16, literal(-8)))
          CFI (cfiCond107) V0 load(1, XDATA, add(CFA_XSP16, literal(-7)))
          CFI (cfiCond107) R7 load(1, XDATA, add(CFA_XSP16, literal(-6)))
          CFI (cfiCond107) ?RET_LOW load(1, XDATA, add(CFA_XSP16, literal(-5)))
          CFI (cfiCond107) ?RET_HIGH load(1, XDATA, add(CFA_XSP16, literal(-4)))
          CFI (cfiCond107) ?BRET_EXT load(1, XDATA, add(CFA_XSP16, literal(-3)))
          CFI (cfiCond107) DPL0 load(1, XDATA, add(CFA_XSP16, literal(-2)))
          CFI (cfiCond107) DPH0 load(1, XDATA, add(CFA_XSP16, literal(-1)))
          CFI (cfiCond107) CFA_SP SP+-6
          CFI (cfiCond107) CFA_XSP16 add(XSP16, 9)
          CFI Block cfiCond108 Using cfiCommon0
          CFI (cfiCond108) Function OLED_Init
          CFI (cfiCond108) Conditional ??CrossCallReturnLabel_48, ??CrossCallReturnLabel_44, ??CrossCallReturnLabel_9
          CFI (cfiCond108) DPL0 Frame(CFA_SP, 4)
          CFI (cfiCond108) DPH0 Frame(CFA_SP, 5)
          CFI (cfiCond108) CFA_SP SP+-11
          CFI Block cfiCond109 Using cfiCommon0
          CFI (cfiCond109) Function OLED_Init
          CFI (cfiCond109) Conditional ??CrossCallReturnLabel_48, ??CrossCallReturnLabel_44, ??CrossCallReturnLabel_10
          CFI (cfiCond109) DPL0 Frame(CFA_SP, 4)
          CFI (cfiCond109) DPH0 Frame(CFA_SP, 5)
          CFI (cfiCond109) CFA_SP SP+-11
          CFI Block cfiCond110 Using cfiCommon0
          CFI (cfiCond110) Function OLED_Display_On
          CFI (cfiCond110) Conditional ??CrossCallReturnLabel_45, ??CrossCallReturnLabel_13
          CFI (cfiCond110) DPL0 Frame(CFA_SP, 4)
          CFI (cfiCond110) DPH0 Frame(CFA_SP, 5)
          CFI (cfiCond110) CFA_SP SP+-9
          CFI Block cfiCond111 Using cfiCommon0
          CFI (cfiCond111) Function OLED_Init
          CFI (cfiCond111) Conditional ??CrossCallReturnLabel_45, ??CrossCallReturnLabel_13
          CFI (cfiCond111) DPL0 Frame(CFA_SP, 4)
          CFI (cfiCond111) DPH0 Frame(CFA_SP, 5)
          CFI (cfiCond111) CFA_SP SP+-9
          CFI Block cfiCond112 Using cfiCommon0
          CFI (cfiCond112) Function OLED_Display_On
          CFI (cfiCond112) Conditional ??CrossCallReturnLabel_45, ??CrossCallReturnLabel_14
          CFI (cfiCond112) DPL0 Frame(CFA_SP, 4)
          CFI (cfiCond112) DPH0 Frame(CFA_SP, 5)
          CFI (cfiCond112) CFA_SP SP+-9
          CFI Block cfiCond113 Using cfiCommon0
          CFI (cfiCond113) Function OLED_Init
          CFI (cfiCond113) Conditional ??CrossCallReturnLabel_45, ??CrossCallReturnLabel_14
          CFI (cfiCond113) DPL0 Frame(CFA_SP, 4)
          CFI (cfiCond113) DPH0 Frame(CFA_SP, 5)
          CFI (cfiCond113) CFA_SP SP+-9
          CFI Block cfiCond114 Using cfiCommon0
          CFI (cfiCond114) Function OLED_Init
          CFI (cfiCond114) Conditional ??CrossCallReturnLabel_45, ??CrossCallReturnLabel_15
          CFI (cfiCond114) DPL0 Frame(CFA_SP, 4)
          CFI (cfiCond114) DPH0 Frame(CFA_SP, 5)
          CFI (cfiCond114) CFA_SP SP+-9
          CFI Block cfiCond115 Using cfiCommon0
          CFI (cfiCond115) Function OLED_Init
          CFI (cfiCond115) Conditional ??CrossCallReturnLabel_45, ??CrossCallReturnLabel_16
          CFI (cfiCond115) DPL0 Frame(CFA_SP, 4)
          CFI (cfiCond115) DPH0 Frame(CFA_SP, 5)
          CFI (cfiCond115) CFA_SP SP+-9
          CFI Block cfiCond116 Using cfiCommon0
          CFI (cfiCond116) Function OLED_Init
          CFI (cfiCond116) Conditional ??CrossCallReturnLabel_45, ??CrossCallReturnLabel_17
          CFI (cfiCond116) DPL0 Frame(CFA_SP, 4)
          CFI (cfiCond116) DPH0 Frame(CFA_SP, 5)
          CFI (cfiCond116) CFA_SP SP+-9
          CFI Block cfiCond117 Using cfiCommon0
          CFI (cfiCond117) Function OLED_Init
          CFI (cfiCond117) Conditional ??CrossCallReturnLabel_45, ??CrossCallReturnLabel_18
          CFI (cfiCond117) DPL0 Frame(CFA_SP, 4)
          CFI (cfiCond117) DPH0 Frame(CFA_SP, 5)
          CFI (cfiCond117) CFA_SP SP+-9
          CFI Block cfiCond118 Using cfiCommon0
          CFI (cfiCond118) Function OLED_Init
          CFI (cfiCond118) Conditional ??CrossCallReturnLabel_45, ??CrossCallReturnLabel_19
          CFI (cfiCond118) DPL0 Frame(CFA_SP, 4)
          CFI (cfiCond118) DPH0 Frame(CFA_SP, 5)
          CFI (cfiCond118) CFA_SP SP+-9
          CFI Block cfiCond119 Using cfiCommon0
          CFI (cfiCond119) Function OLED_Init
          CFI (cfiCond119) Conditional ??CrossCallReturnLabel_45, ??CrossCallReturnLabel_20
          CFI (cfiCond119) DPL0 Frame(CFA_SP, 4)
          CFI (cfiCond119) DPH0 Frame(CFA_SP, 5)
          CFI (cfiCond119) CFA_SP SP+-9
          CFI Block cfiCond120 Using cfiCommon0
          CFI (cfiCond120) Function OLED_Init
          CFI (cfiCond120) Conditional ??CrossCallReturnLabel_45, ??CrossCallReturnLabel_21
          CFI (cfiCond120) DPL0 Frame(CFA_SP, 4)
          CFI (cfiCond120) DPH0 Frame(CFA_SP, 5)
          CFI (cfiCond120) CFA_SP SP+-9
          CFI Block cfiCond121 Using cfiCommon0
          CFI (cfiCond121) Function OLED_Init
          CFI (cfiCond121) Conditional ??CrossCallReturnLabel_45, ??CrossCallReturnLabel_22
          CFI (cfiCond121) DPL0 Frame(CFA_SP, 4)
          CFI (cfiCond121) DPH0 Frame(CFA_SP, 5)
          CFI (cfiCond121) CFA_SP SP+-9
          CFI Block cfiCond122 Using cfiCommon0
          CFI (cfiCond122) Function OLED_Init
          CFI (cfiCond122) Conditional ??CrossCallReturnLabel_45, ??CrossCallReturnLabel_23
          CFI (cfiCond122) DPL0 Frame(CFA_SP, 4)
          CFI (cfiCond122) DPH0 Frame(CFA_SP, 5)
          CFI (cfiCond122) CFA_SP SP+-9
          CFI Block cfiCond123 Using cfiCommon0
          CFI (cfiCond123) Function OLED_Init
          CFI (cfiCond123) Conditional ??CrossCallReturnLabel_45, ??CrossCallReturnLabel_24
          CFI (cfiCond123) DPL0 Frame(CFA_SP, 4)
          CFI (cfiCond123) DPH0 Frame(CFA_SP, 5)
          CFI (cfiCond123) CFA_SP SP+-9
          CFI Block cfiCond124 Using cfiCommon0
          CFI (cfiCond124) Function OLED_Init
          CFI (cfiCond124) Conditional ??CrossCallReturnLabel_45, ??CrossCallReturnLabel_25
          CFI (cfiCond124) DPL0 Frame(CFA_SP, 4)
          CFI (cfiCond124) DPH0 Frame(CFA_SP, 5)
          CFI (cfiCond124) CFA_SP SP+-9
          CFI Block cfiCond125 Using cfiCommon0
          CFI (cfiCond125) Function OLED_Init
          CFI (cfiCond125) Conditional ??CrossCallReturnLabel_45, ??CrossCallReturnLabel_26
          CFI (cfiCond125) DPL0 Frame(CFA_SP, 4)
          CFI (cfiCond125) DPH0 Frame(CFA_SP, 5)
          CFI (cfiCond125) CFA_SP SP+-9
          CFI Block cfiCond126 Using cfiCommon0
          CFI (cfiCond126) Function OLED_Init
          CFI (cfiCond126) Conditional ??CrossCallReturnLabel_45, ??CrossCallReturnLabel_27
          CFI (cfiCond126) DPL0 Frame(CFA_SP, 4)
          CFI (cfiCond126) DPH0 Frame(CFA_SP, 5)
          CFI (cfiCond126) CFA_SP SP+-9
          CFI Block cfiCond127 Using cfiCommon0
          CFI (cfiCond127) Function OLED_Init
          CFI (cfiCond127) Conditional ??CrossCallReturnLabel_45, ??CrossCallReturnLabel_28
          CFI (cfiCond127) DPL0 Frame(CFA_SP, 4)
          CFI (cfiCond127) DPH0 Frame(CFA_SP, 5)
          CFI (cfiCond127) CFA_SP SP+-9
          CFI Block cfiCond128 Using cfiCommon0
          CFI (cfiCond128) Function OLED_Init
          CFI (cfiCond128) Conditional ??CrossCallReturnLabel_45, ??CrossCallReturnLabel_29
          CFI (cfiCond128) DPL0 Frame(CFA_SP, 4)
          CFI (cfiCond128) DPH0 Frame(CFA_SP, 5)
          CFI (cfiCond128) CFA_SP SP+-9
          CFI Block cfiCond129 Using cfiCommon0
          CFI (cfiCond129) Function OLED_Init
          CFI (cfiCond129) Conditional ??CrossCallReturnLabel_45, ??CrossCallReturnLabel_30
          CFI (cfiCond129) DPL0 Frame(CFA_SP, 4)
          CFI (cfiCond129) DPH0 Frame(CFA_SP, 5)
          CFI (cfiCond129) CFA_SP SP+-9
          CFI Block cfiCond130 Using cfiCommon0
          CFI (cfiCond130) Function OLED_Init
          CFI (cfiCond130) Conditional ??CrossCallReturnLabel_45, ??CrossCallReturnLabel_31
          CFI (cfiCond130) DPL0 Frame(CFA_SP, 4)
          CFI (cfiCond130) DPH0 Frame(CFA_SP, 5)
          CFI (cfiCond130) CFA_SP SP+-9
          CFI Block cfiCond131 Using cfiCommon0
          CFI (cfiCond131) Function OLED_Init
          CFI (cfiCond131) Conditional ??CrossCallReturnLabel_45, ??CrossCallReturnLabel_32
          CFI (cfiCond131) DPL0 Frame(CFA_SP, 4)
          CFI (cfiCond131) DPH0 Frame(CFA_SP, 5)
          CFI (cfiCond131) CFA_SP SP+-9
          CFI Block cfiCond132 Using cfiCommon0
          CFI (cfiCond132) Function OLED_Init
          CFI (cfiCond132) Conditional ??CrossCallReturnLabel_45, ??CrossCallReturnLabel_33
          CFI (cfiCond132) DPL0 Frame(CFA_SP, 4)
          CFI (cfiCond132) DPH0 Frame(CFA_SP, 5)
          CFI (cfiCond132) CFA_SP SP+-9
          CFI Block cfiCond133 Using cfiCommon0
          CFI (cfiCond133) Function fill_picture
          CFI (cfiCond133) Conditional ??CrossCallReturnLabel_46, ??CrossCallReturnLabel_38, ??CrossCallReturnLabel_0
          CFI (cfiCond133) R6 load(1, XDATA, add(CFA_XSP16, literal(-9)))
          CFI (cfiCond133) VB load(1, XDATA, add(CFA_XSP16, literal(-8)))
          CFI (cfiCond133) V0 load(1, XDATA, add(CFA_XSP16, literal(-7)))
          CFI (cfiCond133) R7 load(1, XDATA, add(CFA_XSP16, literal(-6)))
          CFI (cfiCond133) ?RET_LOW load(1, XDATA, add(CFA_XSP16, literal(-5)))
          CFI (cfiCond133) ?RET_HIGH load(1, XDATA, add(CFA_XSP16, literal(-4)))
          CFI (cfiCond133) ?BRET_EXT load(1, XDATA, add(CFA_XSP16, literal(-3)))
          CFI (cfiCond133) DPL0 load(1, XDATA, add(CFA_XSP16, literal(-2)))
          CFI (cfiCond133) DPH0 load(1, XDATA, add(CFA_XSP16, literal(-1)))
          CFI (cfiCond133) CFA_SP SP+-6
          CFI (cfiCond133) CFA_XSP16 add(XSP16, 9)
          CFI Block cfiCond134 Using cfiCommon0
          CFI (cfiCond134) Function OLED_Clear
          CFI (cfiCond134) Conditional ??CrossCallReturnLabel_46, ??CrossCallReturnLabel_38, ??CrossCallReturnLabel_1
          CFI (cfiCond134) R6 load(1, XDATA, add(CFA_XSP16, literal(-9)))
          CFI (cfiCond134) VB load(1, XDATA, add(CFA_XSP16, literal(-8)))
          CFI (cfiCond134) V0 load(1, XDATA, add(CFA_XSP16, literal(-7)))
          CFI (cfiCond134) R7 load(1, XDATA, add(CFA_XSP16, literal(-6)))
          CFI (cfiCond134) ?RET_LOW load(1, XDATA, add(CFA_XSP16, literal(-5)))
          CFI (cfiCond134) ?RET_HIGH load(1, XDATA, add(CFA_XSP16, literal(-4)))
          CFI (cfiCond134) ?BRET_EXT load(1, XDATA, add(CFA_XSP16, literal(-3)))
          CFI (cfiCond134) DPL0 load(1, XDATA, add(CFA_XSP16, literal(-2)))
          CFI (cfiCond134) DPH0 load(1, XDATA, add(CFA_XSP16, literal(-1)))
          CFI (cfiCond134) CFA_SP SP+-6
          CFI (cfiCond134) CFA_XSP16 add(XSP16, 9)
          CFI Block cfiCond135 Using cfiCommon0
          CFI (cfiCond135) Function OLED_On
          CFI (cfiCond135) Conditional ??CrossCallReturnLabel_46, ??CrossCallReturnLabel_38, ??CrossCallReturnLabel_2
          CFI (cfiCond135) R6 load(1, XDATA, add(CFA_XSP16, literal(-9)))
          CFI (cfiCond135) VB load(1, XDATA, add(CFA_XSP16, literal(-8)))
          CFI (cfiCond135) V0 load(1, XDATA, add(CFA_XSP16, literal(-7)))
          CFI (cfiCond135) R7 load(1, XDATA, add(CFA_XSP16, literal(-6)))
          CFI (cfiCond135) ?RET_LOW load(1, XDATA, add(CFA_XSP16, literal(-5)))
          CFI (cfiCond135) ?RET_HIGH load(1, XDATA, add(CFA_XSP16, literal(-4)))
          CFI (cfiCond135) ?BRET_EXT load(1, XDATA, add(CFA_XSP16, literal(-3)))
          CFI (cfiCond135) DPL0 load(1, XDATA, add(CFA_XSP16, literal(-2)))
          CFI (cfiCond135) DPH0 load(1, XDATA, add(CFA_XSP16, literal(-1)))
          CFI (cfiCond135) CFA_SP SP+-6
          CFI (cfiCond135) CFA_XSP16 add(XSP16, 9)
          CFI Block cfiCond136 Using cfiCommon0
          CFI (cfiCond136) Function OLED_Display_Off
          CFI (cfiCond136) Conditional ??CrossCallReturnLabel_46, ??CrossCallReturnLabel_39, ??CrossCallReturnLabel_3
          CFI (cfiCond136) DPL0 Frame(CFA_SP, 4)
          CFI (cfiCond136) DPH0 Frame(CFA_SP, 5)
          CFI (cfiCond136) CFA_SP SP+-11
          CFI Block cfiCond137 Using cfiCommon0
          CFI (cfiCond137) Function OLED_Init
          CFI (cfiCond137) Conditional ??CrossCallReturnLabel_46, ??CrossCallReturnLabel_39, ??CrossCallReturnLabel_4
          CFI (cfiCond137) DPL0 Frame(CFA_SP, 4)
          CFI (cfiCond137) DPH0 Frame(CFA_SP, 5)
          CFI (cfiCond137) CFA_SP SP+-11
          CFI Block cfiPicker138 Using cfiCommon1
          CFI (cfiPicker138) NoFunction
          CFI (cfiPicker138) Picker
        LCALL     `??OLED_WR_Byte::?relay`; Banked call to: OLED_WR_Byte
        ; Setup parameters for call to function OLED_WR_Byte
        ; Setup parameters for call to function OLED_WR_Byte
        ; Setup parameters for call to function OLED_WR_Byte
        ; Setup parameters for call to function OLED_WR_Byte
        ; Setup parameters for call to function OLED_WR_Byte
        ; Setup parameters for call to function OLED_WR_Byte
        ; Setup parameters for call to function OLED_WR_Byte
        ; Setup parameters for call to function OLED_WR_Byte
        ; Setup parameters for call to function OLED_WR_Byte
        ; Setup parameters for call to function OLED_WR_Byte
        ; Setup parameters for call to function OLED_WR_Byte
        ; Setup parameters for call to function OLED_WR_Byte
        ; Setup parameters for call to function OLED_WR_Byte
        ; Setup parameters for call to function OLED_WR_Byte
        ; Setup parameters for call to function OLED_WR_Byte
        ; Setup parameters for call to function OLED_WR_Byte
        ; Setup parameters for call to function OLED_WR_Byte
        ; Setup parameters for call to function OLED_WR_Byte
        ; Setup parameters for call to function OLED_WR_Byte
        ; Setup parameters for call to function OLED_WR_Byte
        ; Setup parameters for call to function OLED_WR_Byte
        ; Setup parameters for call to function OLED_WR_Byte
        ; Setup parameters for call to function OLED_WR_Byte
        ; Setup parameters for call to function OLED_WR_Byte
        ; Setup parameters for call to function OLED_WR_Byte
        ; Setup parameters for call to function OLED_WR_Byte
        ; Setup parameters for call to function OLED_WR_Byte
        ; Setup parameters for call to function OLED_WR_Byte
        ; Setup parameters for call to function OLED_WR_Byte
        ; Setup parameters for call to function OLED_WR_Byte
        ; Setup parameters for call to function OLED_WR_Byte
        ; Setup parameters for call to function OLED_WR_Byte
        ; Setup parameters for call to function OLED_WR_Byte
        ; Setup parameters for call to function OLED_WR_Byte
        ; Setup parameters for call to function OLED_WR_Byte
        MOV       R4,#0x0
        MOV       R5,#0x0
        RET
          CFI EndBlock cfiCond103
          CFI EndBlock cfiCond104
          CFI EndBlock cfiCond105
          CFI EndBlock cfiCond106
          CFI EndBlock cfiCond107
          CFI EndBlock cfiCond108
          CFI EndBlock cfiCond109
          CFI EndBlock cfiCond110
          CFI EndBlock cfiCond111
          CFI EndBlock cfiCond112
          CFI EndBlock cfiCond113
          CFI EndBlock cfiCond114
          CFI EndBlock cfiCond115
          CFI EndBlock cfiCond116
          CFI EndBlock cfiCond117
          CFI EndBlock cfiCond118
          CFI EndBlock cfiCond119
          CFI EndBlock cfiCond120
          CFI EndBlock cfiCond121
          CFI EndBlock cfiCond122
          CFI EndBlock cfiCond123
          CFI EndBlock cfiCond124
          CFI EndBlock cfiCond125
          CFI EndBlock cfiCond126
          CFI EndBlock cfiCond127
          CFI EndBlock cfiCond128
          CFI EndBlock cfiCond129
          CFI EndBlock cfiCond130
          CFI EndBlock cfiCond131
          CFI EndBlock cfiCond132
          CFI EndBlock cfiCond133
          CFI EndBlock cfiCond134
          CFI EndBlock cfiCond135
          CFI EndBlock cfiCond136
          CFI EndBlock cfiCond137
          CFI EndBlock cfiPicker138

        RSEG BANKED_CODE:HUGECODE:NOROOT(0)
?Subroutine7:
          CFI Block cfiCond139 Using cfiCommon0
          CFI Function OLED_Init
          CFI Conditional ??CrossCallReturnLabel_9
          CFI DPL0 Frame(CFA_SP, 4)
          CFI DPH0 Frame(CFA_SP, 5)
          CFI CFA_SP SP+-7
          CFI Block cfiCond140 Using cfiCommon0
          CFI (cfiCond140) Function OLED_Init
          CFI (cfiCond140) Conditional ??CrossCallReturnLabel_10
          CFI (cfiCond140) DPL0 Frame(CFA_SP, 4)
          CFI (cfiCond140) DPH0 Frame(CFA_SP, 5)
          CFI (cfiCond140) CFA_SP SP+-7
          CFI Block cfiPicker141 Using cfiCommon1
          CFI (cfiPicker141) NoFunction
          CFI (cfiPicker141) Picker
        MOV       R3,#0x0
        LCALL     ?Subroutine14 & 0xFFFF
??CrossCallReturnLabel_44:
        RET
          CFI EndBlock cfiCond139
          CFI EndBlock cfiCond140
          CFI EndBlock cfiPicker141

        RSEG BANKED_CODE:HUGECODE:NOROOT(0)
?Subroutine14:
          CFI Block cfiCond142 Using cfiCommon0
          CFI Function fill_picture
          CFI Conditional ??CrossCallReturnLabel_43, ??CrossCallReturnLabel_0
          CFI R6 load(1, XDATA, add(CFA_XSP16, literal(-9)))
          CFI VB load(1, XDATA, add(CFA_XSP16, literal(-8)))
          CFI V0 load(1, XDATA, add(CFA_XSP16, literal(-7)))
          CFI R7 load(1, XDATA, add(CFA_XSP16, literal(-6)))
          CFI ?RET_LOW load(1, XDATA, add(CFA_XSP16, literal(-5)))
          CFI ?RET_HIGH load(1, XDATA, add(CFA_XSP16, literal(-4)))
          CFI ?BRET_EXT load(1, XDATA, add(CFA_XSP16, literal(-3)))
          CFI DPL0 load(1, XDATA, add(CFA_XSP16, literal(-2)))
          CFI DPH0 load(1, XDATA, add(CFA_XSP16, literal(-1)))
          CFI CFA_SP SP+-4
          CFI CFA_XSP16 add(XSP16, 9)
          CFI Block cfiCond143 Using cfiCommon0
          CFI (cfiCond143) Function OLED_Clear
          CFI (cfiCond143) Conditional ??CrossCallReturnLabel_43, ??CrossCallReturnLabel_1
          CFI (cfiCond143) R6 load(1, XDATA, add(CFA_XSP16, literal(-9)))
          CFI (cfiCond143) VB load(1, XDATA, add(CFA_XSP16, literal(-8)))
          CFI (cfiCond143) V0 load(1, XDATA, add(CFA_XSP16, literal(-7)))
          CFI (cfiCond143) R7 load(1, XDATA, add(CFA_XSP16, literal(-6)))
          CFI (cfiCond143) ?RET_LOW load(1, XDATA, add(CFA_XSP16, literal(-5)))
          CFI (cfiCond143) ?RET_HIGH load(1, XDATA, add(CFA_XSP16, literal(-4)))
          CFI (cfiCond143) ?BRET_EXT load(1, XDATA, add(CFA_XSP16, literal(-3)))
          CFI (cfiCond143) DPL0 load(1, XDATA, add(CFA_XSP16, literal(-2)))
          CFI (cfiCond143) DPH0 load(1, XDATA, add(CFA_XSP16, literal(-1)))
          CFI (cfiCond143) CFA_SP SP+-4
          CFI (cfiCond143) CFA_XSP16 add(XSP16, 9)
          CFI Block cfiCond144 Using cfiCommon0
          CFI (cfiCond144) Function OLED_On
          CFI (cfiCond144) Conditional ??CrossCallReturnLabel_43, ??CrossCallReturnLabel_2
          CFI (cfiCond144) R6 load(1, XDATA, add(CFA_XSP16, literal(-9)))
          CFI (cfiCond144) VB load(1, XDATA, add(CFA_XSP16, literal(-8)))
          CFI (cfiCond144) V0 load(1, XDATA, add(CFA_XSP16, literal(-7)))
          CFI (cfiCond144) R7 load(1, XDATA, add(CFA_XSP16, literal(-6)))
          CFI (cfiCond144) ?RET_LOW load(1, XDATA, add(CFA_XSP16, literal(-5)))
          CFI (cfiCond144) ?RET_HIGH load(1, XDATA, add(CFA_XSP16, literal(-4)))
          CFI (cfiCond144) ?BRET_EXT load(1, XDATA, add(CFA_XSP16, literal(-3)))
          CFI (cfiCond144) DPL0 load(1, XDATA, add(CFA_XSP16, literal(-2)))
          CFI (cfiCond144) DPH0 load(1, XDATA, add(CFA_XSP16, literal(-1)))
          CFI (cfiCond144) CFA_SP SP+-4
          CFI (cfiCond144) CFA_XSP16 add(XSP16, 9)
          CFI Block cfiCond145 Using cfiCommon0
          CFI (cfiCond145) Function OLED_Init
          CFI (cfiCond145) Conditional ??CrossCallReturnLabel_44, ??CrossCallReturnLabel_9
          CFI (cfiCond145) DPL0 Frame(CFA_SP, 4)
          CFI (cfiCond145) DPH0 Frame(CFA_SP, 5)
          CFI (cfiCond145) CFA_SP SP+-9
          CFI Block cfiCond146 Using cfiCommon0
          CFI (cfiCond146) Function OLED_Init
          CFI (cfiCond146) Conditional ??CrossCallReturnLabel_44, ??CrossCallReturnLabel_10
          CFI (cfiCond146) DPL0 Frame(CFA_SP, 4)
          CFI (cfiCond146) DPH0 Frame(CFA_SP, 5)
          CFI (cfiCond146) CFA_SP SP+-9
          CFI Block cfiPicker147 Using cfiCommon1
          CFI (cfiPicker147) NoFunction
          CFI (cfiPicker147) Picker
        LCALL     ??Subroutine19_0 & 0xFFFF
??CrossCallReturnLabel_48:
        MOV       R2,#0x0
        RET
          CFI EndBlock cfiCond142
          CFI EndBlock cfiCond143
          CFI EndBlock cfiCond144
          CFI EndBlock cfiCond145
          CFI EndBlock cfiCond146
          CFI EndBlock cfiPicker147

        RSEG BANKED_CODE:HUGECODE:NOROOT(0)
?Subroutine4:
          CFI Block cfiCond148 Using cfiCommon0
          CFI Function OLED_Display_Off
          CFI Conditional ??CrossCallReturnLabel_3
          CFI DPL0 Frame(CFA_SP, 4)
          CFI DPH0 Frame(CFA_SP, 5)
          CFI CFA_SP SP+-7
          CFI Block cfiCond149 Using cfiCommon0
          CFI (cfiCond149) Function OLED_Init
          CFI (cfiCond149) Conditional ??CrossCallReturnLabel_4
          CFI (cfiCond149) DPL0 Frame(CFA_SP, 4)
          CFI (cfiCond149) DPH0 Frame(CFA_SP, 5)
          CFI (cfiCond149) CFA_SP SP+-7
          CFI Block cfiPicker150 Using cfiCommon1
          CFI (cfiPicker150) NoFunction
          CFI (cfiPicker150) Picker
        LCALL     ?Subroutine12 & 0xFFFF
??CrossCallReturnLabel_39:
        ; Setup parameters for call to function OLED_WR_Byte
        ; Setup parameters for call to function OLED_WR_Byte
        MOV       R4,#0x0
        MOV       R5,#0x0
        RET
          CFI EndBlock cfiCond148
          CFI EndBlock cfiCond149
          CFI EndBlock cfiPicker150

        RSEG BANKED_CODE:HUGECODE:NOROOT(0)
?Subroutine12:
          CFI Block cfiCond151 Using cfiCommon0
          CFI Function fill_picture
          CFI Conditional ??CrossCallReturnLabel_38, ??CrossCallReturnLabel_0
          CFI R6 load(1, XDATA, add(CFA_XSP16, literal(-9)))
          CFI VB load(1, XDATA, add(CFA_XSP16, literal(-8)))
          CFI V0 load(1, XDATA, add(CFA_XSP16, literal(-7)))
          CFI R7 load(1, XDATA, add(CFA_XSP16, literal(-6)))
          CFI ?RET_LOW load(1, XDATA, add(CFA_XSP16, literal(-5)))
          CFI ?RET_HIGH load(1, XDATA, add(CFA_XSP16, literal(-4)))
          CFI ?BRET_EXT load(1, XDATA, add(CFA_XSP16, literal(-3)))
          CFI DPL0 load(1, XDATA, add(CFA_XSP16, literal(-2)))
          CFI DPH0 load(1, XDATA, add(CFA_XSP16, literal(-1)))
          CFI CFA_SP SP+-4
          CFI CFA_XSP16 add(XSP16, 9)
          CFI Block cfiCond152 Using cfiCommon0
          CFI (cfiCond152) Function OLED_Clear
          CFI (cfiCond152) Conditional ??CrossCallReturnLabel_38, ??CrossCallReturnLabel_1
          CFI (cfiCond152) R6 load(1, XDATA, add(CFA_XSP16, literal(-9)))
          CFI (cfiCond152) VB load(1, XDATA, add(CFA_XSP16, literal(-8)))
          CFI (cfiCond152) V0 load(1, XDATA, add(CFA_XSP16, literal(-7)))
          CFI (cfiCond152) R7 load(1, XDATA, add(CFA_XSP16, literal(-6)))
          CFI (cfiCond152) ?RET_LOW load(1, XDATA, add(CFA_XSP16, literal(-5)))
          CFI (cfiCond152) ?RET_HIGH load(1, XDATA, add(CFA_XSP16, literal(-4)))
          CFI (cfiCond152) ?BRET_EXT load(1, XDATA, add(CFA_XSP16, literal(-3)))
          CFI (cfiCond152) DPL0 load(1, XDATA, add(CFA_XSP16, literal(-2)))
          CFI (cfiCond152) DPH0 load(1, XDATA, add(CFA_XSP16, literal(-1)))
          CFI (cfiCond152) CFA_SP SP+-4
          CFI (cfiCond152) CFA_XSP16 add(XSP16, 9)
          CFI Block cfiCond153 Using cfiCommon0
          CFI (cfiCond153) Function OLED_On
          CFI (cfiCond153) Conditional ??CrossCallReturnLabel_38, ??CrossCallReturnLabel_2
          CFI (cfiCond153) R6 load(1, XDATA, add(CFA_XSP16, literal(-9)))
          CFI (cfiCond153) VB load(1, XDATA, add(CFA_XSP16, literal(-8)))
          CFI (cfiCond153) V0 load(1, XDATA, add(CFA_XSP16, literal(-7)))
          CFI (cfiCond153) R7 load(1, XDATA, add(CFA_XSP16, literal(-6)))
          CFI (cfiCond153) ?RET_LOW load(1, XDATA, add(CFA_XSP16, literal(-5)))
          CFI (cfiCond153) ?RET_HIGH load(1, XDATA, add(CFA_XSP16, literal(-4)))
          CFI (cfiCond153) ?BRET_EXT load(1, XDATA, add(CFA_XSP16, literal(-3)))
          CFI (cfiCond153) DPL0 load(1, XDATA, add(CFA_XSP16, literal(-2)))
          CFI (cfiCond153) DPH0 load(1, XDATA, add(CFA_XSP16, literal(-1)))
          CFI (cfiCond153) CFA_SP SP+-4
          CFI (cfiCond153) CFA_XSP16 add(XSP16, 9)
          CFI Block cfiCond154 Using cfiCommon0
          CFI (cfiCond154) Function OLED_Display_Off
          CFI (cfiCond154) Conditional ??CrossCallReturnLabel_39, ??CrossCallReturnLabel_3
          CFI (cfiCond154) DPL0 Frame(CFA_SP, 4)
          CFI (cfiCond154) DPH0 Frame(CFA_SP, 5)
          CFI (cfiCond154) CFA_SP SP+-9
          CFI Block cfiCond155 Using cfiCommon0
          CFI (cfiCond155) Function OLED_Init
          CFI (cfiCond155) Conditional ??CrossCallReturnLabel_39, ??CrossCallReturnLabel_4
          CFI (cfiCond155) DPL0 Frame(CFA_SP, 4)
          CFI (cfiCond155) DPH0 Frame(CFA_SP, 5)
          CFI (cfiCond155) CFA_SP SP+-9
          CFI Block cfiPicker156 Using cfiCommon1
          CFI (cfiPicker156) NoFunction
          CFI (cfiPicker156) Picker
        LCALL     ?Subroutine15 & 0xFFFF
??CrossCallReturnLabel_46:
        MOV       R2,#0x10
        MOV       R3,#0x0
        LCALL     `??OLED_WR_Byte::?relay`; Banked call to: OLED_WR_Byte
        RET
          CFI EndBlock cfiCond151
          CFI EndBlock cfiCond152
          CFI EndBlock cfiCond153
          CFI EndBlock cfiCond154
          CFI EndBlock cfiCond155
          CFI EndBlock cfiPicker156

        RSEG XDATA_ID:CODE:NOROOT(0)
`?<Initializer for Hzk>`:
        DATA8
        DB 0
        DB 0
        DB 240
        DB 16
        DB 16
        DB 16
        DB 16
        DB 255
        DB 16
        DB 16
        DB 16
        DB 16
        DB 240
        DB 0
        DB 0
        DB 0
        DB 0
        DB 0
        DB 0
        DB 0
        DB 0
        DB 0
        DB 0
        DB 0
        DB 0
        DB 0
        DB 0
        DB 0
        DB 0
        DB 0
        DB 0
        DB 0
        DB 0
        DB 0
        DB 15
        DB 4
        DB 4
        DB 4
        DB 4
        DB 255
        DB 4
        DB 4
        DB 4
        DB 4
        DB 15
        DB 0
        DB 0
        DB 0
        DB 0
        DB 0
        DB 0
        DB 0
        DB 0
        DB 0
        DB 0
        DB 0
        DB 0
        DB 0
        DB 0
        DB 0
        DB 0
        DB 0
        DB 0
        DB 0
        DB 64
        DB 64
        DB 64
        DB 95
        DB 85
        DB 85
        DB 85
        DB 117
        DB 85
        DB 85
        DB 85
        DB 95
        DB 64
        DB 64
        DB 64
        DB 0
        DB 0
        DB 0
        DB 0
        DB 0
        DB 0
        DB 0
        DB 0
        DB 0
        DB 0
        DB 0
        DB 0
        DB 0
        DB 0
        DB 0
        DB 0
        DB 0
        DB 0
        DB 64
        DB 32
        DB 15
        DB 9
        DB 73
        DB 137
        DB 121
        DB 9
        DB 9
        DB 9
        DB 15
        DB 32
        DB 64
        DB 0
        DB 0
        DB 0
        DB 0
        DB 0
        DB 0
        DB 0
        DB 0
        DB 0
        DB 0
        DB 0
        DB 0
        DB 0
        DB 0
        DB 0
        DB 0
        DB 0
        DB 0
        DB 0
        DB 254
        DB 2
        DB 66
        DB 74
        DB 202
        DB 74
        DB 74
        DB 202
        DB 74
        DB 74
        DB 66
        DB 2
        DB 254
        DB 0
        DB 0
        DB 0
        DB 0
        DB 0
        DB 0
        DB 0
        DB 0
        DB 0
        DB 0
        DB 0
        DB 0
        DB 0
        DB 0
        DB 0
        DB 0
        DB 0
        DB 0
        DB 0
        DB 255
        DB 64
        DB 80
        DB 76
        DB 67
        DB 64
        DB 64
        DB 79
        DB 80
        DB 80
        DB 92
        DB 64
        DB 255
        DB 0
        DB 0
        DB 0
        DB 0
        DB 0
        DB 0
        DB 0
        DB 0
        DB 0
        DB 0
        DB 0
        DB 0
        DB 0
        DB 0
        DB 0
        DB 0
        DB 0
        DB 0
        DB 0
        DB 0
        DB 248
        DB 136
        DB 136
        DB 136
        DB 136
        DB 255
        DB 136
        DB 136
        DB 136
        DB 136
        DB 248
        DB 0
        DB 0
        DB 0
        DB 0
        DB 0
        DB 0
        DB 0
        DB 0
        DB 0
        DB 0
        DB 0
        DB 0
        DB 0
        DB 0
        DB 0
        DB 0
        DB 0
        DB 0
        DB 0
        DB 0
        DB 0
        DB 31
        DB 8
        DB 8
        DB 8
        DB 8
        DB 127
        DB 136
        DB 136
        DB 136
        DB 136
        DB 159
        DB 128
        DB 240
        DB 0
        DB 0
        DB 0
        DB 0
        DB 0
        DB 0
        DB 0
        DB 0
        DB 0
        DB 0
        DB 0
        DB 0
        DB 0
        DB 0
        DB 0
        DB 0
        DB 0
        DB 128
        DB 130
        DB 130
        DB 130
        DB 130
        DB 130
        DB 130
        DB 226
        DB 162
        DB 146
        DB 138
        DB 134
        DB 130
        DB 128
        DB 128
        DB 0
        DB 0
        DB 0
        DB 0
        DB 0
        DB 0
        DB 0
        DB 0
        DB 0
        DB 0
        DB 0
        DB 0
        DB 0
        DB 0
        DB 0
        DB 0
        DB 0
        DB 0
        DB 0
        DB 0
        DB 0
        DB 0
        DB 64
        DB 128
        DB 127
        DB 0
        DB 0
        DB 0
        DB 0
        DB 0
        DB 0
        DB 0
        DB 0
        DB 0
        DB 0
        DB 0
        DB 0
        DB 0
        DB 0
        DB 0
        DB 0
        DB 0
        DB 0
        DB 0
        DB 0
        DB 0
        DB 0
        DB 0
        DB 0
        DB 36
        DB 36
        DB 164
        DB 254
        DB 163
        DB 34
        DB 0
        DB 34
        DB 204
        DB 0
        DB 0
        DB 255
        DB 0
        DB 0
        DB 0
        DB 0
        DB 0
        DB 0
        DB 0
        DB 0
        DB 0
        DB 0
        DB 0
        DB 0
        DB 0
        DB 0
        DB 0
        DB 0
        DB 0
        DB 0
        DB 0
        DB 0
        DB 8
        DB 6
        DB 1
        DB 255
        DB 0
        DB 1
        DB 4
        DB 4
        DB 4
        DB 4
        DB 4
        DB 255
        DB 2
        DB 2
        DB 2
        DB 0
        DB 0
        DB 0
        DB 0
        DB 0
        DB 0
        DB 0
        DB 0
        DB 0
        DB 0
        DB 0
        DB 0
        DB 0
        DB 0
        DB 0
        DB 0
        DB 0
        DB 16
        DB 16
        DB 16
        DB 255
        DB 16
        DB 144
        DB 8
        DB 136
        DB 136
        DB 136
        DB 255
        DB 136
        DB 136
        DB 136
        DB 8
        DB 0
        DB 0
        DB 0
        DB 0
        DB 0
        DB 0
        DB 0
        DB 0
        DB 0
        DB 0
        DB 0
        DB 0
        DB 0
        DB 0
        DB 0
        DB 0
        DB 0
        DB 4
        DB 68
        DB 130
        DB 127
        DB 1
        DB 128
        DB 128
        DB 64
        DB 67
        DB 44
        DB 16
        DB 40
        DB 70
        DB 129
        DB 128
        DB 0
        DB 0
        DB 0
        DB 0
        DB 0
        DB 0
        DB 0
        DB 0
        DB 0
        DB 0
        DB 0
        DB 0
        DB 0
        DB 0
        DB 0
        DB 0
        DB 0

        RSEG XDATA_ROM_C:CONST:REORDER:NOROOT(0)
        DATA32
__Constant_a:
        DD 10

        RSEG BANK_RELAYS:CODE:REORDER:NOROOT(0)
`??Write_IIC_Command::?relay`:
        CODE
        LCALL   ?BDISPATCH
        DATA24
        DC24    Write_IIC_Command

        RSEG BANK_RELAYS:CODE:REORDER:NOROOT(0)
`??Write_IIC_Data::?relay`:
        CODE
        LCALL   ?BDISPATCH
        DATA24
        DC24    Write_IIC_Data

        RSEG BANK_RELAYS:CODE:REORDER:NOROOT(0)
`??OLED_WR_Byte::?relay`:
        CODE
        LCALL   ?BDISPATCH
        DATA24
        DC24    OLED_WR_Byte

        RSEG BANK_RELAYS:CODE:REORDER:NOROOT(0)
`??fill_picture::?relay`:
        CODE
        LCALL   ?BDISPATCH
        DATA24
        DC24    fill_picture

        RSEG BANK_RELAYS:CODE:REORDER:NOROOT(0)
`??Delay_50ms::?relay`:
        CODE
        LCALL   ?BDISPATCH
        DATA24
        DC24    Delay_50ms

        RSEG BANK_RELAYS:CODE:REORDER:NOROOT(0)
`??Delay_1ms::?relay`:
        CODE
        LCALL   ?BDISPATCH
        DATA24
        DC24    Delay_1ms

        RSEG BANK_RELAYS:CODE:REORDER:NOROOT(0)
`??OLED_Set_Pos::?relay`:
        CODE
        LCALL   ?BDISPATCH
        DATA24
        DC24    OLED_Set_Pos

        RSEG BANK_RELAYS:CODE:REORDER:NOROOT(0)
`??OLED_Display_On::?relay`:
        CODE
        LCALL   ?BDISPATCH
        DATA24
        DC24    OLED_Display_On

        RSEG BANK_RELAYS:CODE:REORDER:NOROOT(0)
`??OLED_Display_Off::?relay`:
        CODE
        LCALL   ?BDISPATCH
        DATA24
        DC24    OLED_Display_Off

        RSEG BANK_RELAYS:CODE:REORDER:NOROOT(0)
`??OLED_Clear::?relay`:
        CODE
        LCALL   ?BDISPATCH
        DATA24
        DC24    OLED_Clear

        RSEG BANK_RELAYS:CODE:REORDER:NOROOT(0)
`??OLED_On::?relay`:
        CODE
        LCALL   ?BDISPATCH
        DATA24
        DC24    OLED_On

        RSEG BANK_RELAYS:CODE:REORDER:NOROOT(0)
`??OLED_ShowChar::?relay`:
        CODE
        LCALL   ?BDISPATCH
        DATA24
        DC24    OLED_ShowChar

        RSEG BANK_RELAYS:CODE:REORDER:NOROOT(0)
`??oled_pow::?relay`:
        CODE
        LCALL   ?BDISPATCH
        DATA24
        DC24    oled_pow

        RSEG BANK_RELAYS:CODE:REORDER:NOROOT(0)
`??OLED_ShowNum::?relay`:
        CODE
        LCALL   ?BDISPATCH
        DATA24
        DC24    OLED_ShowNum

        RSEG BANK_RELAYS:CODE:REORDER:NOROOT(0)
`??OLED_ShowString::?relay`:
        CODE
        LCALL   ?BDISPATCH
        DATA24
        DC24    OLED_ShowString

        RSEG BANK_RELAYS:CODE:REORDER:NOROOT(0)
`??OLED_ShowCHinese::?relay`:
        CODE
        LCALL   ?BDISPATCH
        DATA24
        DC24    OLED_ShowCHinese

        RSEG BANK_RELAYS:CODE:REORDER:NOROOT(0)
`??OLED_DrawBMP::?relay`:
        CODE
        LCALL   ?BDISPATCH
        DATA24
        DC24    OLED_DrawBMP

        RSEG BANK_RELAYS:CODE:REORDER:NOROOT(0)
`??OLED_Init::?relay`:
        CODE
        LCALL   ?BDISPATCH
        DATA24
        DC24    OLED_Init

        END
// 
// 1 184 bytes in segment BANKED_CODE
//   108 bytes in segment BANK_RELAYS
//   448 bytes in segment XDATA_I
//   448 bytes in segment XDATA_ID
// 2 076 bytes in segment XDATA_ROM_C
// 
//   556 bytes of CODE     memory
// 2 072 bytes of CONST    memory (+ 4 bytes shared)
// 1 184 bytes of HUGECODE memory
//   448 bytes of XDATA    memory
//
//Errors: none
//Warnings: none
