///////////////////////////////////////////////////////////////////////////////
//                                                                            /
// IAR C/C++ Compiler V8.10.3.10338/W32 for 8051        02/Mar/2018  11:01:25 /
// Copyright 2004-2011 IAR Systems AB.                                        /
//                                                                            /
//    Core               =  plain                                             /
//    Code model         =  banked                                            /
//    Data model         =  large                                             /
//    Calling convention =  xdata reentrant                                   /
//    Constant location  =  data_rom                                          /
//    Dptr setup         =  1,16                                              /
//    Source file        =  C:\Users\yzk\Desktop\–≠“È’ª¡∑œ∞\Projects\zstack\S /
//                          amples\SampleApp\Source\NewProcessApp.c           /
//    Command line       =  -f C:\Users\yzk\Desktop\–≠“È’ª¡∑œ∞\Projects\zstac /
//                          k\Samples\SampleApp\CC2530DB\..\..\..\Tools\CC253 /
//                          0DB\f8wCoord.cfg (-DCPU32MHZ -DROOT=__near_func   /
//                          -DMAC_CFG_APP_PENDING_QUEUE=TRUE                  /
//                          -DMAC_CFG_TX_DATA_MAX=5 -DMAC_CFG_TX_MAX=8        /
//                          -DMAC_CFG_RX_MAX=5 -DZDO_COORDINATOR -DRTR_NWK)   /
//                          -f C:\Users\yzk\Desktop\–≠“È’ª¡∑œ∞\Projects\zstac /
//                          k\Samples\SampleApp\CC2530DB\..\..\..\Tools\CC253 /
//                          0DB\f8wConfig.cfg (-DZIGBEEPRO -DSECURE=0         /
//                          -DZG_SECURE_DYNAMIC=0 -DREFLECTOR                 /
//                          -DDEFAULT_CHANLIST=0x00000800                     /
//                          -DZDAPP_CONFIG_PAN_ID=0x0001                      /
//                          -DNWK_START_DELAY=100 -DEXTENDED_JOINING_RANDOM_M /
//                          ASK=0x007F -DBEACON_REQUEST_DELAY=100             /
//                          -DBEACON_REQ_DELAY_MASK=0x00FF                    /
//                          -DLINK_STATUS_JITTER_MASK=0x007F                  /
//                          -DROUTE_EXPIRY_TIME=30 -DAPSC_ACK_WAIT_DURATION_P /
//                          OLLED=3000 -DNWK_INDIRECT_MSG_TIMEOUT=7           /
//                          -DMAX_RREQ_ENTRIES=8 -DAPSC_MAX_FRAME_RETRIES=3   /
//                          -DNWK_MAX_DATA_RETRIES=2                          /
//                          -DMAX_POLL_FAILURE_RETRIES=2 -DMAX_BCAST=9        /
//                          -DAPS_MAX_GROUPS=16 -DMAX_RTG_ENTRIES=40          /
//                          -DNWK_MAX_BINDING_ENTRIES=4                       /
//                          -DMAX_BINDING_CLUSTER_IDS=4                       /
//                          "-DDEFAULT_KEY={0x01, 0x03, 0x05, 0x07, 0x09,     /
//                          0x0B, 0x0D, 0x0F, 0x00, 0x02, 0x04, 0x06, 0x08,   /
//                          0x0A, 0x0C, 0x0D}" -DMAC_MAX_FRAME_SIZE=116       /
//                          -DZDNWKMGR_MIN_TRANSMISSIONS=20 "-DCONST=const    /
//                          __code" -DGENERIC=__generic                       /
//                          -DRFD_RCVC_ALWAYS_ON=FALSE -DPOLL_RATE=1000       /
//                          -DQUEUED_POLL_RATE=100 -DRESPONSE_POLL_RATE=100)  /
//                          -DREJOIN_POLL_RATE=440 C:\Users\yzk\Desktop\–≠“È’ /
//                          ª¡∑œ∞\Projects\zstack\Samples\SampleApp\Source\Ne /
//                          wProcessApp.c -D ZTOOL_P1 -D MT_TASK -D           /
//                          MT_SYS_FUNC -D MT_ZDO_FUNC -D                     /
//                          LCD_SUPPORTED=DEBUG -D HAL_UART=TRUE -lC          /
//                          C:\Users\yzk\Desktop\–≠“È’ª¡∑œ∞\Projects\zstack\S /
//                          amples\SampleApp\CC2530DB\p2\List\ -lA            /
//                          C:\Users\yzk\Desktop\–≠“È’ª¡∑œ∞\Projects\zstack\S /
//                          amples\SampleApp\CC2530DB\p2\List\                /
//                          --diag_suppress Pe001,Pa010 -o                    /
//                          C:\Users\yzk\Desktop\–≠“È’ª¡∑œ∞\Projects\zstack\S /
//                          amples\SampleApp\CC2530DB\p2\Obj\ -e              /
//                          --no_code_motion --debug --core=plain             /
//                          --dptr=16,1 --data_model=large                    /
//                          --code_model=banked --calling_convention=xdata_re /
//                          entrant --place_constants=data_rom                /
//                          --nr_virtual_regs 16 -I                           /
//                          C:\Users\yzk\Desktop\–≠“È’ª¡∑œ∞\Projects\zstack\S /
//                          amples\SampleApp\CC2530DB\ -I                     /
//                          C:\Users\yzk\Desktop\–≠“È’ª¡∑œ∞\Projects\zstack\S /
//                          amples\SampleApp\CC2530DB\..\Source\ -I           /
//                          C:\Users\yzk\Desktop\–≠“È’ª¡∑œ∞\Projects\zstack\S /
//                          amples\SampleApp\CC2530DB\..\..\..\ZMain\TI2530DB /
//                          \ -I C:\Users\yzk\Desktop\–≠“È’ª¡∑œ∞\Projects\zst /
//                          ack\Samples\SampleApp\CC2530DB\..\..\..\..\..\Com /
//                          ponents\hal\include\ -I                           /
//                          C:\Users\yzk\Desktop\–≠“È’ª¡∑œ∞\Projects\zstack\S /
//                          amples\SampleApp\CC2530DB\..\..\..\..\..\Componen /
//                          ts\hal\target\CC2530EB\ -I                        /
//                          C:\Users\yzk\Desktop\–≠“È’ª¡∑œ∞\Projects\zstack\S /
//                          amples\SampleApp\CC2530DB\..\..\..\..\..\Componen /
//                          ts\mac\include\ -I C:\Users\yzk\Desktop\–≠“È’ª¡∑œ /
//                          ∞\Projects\zstack\Samples\SampleApp\CC2530DB\..\. /
//                          .\..\..\..\Components\mac\high_level\ -I          /
//                          C:\Users\yzk\Desktop\–≠“È’ª¡∑œ∞\Projects\zstack\S /
//                          amples\SampleApp\CC2530DB\..\..\..\..\..\Componen /
//                          ts\mac\low_level\srf04\ -I                        /
//                          C:\Users\yzk\Desktop\–≠“È’ª¡∑œ∞\Projects\zstack\S /
//                          amples\SampleApp\CC2530DB\..\..\..\..\..\Componen /
//                          ts\mac\low_level\srf04\single_chip\ -I            /
//                          C:\Users\yzk\Desktop\–≠“È’ª¡∑œ∞\Projects\zstack\S /
//                          amples\SampleApp\CC2530DB\..\..\..\..\..\Componen /
//                          ts\mt\ -I C:\Users\yzk\Desktop\–≠“È’ª¡∑œ∞\Project /
//                          s\zstack\Samples\SampleApp\CC2530DB\..\..\..\..\. /
//                          .\Components\osal\include\ -I                     /
//                          C:\Users\yzk\Desktop\–≠“È’ª¡∑œ∞\Projects\zstack\S /
//                          amples\SampleApp\CC2530DB\..\..\..\..\..\Componen /
//                          ts\services\saddr\ -I C:\Users\yzk\Desktop\–≠“È’ª /
//                          ¡∑œ∞\Projects\zstack\Samples\SampleApp\CC2530DB\. /
//                          .\..\..\..\..\Components\services\sdata\ -I       /
//                          C:\Users\yzk\Desktop\–≠“È’ª¡∑œ∞\Projects\zstack\S /
//                          amples\SampleApp\CC2530DB\..\..\..\..\..\Componen /
//                          ts\stack\af\ -I C:\Users\yzk\Desktop\–≠“È’ª¡∑œ∞\P /
//                          rojects\zstack\Samples\SampleApp\CC2530DB\..\..\. /
//                          .\..\..\Components\stack\nwk\ -I                  /
//                          C:\Users\yzk\Desktop\–≠“È’ª¡∑œ∞\Projects\zstack\S /
//                          amples\SampleApp\CC2530DB\..\..\..\..\..\Componen /
//                          ts\stack\sapi\ -I C:\Users\yzk\Desktop\–≠“È’ª¡∑œ∞ /
//                          \Projects\zstack\Samples\SampleApp\CC2530DB\..\.. /
//                          \..\..\..\Components\stack\sec\ -I                /
//                          C:\Users\yzk\Desktop\–≠“È’ª¡∑œ∞\Projects\zstack\S /
//                          amples\SampleApp\CC2530DB\..\..\..\..\..\Componen /
//                          ts\stack\sys\ -I C:\Users\yzk\Desktop\–≠“È’ª¡∑œ∞\ /
//                          Projects\zstack\Samples\SampleApp\CC2530DB\..\..\ /
//                          ..\..\..\Components\stack\zdo\ -I                 /
//                          C:\Users\yzk\Desktop\–≠“È’ª¡∑œ∞\Projects\zstack\S /
//                          amples\SampleApp\CC2530DB\..\..\..\..\..\Componen /
//                          ts\zmac\ -I C:\Users\yzk\Desktop\–≠“È’ª¡∑œ∞\Proje /
//                          cts\zstack\Samples\SampleApp\CC2530DB\..\..\..\.. /
//                          \..\Components\zmac\f8w\ -Ohz                     /
//                          --require_prototypes                              /
//    List file          =  C:\Users\yzk\Desktop\–≠“È’ª¡∑œ∞\Projects\zstack\S /
//                          amples\SampleApp\CC2530DB\p2\List\NewProcessApp.s /
//                          51                                                /
//                                                                            /
//                                                                            /
///////////////////////////////////////////////////////////////////////////////

        NAME NewProcessApp

        RTMODEL "__SystemLibrary", "CLib"
        RTMODEL "__calling_convention", "xdata_reentrant"
        RTMODEL "__code_model", "banked"
        RTMODEL "__core", "plain"
        RTMODEL "__data_model", "large"
        RTMODEL "__dptr_size", "16"
        RTMODEL "__extended_stack", "disabled"
        RTMODEL "__location_for_constants", "data"
        RTMODEL "__number_of_dptrs", "1"
        RTMODEL "__rt_version", "1"

        RSEG DOVERLAY:DATA:NOROOT(0)
        RSEG IOVERLAY:IDATA:NOROOT(0)
        RSEG ISTACK:IDATA:NOROOT(0)
        RSEG PSTACK:XDATA:NOROOT(0)
        RSEG XSTACK:XDATA:NOROOT(0)

        EXTERN ?ALLOC_XSTACK8
        EXTERN ?BANKED_ENTER_XDATA
        EXTERN ?BANKED_LEAVE_XDATA
        EXTERN ?BDISPATCH
        EXTERN ?DEALLOC_XSTACK8
        EXTERN ?MOVE_LONG8_XDATA_XDATA
        EXTERN ?PUSH_XSTACK_I_ONE
        EXTERN ?PUSH_XSTACK_I_THREE
        EXTERN ?PUSH_XSTACK_I_TWO
        EXTERN ?V0
        EXTERN ?XSP
        EXTERN ?XSTACK_DISP0_8
        EXTERN __INIT_XDATA_Z

        PUBLIC ??NewProcessAPP_MessageMSGCB?relay
        FUNCTION ??NewProcessAPP_MessageMSGCB?relay,0203H
        PUBLIC ??NewProcessAPP_SendTheMessage?relay
        FUNCTION ??NewProcessAPP_SendTheMessage?relay,0203H
        PUBLIC ??NewProcessApp_Init?relay
        FUNCTION ??NewProcessApp_Init?relay,0203H
        PUBLIC ??NewProcessApp_ProcessEvent?relay
        FUNCTION ??NewProcessApp_ProcessEvent?relay,0203H
        PUBLIC ??rxCB?relay
        FUNCTION ??rxCB?relay,0203H
        PUBLIC NewProcessAPP_ClusterList
        PUBLIC NewProcessAPP_MessageMSGCB
        FUNCTION NewProcessAPP_MessageMSGCB,021203H
        ARGFRAME XSTACK, 12, STACK
        ARGFRAME IOVERLAY, 0, STATIC
        ARGFRAME DOVERLAY, 0, STATIC
        LOCFRAME ISTACK, 2, STACK
        LOCFRAME XSTACK, 19, STACK
        PUBLIC NewProcessAPP_SendTheMessage
        FUNCTION NewProcessAPP_SendTheMessage,021203H
        ARGFRAME XSTACK, 9, STACK
        ARGFRAME IOVERLAY, 0, STATIC
        ARGFRAME DOVERLAY, 0, STATIC
        LOCFRAME ISTACK, 2, STACK
        LOCFRAME XSTACK, 36, STACK
        PUBLIC NewProcessAPP_SimpleDesc
        PUBLIC NewProcessAPP_TaskID
        PUBLIC NewProcessAPP_TransID
        PUBLIC NewProcessAPP_epDesc
        PUBLIC NewProcessApp_Init
        FUNCTION NewProcessApp_Init,021203H
        ARGFRAME XSTACK, 0, STACK
        LOCFRAME XSTACK, 38, STACK
        PUBLIC NewProcessApp_ProcessEvent
        FUNCTION NewProcessApp_ProcessEvent,021203H
        ARGFRAME XSTACK, 0, STACK
        LOCFRAME XSTACK, 12, STACK
        PUBLIC rxCB
        FUNCTION rxCB,021603H
        ARGFRAME XSTACK, 0, STACK
        LOCFRAME XSTACK, 9, STACK
        PUBLIC uartbuf
        
        CFI Names cfiNames0
        CFI StackFrame CFA_SP SP IDATA
        CFI StackFrame CFA_PSP16 PSP16 XDATA
        CFI StackFrame CFA_XSP16 XSP16 XDATA
        CFI StaticOverlayFrame CFA_IOVERLAY IOVERLAY
        CFI StaticOverlayFrame CFA_DOVERLAY DOVERLAY
        CFI Resource `PSW.CY`:1, `B.BR0`:1, `B.BR1`:1, `B.BR2`:1, `B.BR3`:1
        CFI Resource `B.BR4`:1, `B.BR5`:1, `B.BR6`:1, `B.BR7`:1, `VB.BR8`:1
        CFI Resource `VB.BR9`:1, `VB.BR10`:1, `VB.BR11`:1, `VB.BR12`:1
        CFI Resource `VB.BR13`:1, `VB.BR14`:1, `VB.BR15`:1, VB:8, B:8, A:8
        CFI Resource PSW:8, DPL0:8, DPH0:8, R0:8, R1:8, R2:8, R3:8, R4:8, R5:8
        CFI Resource R6:8, R7:8, V0:8, V1:8, V2:8, V3:8, V4:8, V5:8, V6:8, V7:8
        CFI Resource V8:8, V9:8, V10:8, V11:8, V12:8, V13:8, V14:8, V15:8, SP:8
        CFI Resource PSPH:8, PSPL:8, PSP16:16, XSPH:8, XSPL:8, XSP16:16
        CFI VirtualResource ?RET:24
        CFI Resource ?BRET_EXT:8
        CFI VirtualResource ?RET_HIGH:8, ?RET_LOW:8
        CFI ResourceParts PSP16 PSPH, PSPL
        CFI ResourceParts XSP16 XSPH, XSPL
        CFI ResourceParts ?RET ?BRET_EXT, ?RET_HIGH, ?RET_LOW
        CFI EndNames cfiNames0
        
        CFI Common cfiCommon0 Using cfiNames0
        CFI CodeAlign 1
        CFI DataAlign -1
        CFI ReturnAddress ?RET CODE
        CFI CFA_DOVERLAY Used
        CFI CFA_IOVERLAY Used
        CFI CFA_SP SP+-3
        CFI CFA_PSP16 PSP16+0
        CFI CFA_XSP16 XSP16+0
        CFI `PSW.CY` SameValue
        CFI `B.BR0` SameValue
        CFI `B.BR1` SameValue
        CFI `B.BR2` SameValue
        CFI `B.BR3` SameValue
        CFI `B.BR4` SameValue
        CFI `B.BR5` SameValue
        CFI `B.BR6` SameValue
        CFI `B.BR7` SameValue
        CFI `VB.BR8` SameValue
        CFI `VB.BR9` SameValue
        CFI `VB.BR10` SameValue
        CFI `VB.BR11` SameValue
        CFI `VB.BR12` SameValue
        CFI `VB.BR13` SameValue
        CFI `VB.BR14` SameValue
        CFI `VB.BR15` SameValue
        CFI VB SameValue
        CFI B Undefined
        CFI A Undefined
        CFI PSW SameValue
        CFI DPL0 SameValue
        CFI DPH0 SameValue
        CFI R0 Undefined
        CFI R1 Undefined
        CFI R2 Undefined
        CFI R3 Undefined
        CFI R4 Undefined
        CFI R5 Undefined
        CFI R6 SameValue
        CFI R7 SameValue
        CFI V0 SameValue
        CFI V1 SameValue
        CFI V2 SameValue
        CFI V3 SameValue
        CFI V4 SameValue
        CFI V5 SameValue
        CFI V6 SameValue
        CFI V7 SameValue
        CFI V8 SameValue
        CFI V9 SameValue
        CFI V10 SameValue
        CFI V11 SameValue
        CFI V12 SameValue
        CFI V13 SameValue
        CFI V14 SameValue
        CFI V15 SameValue
        CFI PSPH Undefined
        CFI PSPL Undefined
        CFI XSPH Undefined
        CFI XSPL Undefined
        CFI ?RET Concat
        CFI ?BRET_EXT Frame(CFA_SP, 3)
        CFI ?RET_HIGH Frame(CFA_SP, 2)
        CFI ?RET_LOW Frame(CFA_SP, 1)
        CFI EndCommon cfiCommon0
        
afRegister          SYMBOL "afRegister"
HalUARTOpen         SYMBOL "HalUARTOpen"
osal_msg_receive    SYMBOL "osal_msg_receive"
osal_msg_deallocate SYMBOL "osal_msg_deallocate"
osal_memcpy         SYMBOL "osal_memcpy"
HalUARTWrite        SYMBOL "HalUARTWrite"
HalLedBlink         SYMBOL "HalLedBlink"
HalUARTRead         SYMBOL "HalUARTRead"
AF_DataRequest      SYMBOL "AF_DataRequest"
??AF_DataRequest?relay SYMBOL "?relay", AF_DataRequest
??HalLedBlink?relay SYMBOL "?relay", HalLedBlink
??HalUARTOpen?relay SYMBOL "?relay", HalUARTOpen
??HalUARTRead?relay SYMBOL "?relay", HalUARTRead
??HalUARTWrite?relay SYMBOL "?relay", HalUARTWrite
??afRegister?relay  SYMBOL "?relay", afRegister
??osal_memcpy?relay SYMBOL "?relay", osal_memcpy
??osal_msg_deallocate?relay SYMBOL "?relay", osal_msg_deallocate
??osal_msg_receive?relay SYMBOL "?relay", osal_msg_receive
NewProcessAPP_MessageMSGCB SYMBOL "NewProcessAPP_MessageMSGCB"
??NewProcessAPP_MessageMSGCB?relay SYMBOL "?relay", NewProcessAPP_MessageMSGCB
NewProcessAPP_SendTheMessage SYMBOL "NewProcessAPP_SendTheMessage"
??NewProcessAPP_SendTheMessage?relay SYMBOL "?relay", NewProcessAPP_SendTheMessage
NewProcessApp_Init  SYMBOL "NewProcessApp_Init"
??NewProcessApp_Init?relay SYMBOL "?relay", NewProcessApp_Init
NewProcessApp_ProcessEvent SYMBOL "NewProcessApp_ProcessEvent"
??NewProcessApp_ProcessEvent?relay SYMBOL "?relay", NewProcessApp_ProcessEvent
rxCB                SYMBOL "rxCB"
??rxCB?relay        SYMBOL "?relay", rxCB

        EXTERN afRegister
        FUNCTION afRegister,0202H
        ARGFRAME ISTACK, 0, STACK
        ARGFRAME PSTACK, 0, STACK
        ARGFRAME XSTACK, 38, STACK
        ARGFRAME IOVERLAY, 0, STATIC
        ARGFRAME DOVERLAY, 0, STATIC
        EXTERN HalUARTOpen
        FUNCTION HalUARTOpen,0202H
        ARGFRAME ISTACK, 0, STACK
        ARGFRAME PSTACK, 0, STACK
        ARGFRAME XSTACK, 38, STACK
        ARGFRAME IOVERLAY, 0, STATIC
        ARGFRAME DOVERLAY, 0, STATIC
        EXTERN osal_msg_receive
        FUNCTION osal_msg_receive,0202H
        ARGFRAME ISTACK, 0, STACK
        ARGFRAME PSTACK, 0, STACK
        ARGFRAME XSTACK, 12, STACK
        ARGFRAME IOVERLAY, 0, STATIC
        ARGFRAME DOVERLAY, 0, STATIC
        EXTERN osal_msg_deallocate
        FUNCTION osal_msg_deallocate,0202H
        ARGFRAME ISTACK, 0, STACK
        ARGFRAME PSTACK, 0, STACK
        ARGFRAME XSTACK, 12, STACK
        ARGFRAME IOVERLAY, 0, STATIC
        ARGFRAME DOVERLAY, 0, STATIC
        EXTERN osal_memcpy
        FUNCTION osal_memcpy,0202H
        ARGFRAME ISTACK, 0, STACK
        ARGFRAME PSTACK, 0, STACK
        ARGFRAME XSTACK, 19, STACK
        ARGFRAME IOVERLAY, 0, STATIC
        ARGFRAME DOVERLAY, 0, STATIC
        EXTERN HalUARTWrite
        FUNCTION HalUARTWrite,0202H
        ARGFRAME ISTACK, 0, STACK
        ARGFRAME PSTACK, 0, STACK
        ARGFRAME XSTACK, 16, STACK
        ARGFRAME IOVERLAY, 0, STATIC
        ARGFRAME DOVERLAY, 0, STATIC
        EXTERN HalLedBlink
        FUNCTION HalLedBlink,0202H
        ARGFRAME ISTACK, 0, STACK
        ARGFRAME PSTACK, 0, STACK
        ARGFRAME XSTACK, 27, STACK
        ARGFRAME IOVERLAY, 0, STATIC
        ARGFRAME DOVERLAY, 0, STATIC
        EXTERN HalUARTRead
        FUNCTION HalUARTRead,0202H
        ARGFRAME ISTACK, 0, STACK
        ARGFRAME PSTACK, 0, STACK
        ARGFRAME XSTACK, 27, STACK
        ARGFRAME IOVERLAY, 0, STATIC
        ARGFRAME DOVERLAY, 0, STATIC
        EXTERN AF_DataRequest
        FUNCTION AF_DataRequest,0202H
        ARGFRAME ISTACK, 0, STACK
        ARGFRAME PSTACK, 0, STACK
        ARGFRAME XSTACK, 36, STACK
        ARGFRAME IOVERLAY, 0, STATIC
        ARGFRAME DOVERLAY, 0, STATIC
        EXTERN ??AF_DataRequest?relay
        FUNCTION ??AF_DataRequest?relay,00H
        EXTERN ??HalLedBlink?relay
        FUNCTION ??HalLedBlink?relay,00H
        EXTERN ??HalUARTOpen?relay
        FUNCTION ??HalUARTOpen?relay,00H
        EXTERN ??HalUARTRead?relay
        FUNCTION ??HalUARTRead?relay,00H
        EXTERN ??HalUARTWrite?relay
        FUNCTION ??HalUARTWrite?relay,00H
        EXTERN ??afRegister?relay
        FUNCTION ??afRegister?relay,00H
        EXTERN ??osal_memcpy?relay
        FUNCTION ??osal_memcpy?relay,00H
        EXTERN ??osal_msg_deallocate?relay
        FUNCTION ??osal_msg_deallocate?relay,00H
        EXTERN ??osal_msg_receive?relay
        FUNCTION ??osal_msg_receive?relay,00H

// C:\Users\yzk\Desktop\–≠“È’ª¡∑œ∞\Projects\zstack\Samples\SampleApp\Source\NewProcessApp.c
//    1 #include "OSAL.h"
//    2 #include "ZGlobals.h"
//    3 #include "AF.h"
//    4 #include "ZDApp.h"
//    5 
//    6 #include "NewProcessApp.h"
//    7 
//    8 #include "OnBoard.h"
//    9 #include "hal_lcd.h"
//   10 #include "hal_led.h"
//   11 #include "hal_key.h"
//   12 #include "hal_uart.h"//ÃÌº”uart.hŒƒº˛
//   13 // ¥À¡–±Ì”¶ÃÓ–¥Ãÿ∂®”⁄”¶”√≥Ã–Úµƒ»∫ºØID.
//   14 
//   15 //#define SEND_DATA_EVENT  0X01//ÃÌº”∂® ± ± ¬º˛
//   16 
//   17 
//   18 

        RSEG XDATA_ROM_C:CONST:REORDER:NOROOT(0)
        DATA32
//   19 const cId_t NewProcessAPP_ClusterList[NEWPROCESSAPP_MAX_CLUSTERS] =
NewProcessAPP_ClusterList:
        DATA16
        DW 1
        DW 0
//   20 {
//   21   NEWPROCESSAPP_PERIODIC_CLUSTERID
//   22 };
//   23 //”√¿¥√Ë ˆ“ª∏ˆZigBee…Ë±∏Ω⁄µ„£¨≥∆Œ™ºÚµ•…Ë±∏√Ë ˆ∑˚
//   24 

        RSEG XDATA_ROM_C:CONST:REORDER:NOROOT(0)
        DATA8
//   25 const SimpleDescriptionFormat_t NewProcessAPP_SimpleDesc =
NewProcessAPP_SimpleDesc:
        DB 20
        DATA16
        DW 3848
        DW 1
        DATA8
        DB 0
        DB 2
        DATA16
        DW NewProcessAPP_ClusterList
        DATA8
        DB 0
        DATA16
        DW 0H
//   26 {
//   27   NEWPROCESSAPP_ENDPOINT,              //  int Endpoint;
//   28   NEWPROCESSAPP_PROFID,                //  uint16 AppProfId[2];
//   29   NEWPROCESSAPP_DEVICEID,              //  uint16 AppDeviceId[2];
//   30   NEWPROCESSAPP_DEVICE_VERSION,        //  int   AppDevVer:4;
//   31   NEWPROCESSAPP_FLAGS,                 //  int   AppFlags:4;
//   32   NEWPROCESSAPP_MAX_CLUSTERS,          //  uint8  AppNumInClusters;
//   33   (cId_t *)NewProcessAPP_ClusterList,  //  uint8 *pAppInClusterList;
//   34   0,           
//   35   (cId_t *)NULL    
//   36 };
//   37 

        RSEG XDATA_Z:XDATA:NOROOT(0)
        DATA8
//   38 endPointDesc_t NewProcessAPP_epDesc;  //Ω⁄µ„√Ë ˆ∑˚
NewProcessAPP_epDesc:
        DS 6
        REQUIRE __INIT_XDATA_Z

        RSEG XDATA_Z:XDATA:NOROOT(0)
        DATA8
//   39 uint8 NewProcessAPP_TaskID;           //»ŒŒÒ”≈œ»º∂
NewProcessAPP_TaskID:
        DS 1
        REQUIRE __INIT_XDATA_Z

        RSEG XDATA_Z:XDATA:NOROOT(0)
        DATA8
//   40 uint8 NewProcessAPP_TransID;          // ˝æ›∑¢ÀÕ–Ú¡–∫≈
NewProcessAPP_TransID:
        DS 1
        REQUIRE __INIT_XDATA_Z

        RSEG XDATA_Z:XDATA:NOROOT(0)
        DATA8
//   41 unsigned char uartbuf[128];           //¥Æø⁄∑¢ÀÕª∫≥Â«¯
uartbuf:
        DS 128
        REQUIRE __INIT_XDATA_Z
//   42 //******************************************************************************
//   43 void NewProcessAPP_MessageMSGCB( afIncomingMSGPacket_t *pckt );//…˘√˜œ˚œ¢¥¶¿Ì∫Ø ˝
//   44 void NewProcessAPP_SendTheMessage( void );                     // ˝æ›∑¢ÀÕ∫Ø ˝
//   45 void rxCB(uint8 port,uint8 event);                             //¥Æø⁄∑¢ÀÕ∫Ø ˝
//   46 void NewProcessAPP_key();
//   47 //******************************************************************************
//   48 
//   49 

        RSEG BANKED_CODE:CODE:NOROOT(0)
//   50 void NewProcessApp_Init( uint8 task_id )//»ŒŒÒ≥ı ºªØ∫Ø ˝
NewProcessApp_Init:
        CFI Block cfiBlock0 Using cfiCommon0
        CFI Function NewProcessApp_Init
        CODE
//   51 {
        FUNCALL NewProcessApp_Init, afRegister
        LOCFRAME ISTACK, 0, STACK
        LOCFRAME PSTACK, 0, STACK
        LOCFRAME XSTACK, 38, STACK
        LOCFRAME IOVERLAY, 0, STATIC
        LOCFRAME DOVERLAY, 0, STATIC
        ARGFRAME ISTACK, 0, STACK
        ARGFRAME PSTACK, 0, STACK
        ARGFRAME XSTACK, 38, STACK
        ARGFRAME IOVERLAY, 0, STATIC
        ARGFRAME DOVERLAY, 0, STATIC
        FUNCALL NewProcessApp_Init, HalUARTOpen
        LOCFRAME ISTACK, 0, STACK
        LOCFRAME PSTACK, 0, STACK
        LOCFRAME XSTACK, 38, STACK
        LOCFRAME IOVERLAY, 0, STATIC
        LOCFRAME DOVERLAY, 0, STATIC
        ARGFRAME ISTACK, 0, STACK
        ARGFRAME PSTACK, 0, STACK
        ARGFRAME XSTACK, 38, STACK
        ARGFRAME IOVERLAY, 0, STATIC
        ARGFRAME DOVERLAY, 0, STATIC
        MOV     A,#-0x9
        LCALL   ?BANKED_ENTER_XDATA
        CFI DPH0 load(1, XDATA, add(CFA_XSP16, literal(-1)))
        CFI DPL0 load(1, XDATA, add(CFA_XSP16, literal(-2)))
        CFI ?BRET_EXT load(1, XDATA, add(CFA_XSP16, literal(-3)))
        CFI ?RET_HIGH load(1, XDATA, add(CFA_XSP16, literal(-4)))
        CFI ?RET_LOW load(1, XDATA, add(CFA_XSP16, literal(-5)))
        CFI R7 load(1, XDATA, add(CFA_XSP16, literal(-6)))
        CFI V0 load(1, XDATA, add(CFA_XSP16, literal(-7)))
        CFI VB load(1, XDATA, add(CFA_XSP16, literal(-8)))
        CFI R6 load(1, XDATA, add(CFA_XSP16, literal(-9)))
        CFI CFA_SP SP+0
        CFI CFA_XSP16 add(XSP16, 9)
        ; Saved register size: 9
        ; Auto size: 29
        MOV     A,#-0x1d
        LCALL   ?ALLOC_XSTACK8
        CFI CFA_XSP16 add(XSP16, 38)
        MOV     A,R1
//   52   halUARTCfg_t uartConfig;                                   //*
//   53   NewProcessAPP_TaskID            = task_id;                  //≥ı ºªØ»ŒŒÒ”≈œ»º∂
        MOV     DPTR,#NewProcessAPP_TaskID
        MOVX    @DPTR,A
//   54   NewProcessAPP_TransID           = 0;                        //Ω´∑¢ÀÕ ˝æ›∞¸–Ú∫≈≥ı ºªØŒ™0
        MOV     DPTR,#NewProcessAPP_TransID
        CLR     A
        MOVX    @DPTR,A
//   55   
//   56   NewProcessAPP_epDesc.endPoint   = NEWPROCESSAPP_ENDPOINT;   //∂‘Ω⁄µ„√Ë ˆ∑˚Ω¯––≥ı ºªØ
        MOV     DPTR,#NewProcessAPP_epDesc
        MOV     A,#0x14
        MOVX    @DPTR,A
//   57   NewProcessAPP_epDesc.task_id    = &NewProcessAPP_TaskID;
        INC     DPTR
        MOV     A,#NewProcessAPP_TaskID & 0xff
        MOVX    @DPTR,A
        INC     DPTR
        MOV     A,#(NewProcessAPP_TaskID >> 8) & 0xff
        MOVX    @DPTR,A
//   58   NewProcessAPP_epDesc.simpleDesc
//   59             = (SimpleDescriptionFormat_t *)&NewProcessAPP_SimpleDesc;
        INC     DPTR
        MOV     A,#NewProcessAPP_SimpleDesc & 0xff
        MOVX    @DPTR,A
        INC     DPTR
        MOV     A,#(NewProcessAPP_SimpleDesc >> 8) & 0xff
        MOVX    @DPTR,A
//   60   NewProcessAPP_epDesc.latencyReq = noLatencyReqs;
        INC     DPTR
        CLR     A
        MOVX    @DPTR,A
//   61 
//   62   // π”√afRegister∫Ø ˝Ω´Ω⁄µ„√Ë ˆ∑˚Ω¯––◊¢≤·≤≈ø…“‘ π”√OSAL∑˛ŒÒ
//   63   afRegister( &NewProcessAPP_epDesc );
        ; Setup parameters for call to function afRegister
        MOV     R2,#NewProcessAPP_epDesc & 0xff
        MOV     R3,#(NewProcessAPP_epDesc >> 8) & 0xff
        LCALL   ??afRegister?relay
//   64   //*********************uart≈‰÷√±Ì********************//  
//   65   uartConfig.configured           = TRUE;
        MOV     DPL,?XSP + 0
        MOV     DPH,?XSP + 1
        MOV     A,#0x1
        MOVX    @DPTR,A
//   66   uartConfig.baudRate             = HAL_UART_BR_115200;
        LCALL   ?XSTACK_DISP0_8
        MOV     A,#0x4
        MOVX    @DPTR,A
//   67   uartConfig.flowControl          = FALSE;
        MOV     A,#0x2
        LCALL   ?XSTACK_DISP0_8
        CLR     A
        MOVX    @DPTR,A
//   68   uartConfig.callBackFunc         = rxCB;//Œﬁ–Ëªÿµ˜∫Ø ˝
        MOV     A,#0x1b
        LCALL   ?XSTACK_DISP0_8
        MOV     A,#??rxCB?relay & 0xff
        MOVX    @DPTR,A
        INC     DPTR
        MOV     A,#(??rxCB?relay >> 8) & 0xff
        MOVX    @DPTR,A
//   69   HalUARTOpen(0,&uartConfig);
        ; Setup parameters for call to function HalUARTOpen
        MOV     DPL,?XSP + 0
        MOV     DPH,?XSP + 1
        MOV     R2,DPL
        MOV     R3,DPH
        MOV     R1,#0x0
        LCALL   ??HalUARTOpen?relay
//   70 }
        MOV     A,#0x1d
        LCALL   ?DEALLOC_XSTACK8
        CFI EndBlock cfiBlock0
        REQUIRE ?Subroutine0
        ; // Fall through to label ?Subroutine0

        RSEG BANKED_CODE:CODE:NOROOT(0)
?Subroutine0:
        CFI Block cfiBlock1 Using cfiCommon0
        CFI NoFunction
        CFI CFA_SP SP+0
        CFI CFA_XSP16 add(XSP16, 9)
        CFI VB load(1, XDATA, add(CFA_XSP16, literal(-8)))
        CFI DPL0 load(1, XDATA, add(CFA_XSP16, literal(-2)))
        CFI DPH0 load(1, XDATA, add(CFA_XSP16, literal(-1)))
        CFI R6 load(1, XDATA, add(CFA_XSP16, literal(-9)))
        CFI R7 load(1, XDATA, add(CFA_XSP16, literal(-6)))
        CFI V0 load(1, XDATA, add(CFA_XSP16, literal(-7)))
        CFI ?BRET_EXT load(1, XDATA, add(CFA_XSP16, literal(-3)))
        CFI ?RET_HIGH load(1, XDATA, add(CFA_XSP16, literal(-4)))
        CFI ?RET_LOW load(1, XDATA, add(CFA_XSP16, literal(-5)))
        MOV     R7,#0x1
        LJMP    ?BANKED_LEAVE_XDATA
        CFI EndBlock cfiBlock1
//   71 
//   72 

        RSEG BANKED_CODE:CODE:NOROOT(0)
//   73 uint16 NewProcessApp_ProcessEvent(uint8 task_id,uint16 events)
NewProcessApp_ProcessEvent:
        CFI Block cfiBlock2 Using cfiCommon0
        CFI Function NewProcessApp_ProcessEvent
        CODE
//   74 {
        FUNCALL NewProcessApp_ProcessEvent, osal_msg_receive
        LOCFRAME ISTACK, 0, STACK
        LOCFRAME PSTACK, 0, STACK
        LOCFRAME XSTACK, 12, STACK
        LOCFRAME IOVERLAY, 0, STATIC
        LOCFRAME DOVERLAY, 0, STATIC
        ARGFRAME ISTACK, 0, STACK
        ARGFRAME PSTACK, 0, STACK
        ARGFRAME XSTACK, 12, STACK
        ARGFRAME IOVERLAY, 0, STATIC
        ARGFRAME DOVERLAY, 0, STATIC
        FUNCALL NewProcessApp_ProcessEvent, NewProcessAPP_MessageMSGCB
        LOCFRAME ISTACK, 0, STACK
        LOCFRAME PSTACK, 0, STACK
        LOCFRAME XSTACK, 12, STACK
        LOCFRAME IOVERLAY, 0, STATIC
        LOCFRAME DOVERLAY, 0, STATIC
        ARGFRAME ISTACK, 0, STACK
        ARGFRAME PSTACK, 0, STACK
        ARGFRAME XSTACK, 12, STACK
        ARGFRAME IOVERLAY, 0, STATIC
        ARGFRAME DOVERLAY, 0, STATIC
        FUNCALL NewProcessApp_ProcessEvent, osal_msg_deallocate
        LOCFRAME ISTACK, 0, STACK
        LOCFRAME PSTACK, 0, STACK
        LOCFRAME XSTACK, 12, STACK
        LOCFRAME IOVERLAY, 0, STATIC
        LOCFRAME DOVERLAY, 0, STATIC
        ARGFRAME ISTACK, 0, STACK
        ARGFRAME PSTACK, 0, STACK
        ARGFRAME XSTACK, 12, STACK
        ARGFRAME IOVERLAY, 0, STATIC
        ARGFRAME DOVERLAY, 0, STATIC
        FUNCALL NewProcessApp_ProcessEvent, osal_msg_receive
        LOCFRAME ISTACK, 0, STACK
        LOCFRAME PSTACK, 0, STACK
        LOCFRAME XSTACK, 12, STACK
        LOCFRAME IOVERLAY, 0, STATIC
        LOCFRAME DOVERLAY, 0, STATIC
        ARGFRAME ISTACK, 0, STACK
        ARGFRAME PSTACK, 0, STACK
        ARGFRAME XSTACK, 12, STACK
        ARGFRAME IOVERLAY, 0, STATIC
        ARGFRAME DOVERLAY, 0, STATIC
        MOV     A,#-0xc
        LCALL   ?BANKED_ENTER_XDATA
        CFI DPH0 load(1, XDATA, add(CFA_XSP16, literal(-1)))
        CFI DPL0 load(1, XDATA, add(CFA_XSP16, literal(-2)))
        CFI ?BRET_EXT load(1, XDATA, add(CFA_XSP16, literal(-3)))
        CFI ?RET_HIGH load(1, XDATA, add(CFA_XSP16, literal(-4)))
        CFI ?RET_LOW load(1, XDATA, add(CFA_XSP16, literal(-5)))
        CFI R7 load(1, XDATA, add(CFA_XSP16, literal(-6)))
        CFI V3 load(1, XDATA, add(CFA_XSP16, literal(-7)))
        CFI V2 load(1, XDATA, add(CFA_XSP16, literal(-8)))
        CFI V1 load(1, XDATA, add(CFA_XSP16, literal(-9)))
        CFI V0 load(1, XDATA, add(CFA_XSP16, literal(-10)))
        CFI VB load(1, XDATA, add(CFA_XSP16, literal(-11)))
        CFI R6 load(1, XDATA, add(CFA_XSP16, literal(-12)))
        CFI CFA_SP SP+0
        CFI CFA_XSP16 add(XSP16, 12)
        ; Saved register size: 12
        ; Auto size: 0
        MOV     ?V0 + 0,R2
        MOV     ?V0 + 1,R3
//   75 
//   76   afIncomingMSGPacket_t *MSGpkt;//∂®“Â“ª∏ˆ÷∏œÚΩ” ’œ˚œ¢Ω·ππÃÂµƒ÷∏’ÎMSGpkt
//   77    
//   78    if( events & SYS_EVENT_MSG)
        MOV     A,R3
        ANL     A,#0x80
        JZ      ??NewProcessApp_ProcessEvent_0
//   79    {   
//   80 /* π”√osal_msg_receive∫Ø ˝¥”œ˚œ¢∂”¡–…œΩ” ’œ˚œ¢£¨∏√œ˚œ¢÷–∞¸∫¨Ω” ’µΩŒﬁœﬂ ˝æ›∞¸
//   81 ◊º»∑Àµ «∞¸∫¨¡À÷∏œÚΩ” ’µΩµƒŒﬁœﬂ ˝æ›∞¸µƒ÷∏’Î£©*******************************/
//   82       MSGpkt = (afIncomingMSGPacket_t *)osal_msg_receive(NewProcessAPP_TaskID);
        ; Setup parameters for call to function osal_msg_receive
        SJMP    ??NewProcessApp_ProcessEvent_1
//   83       while( MSGpkt)
//   84       {
//   85         switch(MSGpkt->hdr.event)
??NewProcessApp_ProcessEvent_2:
        MOV     DPL,R6
        MOV     DPH,R7
        MOVX    A,@DPTR
        ADD     A,#-0x1a
        JZ      ??NewProcessApp_ProcessEvent_3
        ADD     A,#0x5a
        JNZ     ??NewProcessApp_ProcessEvent_4
//   86         {
//   87            case KEY_CHANGE:
//   88 	
//   89            case AF_INCOMING_MSG_CMD: //∂‘Ω” ’µΩµƒœ˚œ¢Ω¯––≈–∂œ,»Áπ˚ «Œﬁœﬂ–≈∫≈‘Úµ˜”√œ¬¡–∫Ø ˝¥¶¿Ì
//   90 	NewProcessAPP_MessageMSGCB(MSGpkt);//…˘√˜œ˚œ¢¥¶¿Ì∫Ø ˝
??NewProcessApp_ProcessEvent_3:
        ; Setup parameters for call to function NewProcessAPP_MessageMSGCB
        MOV     A,R6
        MOV     R2,A
        MOV     A,R7
        MOV     R3,A
        LCALL   ??NewProcessAPP_MessageMSGCB?relay
//   91 	break;
//   92         default:    //µ±À˘”–case x:∂º≤ª÷¥–– ±÷¥––default£∫
//   93           break;
//   94         }
//   95         osal_msg_deallocate((uint8 *)MSGpkt);//Ω” ’œ˚œ¢¥¶¿ÌÕÍ≥…£¨ Õ∑≈œ˚œ¢À˘’º”√¥Ê¥¢ø’º‰
??NewProcessApp_ProcessEvent_4:
        ; Setup parameters for call to function osal_msg_deallocate
        MOV     A,R6
        MOV     R2,A
        MOV     A,R7
        MOV     R3,A
        LCALL   ??osal_msg_deallocate?relay
//   96         MSGpkt = (afIncomingMSGPacket_t *)osal_msg_receive( NewProcessAPP_TaskID );
        ; Setup parameters for call to function osal_msg_receive
??NewProcessApp_ProcessEvent_1:
        MOV     DPTR,#NewProcessAPP_TaskID
        MOVX    A,@DPTR
        MOV     R1,A
        LCALL   ??osal_msg_receive?relay
        MOV     ?V0 + 2,R2
        MOV     ?V0 + 3,R3
        MOV     R6,?V0 + 2
        MOV     R7,?V0 + 3
//   97         //¥¶¿ÌÕÍ≥…∫Û£¨‘Ÿ π”√osal_msg_receive∫Ø ˝¥”œ˚œ¢∂”¡–…œΩ” ’œ˚œ¢
//   98       }
        MOV     A,R6
        ORL     A,R7
        JNZ     ??NewProcessApp_ProcessEvent_2
//   99       return (events ^ SYS_EVENT_MSG);
        MOV     R2,?V0 + 0
        MOV     A,?V0 + 1
        XRL     A,#0x80
        MOV     R3,A
        SJMP    ??NewProcessApp_ProcessEvent_5
//  100       
//  101       
//  102    }
//  103 //   if(events & SEND_DATA_EVENT)  //*
//  104 //      {
//  105 //      NewProcessAPP_SendTheMessage();//**…˘√˜œ˚œ¢¥¶¿Ì∫Ø ˝
//  106 //      osal_start_timerEx(NewProcessAPP_TaskID,SEND_DATA_EVENT,100);
//  107 //      return (events ^ SEND_DATA_EVENT);//*
//  108 //      }
//  109    return 0;
??NewProcessApp_ProcessEvent_0:
        MOV     R2,#0x0
        MOV     R3,#0x0
??NewProcessApp_ProcessEvent_5:
        MOV     R7,#0x4
        LJMP    ?BANKED_LEAVE_XDATA
        CFI EndBlock cfiBlock2
//  110 }
//  111 

        RSEG BANKED_CODE:CODE:NOROOT(0)
//  112 void NewProcessAPP_MessageMSGCB( afIncomingMSGPacket_t *pkt )
NewProcessAPP_MessageMSGCB:
        CFI Block cfiBlock3 Using cfiCommon0
        CFI Function NewProcessAPP_MessageMSGCB
        CODE
//  113 {
        FUNCALL NewProcessAPP_MessageMSGCB, osal_memcpy
        LOCFRAME ISTACK, 0, STACK
        LOCFRAME PSTACK, 0, STACK
        LOCFRAME XSTACK, 19, STACK
        LOCFRAME IOVERLAY, 0, STATIC
        LOCFRAME DOVERLAY, 0, STATIC
        ARGFRAME ISTACK, 0, STACK
        ARGFRAME PSTACK, 0, STACK
        ARGFRAME XSTACK, 19, STACK
        ARGFRAME IOVERLAY, 0, STATIC
        ARGFRAME DOVERLAY, 0, STATIC
        FUNCALL NewProcessAPP_MessageMSGCB, HalUARTWrite
        LOCFRAME ISTACK, 0, STACK
        LOCFRAME PSTACK, 0, STACK
        LOCFRAME XSTACK, 16, STACK
        LOCFRAME IOVERLAY, 0, STATIC
        LOCFRAME DOVERLAY, 0, STATIC
        ARGFRAME ISTACK, 0, STACK
        ARGFRAME PSTACK, 0, STACK
        ARGFRAME XSTACK, 16, STACK
        ARGFRAME IOVERLAY, 0, STATIC
        ARGFRAME DOVERLAY, 0, STATIC
        FUNCALL NewProcessAPP_MessageMSGCB, HalLedBlink
        LOCFRAME ISTACK, 0, STACK
        LOCFRAME PSTACK, 0, STACK
        LOCFRAME XSTACK, 16, STACK
        LOCFRAME IOVERLAY, 0, STATIC
        LOCFRAME DOVERLAY, 0, STATIC
        ARGFRAME ISTACK, 0, STACK
        ARGFRAME PSTACK, 0, STACK
        ARGFRAME XSTACK, 16, STACK
        ARGFRAME IOVERLAY, 0, STATIC
        ARGFRAME DOVERLAY, 0, STATIC
        MOV     A,#-0xb
        LCALL   ?BANKED_ENTER_XDATA
        CFI DPH0 load(1, XDATA, add(CFA_XSP16, literal(-1)))
        CFI DPL0 load(1, XDATA, add(CFA_XSP16, literal(-2)))
        CFI ?BRET_EXT load(1, XDATA, add(CFA_XSP16, literal(-3)))
        CFI ?RET_HIGH load(1, XDATA, add(CFA_XSP16, literal(-4)))
        CFI ?RET_LOW load(1, XDATA, add(CFA_XSP16, literal(-5)))
        CFI R7 load(1, XDATA, add(CFA_XSP16, literal(-6)))
        CFI V2 load(1, XDATA, add(CFA_XSP16, literal(-7)))
        CFI V1 load(1, XDATA, add(CFA_XSP16, literal(-8)))
        CFI V0 load(1, XDATA, add(CFA_XSP16, literal(-9)))
        CFI VB load(1, XDATA, add(CFA_XSP16, literal(-10)))
        CFI R6 load(1, XDATA, add(CFA_XSP16, literal(-11)))
        CFI CFA_SP SP+0
        CFI CFA_XSP16 add(XSP16, 11)
        ; Saved register size: 11
        ; Auto size: 5
        MOV     A,#-0x5
        LCALL   ?ALLOC_XSTACK8
        CFI CFA_XSP16 add(XSP16, 16)
//  114    unsigned char buffer[5] = "   ";
        MOV     DPL,?XSP + 0
        MOV     DPH,?XSP + 1
        MOV     R4,DPL
        MOV     R5,DPH
        MOV     DPH,#(`?<Constant "   ">` >> 8) & 0xff
        MOV     DPL,#`?<Constant "   ">` & 0xff
        MOV     A,#0x5
        LCALL   ?MOVE_LONG8_XDATA_XDATA
//  115    switch( pkt->clusterId)
        MOV     DPL,R2
        MOV     DPH,R3
        INC     DPTR
        INC     DPTR
        INC     DPTR
        INC     DPTR
        MOVX    A,@DPTR
        XRL     A,#0x1
        JNZ     ??NewProcessAPP_MessageMSGCB_0
        INC     DPTR
        MOVX    A,@DPTR
??NewProcessAPP_MessageMSGCB_0:
        JNZ     ??NewProcessAPP_MessageMSGCB_1
//  116    { 
//  117      case NEWPROCESSAPP_PERIODIC_CLUSTERID:
//  118        osal_memcpy(buffer,pkt->cmd.Data,5);//Ω´ ’µΩµƒ ˝æ›øΩ±¥µΩbuffer÷–
        ; Setup parameters for call to function osal_memcpy
        MOV     A,R2
        ADD     A,#0x22
        MOV     DPL,A
        MOV     A,R3
        ADDC    A,#0x0
        MOV     DPH,A
        MOVX    A,@DPTR
        MOV     ?V0 + 0,A
        INC     DPTR
        MOVX    A,@DPTR
        MOV     ?V0 + 1,A
        MOV     ?V0 + 2,#0x0
        MOV     R0,#?V0 + 0
        LCALL   ?PUSH_XSTACK_I_THREE
        CFI CFA_XSP16 add(XSP16, 19)
        MOV     R4,#0x5
        MOV     R5,#0x0
        MOV     A,#0x3
        LCALL   ?XSTACK_DISP0_8
        MOV     R2,DPL
        MOV     R3,DPH
        LCALL   ??osal_memcpy?relay
        MOV     A,#0x3
        LCALL   ?DEALLOC_XSTACK8
        CFI CFA_XSP16 add(XSP16, 16)
//  119        HalUARTWrite(0,buffer,5);
        ; Setup parameters for call to function HalUARTWrite
        MOV     R4,#0x5
        MOV     R5,#0x0
        MOV     DPL,?XSP + 0
        MOV     DPH,?XSP + 1
        MOV     R2,DPL
        MOV     R3,DPH
        MOV     R1,#0x0
        LCALL   ??HalUARTWrite?relay
//  120        HalLedBlink( HAL_LED_1, 1, 50, 50 );
        ; Setup parameters for call to function HalLedBlink
        MOV     R4,#0x32
        MOV     R5,#0x0
        MOV     R3,#0x32
        MOV     R2,#0x1
        MOV     R1,#0x1
        LCALL   ??HalLedBlink?relay
//  121        break;
//  122   default:
//  123     break;
//  124    }
//  125 }
??NewProcessAPP_MessageMSGCB_1:
        MOV     A,#0x5
        LCALL   ?DEALLOC_XSTACK8
        CFI CFA_XSP16 add(XSP16, 11)
        MOV     R7,#0x3
        LJMP    ?BANKED_LEAVE_XDATA
        CFI EndBlock cfiBlock3

        RSEG BANKED_CODE:CODE:NOROOT(0)
//  126 void rxCB(uint8 port,uint8 event)//*¥Æø⁄ªÿµ˜∫Ø ˝
rxCB:
        CFI Block cfiBlock4 Using cfiCommon0
        CFI Function rxCB
        CODE
//  127 {
        FUNCALL rxCB, HalLedBlink
        LOCFRAME ISTACK, 0, STACK
        LOCFRAME PSTACK, 0, STACK
        LOCFRAME XSTACK, 9, STACK
        LOCFRAME IOVERLAY, 0, STATIC
        LOCFRAME DOVERLAY, 0, STATIC
        ARGFRAME ISTACK, 0, STACK
        ARGFRAME PSTACK, 0, STACK
        ARGFRAME XSTACK, 9, STACK
        ARGFRAME IOVERLAY, 0, STATIC
        ARGFRAME DOVERLAY, 0, STATIC
        FUNCALL rxCB, NewProcessAPP_SendTheMessage
        LOCFRAME ISTACK, 0, STACK
        LOCFRAME PSTACK, 0, STACK
        LOCFRAME XSTACK, 9, STACK
        LOCFRAME IOVERLAY, 0, STATIC
        LOCFRAME DOVERLAY, 0, STATIC
        ARGFRAME ISTACK, 0, STACK
        ARGFRAME PSTACK, 0, STACK
        ARGFRAME XSTACK, 9, STACK
        ARGFRAME IOVERLAY, 0, STATIC
        ARGFRAME DOVERLAY, 0, STATIC
        MOV     A,#-0x9
        LCALL   ?BANKED_ENTER_XDATA
        CFI DPH0 load(1, XDATA, add(CFA_XSP16, literal(-1)))
        CFI DPL0 load(1, XDATA, add(CFA_XSP16, literal(-2)))
        CFI ?BRET_EXT load(1, XDATA, add(CFA_XSP16, literal(-3)))
        CFI ?RET_HIGH load(1, XDATA, add(CFA_XSP16, literal(-4)))
        CFI ?RET_LOW load(1, XDATA, add(CFA_XSP16, literal(-5)))
        CFI R7 load(1, XDATA, add(CFA_XSP16, literal(-6)))
        CFI V0 load(1, XDATA, add(CFA_XSP16, literal(-7)))
        CFI VB load(1, XDATA, add(CFA_XSP16, literal(-8)))
        CFI R6 load(1, XDATA, add(CFA_XSP16, literal(-9)))
        CFI CFA_SP SP+0
        CFI CFA_XSP16 add(XSP16, 9)
        ; Saved register size: 9
        ; Auto size: 0
        MOV     A,R2
        MOV     R6,A
//  128   
//  129   if ((event & (HAL_UART_RX_FULL | HAL_UART_RX_ABOUT_FULL | HAL_UART_RX_TIMEOUT)))
        MOV     A,#0x7
        ANL     A,R6
        JZ      ??rxCB_0
//  130    {
//  131    //HalUARTWrite(0,"Ω” ’“ª¥Œ",8);
//  132    HalLedBlink( HAL_LED_2, 1, 50, 50 );
        ; Setup parameters for call to function HalLedBlink
        MOV     R4,#0x32
        MOV     R5,#0x0
        MOV     R3,#0x32
        MOV     R2,#0x1
        MOV     R1,#0x2
        LCALL   ??HalLedBlink?relay
//  133    NewProcessAPP_SendTheMessage();
        ; Setup parameters for call to function NewProcessAPP_SendTheMessage
        LCALL   ??NewProcessAPP_SendTheMessage?relay
//  134  
//  135   }
//  136 }
??rxCB_0:
        LJMP    ?Subroutine0 & 0xFFFF
        CFI EndBlock cfiBlock4

        RSEG BANKED_CODE:CODE:NOROOT(0)
//  137 void NewProcessAPP_SendTheMessage(void)//Œﬁœﬂ∑¢ÀÕ∫Ø ˝
NewProcessAPP_SendTheMessage:
        CFI Block cfiBlock5 Using cfiCommon0
        CFI Function NewProcessAPP_SendTheMessage
        CODE
//  138 {  
        FUNCALL NewProcessAPP_SendTheMessage, HalUARTRead
        LOCFRAME ISTACK, 0, STACK
        LOCFRAME PSTACK, 0, STACK
        LOCFRAME XSTACK, 27, STACK
        LOCFRAME IOVERLAY, 0, STATIC
        LOCFRAME DOVERLAY, 0, STATIC
        ARGFRAME ISTACK, 0, STACK
        ARGFRAME PSTACK, 0, STACK
        ARGFRAME XSTACK, 27, STACK
        ARGFRAME IOVERLAY, 0, STATIC
        ARGFRAME DOVERLAY, 0, STATIC
        FUNCALL NewProcessAPP_SendTheMessage, HalLedBlink
        LOCFRAME ISTACK, 0, STACK
        LOCFRAME PSTACK, 0, STACK
        LOCFRAME XSTACK, 27, STACK
        LOCFRAME IOVERLAY, 0, STATIC
        LOCFRAME DOVERLAY, 0, STATIC
        ARGFRAME ISTACK, 0, STACK
        ARGFRAME PSTACK, 0, STACK
        ARGFRAME XSTACK, 27, STACK
        ARGFRAME IOVERLAY, 0, STATIC
        ARGFRAME DOVERLAY, 0, STATIC
        FUNCALL NewProcessAPP_SendTheMessage, AF_DataRequest
        LOCFRAME ISTACK, 0, STACK
        LOCFRAME PSTACK, 0, STACK
        LOCFRAME XSTACK, 36, STACK
        LOCFRAME IOVERLAY, 0, STATIC
        LOCFRAME DOVERLAY, 0, STATIC
        ARGFRAME ISTACK, 0, STACK
        ARGFRAME PSTACK, 0, STACK
        ARGFRAME XSTACK, 36, STACK
        ARGFRAME IOVERLAY, 0, STATIC
        ARGFRAME DOVERLAY, 0, STATIC
        FUNCALL NewProcessAPP_SendTheMessage, HalLedBlink
        LOCFRAME ISTACK, 0, STACK
        LOCFRAME PSTACK, 0, STACK
        LOCFRAME XSTACK, 27, STACK
        LOCFRAME IOVERLAY, 0, STATIC
        LOCFRAME DOVERLAY, 0, STATIC
        ARGFRAME ISTACK, 0, STACK
        ARGFRAME PSTACK, 0, STACK
        ARGFRAME XSTACK, 27, STACK
        ARGFRAME IOVERLAY, 0, STATIC
        ARGFRAME DOVERLAY, 0, STATIC
        MOV     A,#-0xa
        LCALL   ?BANKED_ENTER_XDATA
        CFI DPH0 load(1, XDATA, add(CFA_XSP16, literal(-1)))
        CFI DPL0 load(1, XDATA, add(CFA_XSP16, literal(-2)))
        CFI ?BRET_EXT load(1, XDATA, add(CFA_XSP16, literal(-3)))
        CFI ?RET_HIGH load(1, XDATA, add(CFA_XSP16, literal(-4)))
        CFI ?RET_LOW load(1, XDATA, add(CFA_XSP16, literal(-5)))
        CFI R7 load(1, XDATA, add(CFA_XSP16, literal(-6)))
        CFI V1 load(1, XDATA, add(CFA_XSP16, literal(-7)))
        CFI V0 load(1, XDATA, add(CFA_XSP16, literal(-8)))
        CFI VB load(1, XDATA, add(CFA_XSP16, literal(-9)))
        CFI R6 load(1, XDATA, add(CFA_XSP16, literal(-10)))
        CFI CFA_SP SP+0
        CFI CFA_XSP16 add(XSP16, 10)
        ; Saved register size: 10
        ; Auto size: 17
        MOV     A,#-0x11
        LCALL   ?ALLOC_XSTACK8
        CFI CFA_XSP16 add(XSP16, 27)
//  139   
//  140    unsigned char theMessageData[5] = "     ";
        MOV     DPL,?XSP + 0
        MOV     DPH,?XSP + 1
        MOV     R4,DPL
        MOV     R5,DPH
        MOV     DPH,#(`?<Constant "     ">` >> 8) & 0xff
        MOV     DPL,#`?<Constant "     ">` & 0xff
        MOV     A,#0x5
        LCALL   ?MOVE_LONG8_XDATA_XDATA
//  141    HalUARTRead(0,theMessageData,5);
        ; Setup parameters for call to function HalUARTRead
        MOV     R4,#0x5
        MOV     R5,A
        MOV     DPL,?XSP + 0
        MOV     DPH,?XSP + 1
        MOV     R2,DPL
        MOV     R3,DPH
        MOV     R1,A
        LCALL   ??HalUARTRead?relay
//  142    HalLedBlink(HAL_LED_2,3,50,50);
        ; Setup parameters for call to function HalLedBlink
        MOV     R4,#0x32
        MOV     R5,#0x0
        MOV     R3,#0x32
        MOV     R2,#0x3
        MOV     R1,#0x2
        LCALL   ??HalLedBlink?relay
//  143    
//  144    afAddrType_t my_DstAddr;
//  145    my_DstAddr.addrMode = (afAddrMode_t)AddrBroadcast;//≥ı ºªØŒ™π„≤•
        MOV     A,#0xd
        LCALL   ?XSTACK_DISP0_8
        MOV     A,#0xf
        MOVX    @DPTR,A
//  146    my_DstAddr.endPoint = NEWPROCESSAPP_ENDPOINT;//≥ı ºªØ∂Àø⁄∫≈
        DEC     A
        LCALL   ?XSTACK_DISP0_8
        MOV     A,#0x14
        MOVX    @DPTR,A
//  147    my_DstAddr.addr.shortAddr = 0xFFFF;//∑¢ÀÕ ˝æ›
        MOV     A,#0x5
        LCALL   ?XSTACK_DISP0_8
        MOV     A,#-0x1
        MOVX    @DPTR,A
        INC     DPTR
        MOVX    @DPTR,A
//  148    
//  149    AF_DataRequest(&my_DstAddr,//∞¸∫¨¡ÀƒøµƒΩ⁄µ„µƒÕ¯¬Áµÿ÷∑º∞∑¢ÀÕ ˝æ›∏Ò Ω£¨»Áπ„≤•£¨µ•≤•£¨∂‡≤•
//  150 	     &NewProcessAPP_epDesc,//÷∏∂®Ω⁄µ„µƒ∑¢ÀÕ∂Àø⁄∫≈
//  151 	     NEWPROCESSAPP_PERIODIC_CLUSTERID,//√¸¡Ó∫≈
//  152 	     5,//∑¢ÀÕ ˝æ›¥Û–°
//  153 	     theMessageData,// ˝æ›ª∫¥Ê
//  154 	     &NewProcessAPP_TransID,//÷∏œÚ∑¢ÀÕ÷∏’Î£¨√ø∑¢ÀÕ“ª¥Œº”“ª
//  155 	     AF_DISCV_ROUTE, 
//  156 	     AF_DEFAULT_RADIUS);
        ; Setup parameters for call to function AF_DataRequest
        MOV     ?V0 + 0,#0x1e
        MOV     R0,#?V0 + 0
        LCALL   ?PUSH_XSTACK_I_ONE
        CFI CFA_XSP16 add(XSP16, 28)
        MOV     ?V0 + 0,#NewProcessAPP_TransID & 0xff
        MOV     ?V0 + 1,#(NewProcessAPP_TransID >> 8) & 0xff
        MOV     R0,#?V0 + 0
        LCALL   ?PUSH_XSTACK_I_TWO
        CFI CFA_XSP16 add(XSP16, 30)
        MOV     A,#0x3
        LCALL   ?XSTACK_DISP0_8
        MOV     ?V0 + 0,DPL
        MOV     ?V0 + 1,DPH
        MOV     R0,#?V0 + 0
        LCALL   ?PUSH_XSTACK_I_TWO
        CFI CFA_XSP16 add(XSP16, 32)
        MOV     ?V0 + 0,#0x5
        MOV     ?V0 + 1,#0x0
        MOV     R0,#?V0 + 0
        LCALL   ?PUSH_XSTACK_I_TWO
        CFI CFA_XSP16 add(XSP16, 34)
        MOV     ?V0 + 0,#0x1
        MOV     R0,#?V0 + 0
        LCALL   ?PUSH_XSTACK_I_TWO
        CFI CFA_XSP16 add(XSP16, 36)
        MOV     R1,#0x20
        MOV     R4,#NewProcessAPP_epDesc & 0xff
        MOV     R5,#(NewProcessAPP_epDesc >> 8) & 0xff
        MOV     A,#0xe
        LCALL   ?XSTACK_DISP0_8
        MOV     R2,DPL
        MOV     R3,DPH
        LCALL   ??AF_DataRequest?relay
        MOV     A,#0x9
        LCALL   ?DEALLOC_XSTACK8
        CFI CFA_XSP16 add(XSP16, 27)
//  157    
//  158                   HalLedBlink(HAL_LED_2,3,50,50);
        ; Setup parameters for call to function HalLedBlink
        MOV     R4,#0x32
        MOV     R5,#0x0
        MOV     R3,#0x32
        MOV     R2,#0x3
        MOV     R1,#0x2
        LCALL   ??HalLedBlink?relay
//  159                  //HalLedBlink(HAL_LED_2,0,50,500);
//  160 	   
//  161     
//  162 }
        MOV     A,#0x11
        LCALL   ?DEALLOC_XSTACK8
        CFI CFA_XSP16 add(XSP16, 10)
        MOV     R7,#0x2
        LJMP    ?BANKED_LEAVE_XDATA
        CFI EndBlock cfiBlock5

        RSEG BANK_RELAYS:CODE:REORDER:NOROOT(0)
??NewProcessApp_Init?relay:
        LCALL   ?BDISPATCH
        DATA
        DC24    NewProcessApp_Init

        RSEG BANK_RELAYS:CODE:REORDER:NOROOT(0)
??NewProcessApp_ProcessEvent?relay:
        LCALL   ?BDISPATCH
        DATA
        DC24    NewProcessApp_ProcessEvent

        RSEG BANK_RELAYS:CODE:REORDER:NOROOT(0)
??NewProcessAPP_MessageMSGCB?relay:
        LCALL   ?BDISPATCH
        DATA
        DC24    NewProcessAPP_MessageMSGCB

        RSEG BANK_RELAYS:CODE:REORDER:NOROOT(0)
??rxCB?relay:
        LCALL   ?BDISPATCH
        DATA
        DC24    rxCB

        RSEG BANK_RELAYS:CODE:REORDER:NOROOT(0)
??NewProcessAPP_SendTheMessage?relay:
        LCALL   ?BDISPATCH
        DATA
        DC24    NewProcessAPP_SendTheMessage

        RSEG XDATA_ROM_C:CONST:REORDER:NOROOT(0)
        DATA8
`?<Constant "   ">`:
        DB "   "
        DB 0

        RSEG XDATA_ROM_C:CONST:REORDER:NOROOT(0)
        DATA8
`?<Constant "     ">`:
        DB 20H, 20H, 20H, 20H, 20H

        END
//  163 
//  164 
//  165 
//  166 
//  167 
//  168 
// 
// 545 bytes in segment BANKED_CODE
//  30 bytes in segment BANK_RELAYS
//  26 bytes in segment XDATA_ROM_C
// 136 bytes in segment XDATA_Z
// 
// 575 bytes of CODE  memory
//  26 bytes of CONST memory
// 136 bytes of XDATA memory
//
//Errors: none
//Warnings: none
