///////////////////////////////////////////////////////////////////////////////
//
// IAR C/C++ Compiler V10.30.1.6000 for 8051              31/Oct/2019  00:32:57
// Copyright 2004-2018 IAR Systems AB.
// PC-locked license - IAR Embedded Workbench for 8051
//
//    Core               =  plain
//    Code model         =  banked
//    Data model         =  large
//    Calling convention =  xdata reentrant
//    Constant location  =  data_rom
//    Dptr setup         =  1,16
//                          
//    Source file        =  
//        C:\Users\hhhho\Desktop\Z-Stack1.2.2a-spp-v001-AD\Components\stack\zdo\ZDSecMgr.c
//    Command line       =  
//        -f C:\Users\hhhho\AppData\Local\Temp\EW6F50.tmp
//        (C:\Users\hhhho\Desktop\Z-Stack1.2.2a-spp-v001-AD\Components\stack\zdo\ZDSecMgr.c
//        -D ZTOOL_P1 -D SECURE=1 -D xNV_INIT -D xNV_RESTORE -D
//        LCD_SUPPORTED=FALSE -D MULTICAST_ENABLED=FALSE -D
//        FEATURE_SYSTEM_STATS -lC
//        C:\Users\hhhho\Desktop\Z-Stack1.2.2a-spp-v001-AD\Projects\zstack\Prj\SampleApp\CC2530DB\CoordinatorEB\List
//        -lA
//        C:\Users\hhhho\Desktop\Z-Stack1.2.2a-spp-v001-AD\Projects\zstack\Prj\SampleApp\CC2530DB\CoordinatorEB\List
//        --diag_suppress Pe001,Pa010 -o
//        C:\Users\hhhho\Desktop\Z-Stack1.2.2a-spp-v001-AD\Projects\zstack\Prj\SampleApp\CC2530DB\CoordinatorEB\Obj
//        -e --debug --core=plain --dptr=16,1 --data_model=large
//        --code_model=banked --calling_convention=xdata_reentrant
//        --place_constants=data_rom --nr_virtual_regs 16 -f
//        C:\Users\hhhho\Desktop\Z-Stack1.2.2a-spp-v001-AD\Projects\zstack\Prj\SampleApp\CC2530DB\..\..\..\Tools\CC2530DB\f8wCoord.cfg
//        (-DCPU32MHZ -DROOT=__near_func -DMAC_CFG_APP_PENDING_QUEUE=TRUE
//        -DMAC_CFG_TX_DATA_MAX=5 -DMAC_CFG_TX_MAX=8 -DMAC_CFG_RX_MAX=5
//        -DZDO_COORDINATOR -DRTR_NWK) -f
//        C:\Users\hhhho\Desktop\Z-Stack1.2.2a-spp-v001-AD\Projects\zstack\Prj\SampleApp\CC2530DB\..\..\..\Tools\CC2530DB\f8wConfig.cfg
//        (-DZIGBEEPRO -DSECURE=1 -DZG_SECURE_DYNAMIC=0 -DREFLECTOR
//        -DDEFAULT_CHANLIST=0x00000800 -DZDAPP_CONFIG_PAN_ID=0xFFFF
//        -DNWK_START_DELAY=100 -DEXTENDED_JOINING_RANDOM_MASK=0x007F
//        -DBEACON_REQUEST_DELAY=100 -DBEACON_REQ_DELAY_MASK=0x00FF
//        -DLINK_STATUS_JITTER_MASK=0x007F -DROUTE_EXPIRY_TIME=30
//        -DAPSC_ACK_WAIT_DURATION_POLLED=3000 -DNWK_INDIRECT_MSG_TIMEOUT=7
//        -DMAX_RREQ_ENTRIES=8 -DAPSC_MAX_FRAME_RETRIES=3
//        -DNWK_MAX_DATA_RETRIES=2 -DMAX_POLL_FAILURE_RETRIES=2 -DMAX_BCAST=9
//        -DAPS_MAX_GROUPS=16 -DMAX_RTG_ENTRIES=40 -DNWK_MAX_BINDING_ENTRIES=4
//        -DMAX_BINDING_CLUSTER_IDS=4 "-DDEFAULT_KEY={0x01, 0x03, 0x05, 0x07,
//        0x09, 0x0B, 0x0D, 0x0F, 0x00, 0x02, 0x04, 0x06, 0x08, 0x0A, 0x0C,
//        0x0D}" -DMAC_MAX_FRAME_SIZE=116 -DZDNWKMGR_MIN_TRANSMISSIONS=20
//        "-DCONST=const __code" -DGENERIC=__generic -DRFD_RCVC_ALWAYS_ON=FALSE
//        -DPOLL_RATE=1000 -DQUEUED_POLL_RATE=100 -DRESPONSE_POLL_RATE=100
//        -DREJOIN_POLL_RATE=440 -DREJOIN_BACKOFF=900000 -DREJOIN_SCAN=900000)
//        -f
//        C:\Users\hhhho\Desktop\Z-Stack1.2.2a-spp-v001-AD\Projects\zstack\Prj\SampleApp\CC2530DB\..\..\..\Tools\CC2530DB\f8wZCL.cfg
//        -I
//        C:\Users\hhhho\Desktop\Z-Stack1.2.2a-spp-v001-AD\Projects\zstack\Prj\SampleApp\CC2530DB\
//        -I
//        C:\Users\hhhho\Desktop\Z-Stack1.2.2a-spp-v001-AD\Projects\zstack\Prj\SampleApp\CC2530DB\..\Source\
//        -I
//        C:\Users\hhhho\Desktop\Z-Stack1.2.2a-spp-v001-AD\Projects\zstack\Prj\SampleApp\CC2530DB\..\..\Source\
//        -I
//        C:\Users\hhhho\Desktop\Z-Stack1.2.2a-spp-v001-AD\Projects\zstack\Prj\SampleApp\CC2530DB\..\..\..\ZMain\TI2530DB\
//        -I
//        C:\Users\hhhho\Desktop\Z-Stack1.2.2a-spp-v001-AD\Projects\zstack\Prj\SampleApp\CC2530DB\..\..\..\..\..\Components\hal\include\
//        -I
//        C:\Users\hhhho\Desktop\Z-Stack1.2.2a-spp-v001-AD\Projects\zstack\Prj\SampleApp\CC2530DB\..\..\..\..\..\Components\hal\target\CC2530EB\
//        -I
//        C:\Users\hhhho\Desktop\Z-Stack1.2.2a-spp-v001-AD\Projects\zstack\Prj\SampleApp\CC2530DB\..\..\..\..\..\Components\mac\include\
//        -I
//        C:\Users\hhhho\Desktop\Z-Stack1.2.2a-spp-v001-AD\Projects\zstack\Prj\SampleApp\CC2530DB\..\..\..\..\..\Components\mac\high_level\
//        -I
//        C:\Users\hhhho\Desktop\Z-Stack1.2.2a-spp-v001-AD\Projects\zstack\Prj\SampleApp\CC2530DB\..\..\..\..\..\Components\mac\low_level\srf04\
//        -I
//        C:\Users\hhhho\Desktop\Z-Stack1.2.2a-spp-v001-AD\Projects\zstack\Prj\SampleApp\CC2530DB\..\..\..\..\..\Components\mac\low_level\srf04\single_chip\
//        -I
//        C:\Users\hhhho\Desktop\Z-Stack1.2.2a-spp-v001-AD\Projects\zstack\Prj\SampleApp\CC2530DB\..\..\..\..\..\Components\mt\
//        -I
//        C:\Users\hhhho\Desktop\Z-Stack1.2.2a-spp-v001-AD\Projects\zstack\Prj\SampleApp\CC2530DB\..\..\..\..\..\Components\osal\include\
//        -I
//        C:\Users\hhhho\Desktop\Z-Stack1.2.2a-spp-v001-AD\Projects\zstack\Prj\SampleApp\CC2530DB\..\..\..\..\..\Components\services\saddr\
//        -I
//        C:\Users\hhhho\Desktop\Z-Stack1.2.2a-spp-v001-AD\Projects\zstack\Prj\SampleApp\CC2530DB\..\..\..\..\..\Components\services\sdata\
//        -I
//        C:\Users\hhhho\Desktop\Z-Stack1.2.2a-spp-v001-AD\Projects\zstack\Prj\SampleApp\CC2530DB\..\..\..\..\..\Components\stack\af\
//        -I
//        C:\Users\hhhho\Desktop\Z-Stack1.2.2a-spp-v001-AD\Projects\zstack\Prj\SampleApp\CC2530DB\..\..\..\..\..\Components\stack\nwk\
//        -I
//        C:\Users\hhhho\Desktop\Z-Stack1.2.2a-spp-v001-AD\Projects\zstack\Prj\SampleApp\CC2530DB\..\..\..\..\..\Components\stack\sapi\
//        -I
//        C:\Users\hhhho\Desktop\Z-Stack1.2.2a-spp-v001-AD\Projects\zstack\Prj\SampleApp\CC2530DB\..\..\..\..\..\Components\stack\sec\
//        -I
//        C:\Users\hhhho\Desktop\Z-Stack1.2.2a-spp-v001-AD\Projects\zstack\Prj\SampleApp\CC2530DB\..\..\..\..\..\Components\stack\sys\
//        -I
//        C:\Users\hhhho\Desktop\Z-Stack1.2.2a-spp-v001-AD\Projects\zstack\Prj\SampleApp\CC2530DB\..\..\..\..\..\Components\stack\zcl\
//        -I
//        C:\Users\hhhho\Desktop\Z-Stack1.2.2a-spp-v001-AD\Projects\zstack\Prj\SampleApp\CC2530DB\..\..\..\..\..\Components\stack\zdo\
//        -I
//        C:\Users\hhhho\Desktop\Z-Stack1.2.2a-spp-v001-AD\Projects\zstack\Prj\SampleApp\CC2530DB\..\..\..\..\..\Components\zmac\
//        -I
//        C:\Users\hhhho\Desktop\Z-Stack1.2.2a-spp-v001-AD\Projects\zstack\Prj\SampleApp\CC2530DB\..\..\..\..\..\Components\zmac\f8w\
//        -Ohz --require_prototypes)
//    Locale             =  Chinese (Simplified)_CHN.936
//    List file          =  
//        C:\Users\hhhho\Desktop\Z-Stack1.2.2a-spp-v001-AD\Projects\zstack\Prj\SampleApp\CC2530DB\CoordinatorEB\List\ZDSecMgr.s51
//
///////////////////////////////////////////////////////////////////////////////

        NAME ZDSecMgr

        RTMODEL "__SystemLibrary", "CLib"
        RTMODEL "__calling_convention", "xdata_reentrant"
        RTMODEL "__code_model", "banked"
        RTMODEL "__core", "plain"
        RTMODEL "__data_model", "large"
        RTMODEL "__dptr_size", "16"
        RTMODEL "__extended_stack", "disabled"
        RTMODEL "__location_for_constants", "data"
        RTMODEL "__number_of_dptrs", "1"
        RTMODEL "__register_banks", "*"
        RTMODEL "__rt_version", "1"

        RSEG DOVERLAY:DATA:NOROOT(0)
        RSEG IOVERLAY:IDATA:NOROOT(0)
        RSEG ISTACK:IDATA:NOROOT(0)
        RSEG PSTACK:XDATA:NOROOT(0)
        RSEG XSTACK:XDATA:NOROOT(0)

        EXTERN ?V0
        EXTERN ?V1
        EXTERN ?V2
        EXTERN ?V3
        EXTERN ?V4
        EXTERN ?V5
        EXTERN ?V6
        EXTERN ?V7
        EXTERN ?V8
        EXTERN ?V9
        EXTERN ?ALLOC_XSTACK8
        EXTERN ?BANKED_ENTER_XDATA
        EXTERN ?BANKED_LEAVE_XDATA
        EXTERN ?BDISPATCH
        EXTERN ?BRET
        EXTERN ?CALL_IND
        EXTERN ?DEALLOC_XSTACK8
        EXTERN ?L_ADD_TO_X
        EXTERN ?L_ADD_X
        EXTERN ?L_MOV_TO_X
        EXTERN ?L_MOV_X
        EXTERN ?MOVE_LONG8_XDATA_XDATA
        EXTERN ?PUSH_XSTACK8_X_TWO
        EXTERN ?PUSH_XSTACK_I_THREE
        EXTERN ?PUSH_XSTACK_I_TWO
        EXTERN ?UL_GE_X
        EXTERN ?XLOAD_R0123
        EXTERN ?XSP
        EXTERN ?XSTACK_DISP0_8
        EXTERN ?XSTACK_DISP100_8
        EXTERN ?XSTACK_DISP101_8
        EXTERN ?XSTACK_DISP102_8
        EXTERN ?XSTORE_R0123
        EXTERN __INIT_XDATA_I
        EXTERN __INIT_XDATA_Z

        PUBLIC `??APSME_IsDefaultTCLK::?relay`
        FUNCTION `??APSME_IsDefaultTCLK::?relay`,0203H
        PUBLIC `??APSME_IsLinkKeyValid::?relay`
        FUNCTION `??APSME_IsLinkKeyValid::?relay`,0203H
        PUBLIC `??APSME_KeyFwdToChild::?relay`
        FUNCTION `??APSME_KeyFwdToChild::?relay`,0203H
        PUBLIC `??APSME_LinkKeyNVIdGet::?relay`
        FUNCTION `??APSME_LinkKeyNVIdGet::?relay`,0203H
        PUBLIC `??APSME_LinkKeySet::?relay`
        FUNCTION `??APSME_LinkKeySet::?relay`,0203H
        PUBLIC `??APSME_TCLinkKeyInit::?relay`
        FUNCTION `??APSME_TCLinkKeyInit::?relay`,0203H
        PUBLIC `??APSME_TCLinkKeyLoad::?relay`
        FUNCTION `??APSME_TCLinkKeyLoad::?relay`,0203H
        PUBLIC `??APSME_TCLinkKeySync::?relay`
        FUNCTION `??APSME_TCLinkKeySync::?relay`,0203H
        PUBLIC `??ZDSecMgrAPSRemove::?relay`
        FUNCTION `??ZDSecMgrAPSRemove::?relay`,0203H
        PUBLIC `??ZDSecMgrAddLinkKey::?relay`
        FUNCTION `??ZDSecMgrAddLinkKey::?relay`,0203H
        PUBLIC `??ZDSecMgrAddrClear::?relay`
        FUNCTION `??ZDSecMgrAddrClear::?relay`,0203H
        PUBLIC `??ZDSecMgrAddrStore::?relay`
        FUNCTION `??ZDSecMgrAddrStore::?relay`,0203H
        PUBLIC `??ZDSecMgrAppKeyGet::?relay`
        FUNCTION `??ZDSecMgrAppKeyGet::?relay`,0203H
        PUBLIC `??ZDSecMgrAppKeyReq::?relay`
        FUNCTION `??ZDSecMgrAppKeyReq::?relay`,0203H
        PUBLIC `??ZDSecMgrAppKeyTypeSet::?relay`
        FUNCTION `??ZDSecMgrAppKeyTypeSet::?relay`,0203H
        PUBLIC `??ZDSecMgrApsLinkKeyInit::?relay`
        FUNCTION `??ZDSecMgrApsLinkKeyInit::?relay`,0203H
        PUBLIC `??ZDSecMgrAssocDeviceAuth::?relay`
        FUNCTION `??ZDSecMgrAssocDeviceAuth::?relay`,0203H
        PUBLIC `??ZDSecMgrAuthNwkKey::?relay`
        FUNCTION `??ZDSecMgrAuthNwkKey::?relay`,0203H
        PUBLIC `??ZDSecMgrAuthenticationCheck::?relay`
        FUNCTION `??ZDSecMgrAuthenticationCheck::?relay`,0203H
        PUBLIC `??ZDSecMgrAuthenticationSet::?relay`
        FUNCTION `??ZDSecMgrAuthenticationSet::?relay`,0203H
        PUBLIC `??ZDSecMgrConfig::?relay`
        FUNCTION `??ZDSecMgrConfig::?relay`,0203H
        PUBLIC `??ZDSecMgrDeviceJoin::?relay`
        FUNCTION `??ZDSecMgrDeviceJoin::?relay`,0203H
        PUBLIC `??ZDSecMgrDeviceJoinDirect::?relay`
        FUNCTION `??ZDSecMgrDeviceJoinDirect::?relay`,0203H
        PUBLIC `??ZDSecMgrDeviceJoinFwd::?relay`
        FUNCTION `??ZDSecMgrDeviceJoinFwd::?relay`,0203H
        PUBLIC `??ZDSecMgrDeviceNew::?relay`
        FUNCTION `??ZDSecMgrDeviceNew::?relay`,0203H
        PUBLIC `??ZDSecMgrDeviceRemove::?relay`
        FUNCTION `??ZDSecMgrDeviceRemove::?relay`,0203H
        PUBLIC `??ZDSecMgrDeviceRemoveByExtAddr::?relay`
        FUNCTION `??ZDSecMgrDeviceRemoveByExtAddr::?relay`,0203H
        PUBLIC `??ZDSecMgrDeviceValidate::?relay`
        FUNCTION `??ZDSecMgrDeviceValidate::?relay`,0203H
        PUBLIC `??ZDSecMgrDeviceValidateRM::?relay`
        FUNCTION `??ZDSecMgrDeviceValidateRM::?relay`,0203H
        PUBLIC `??ZDSecMgrEntryFree::?relay`
        FUNCTION `??ZDSecMgrEntryFree::?relay`,0203H
        PUBLIC `??ZDSecMgrEntryInit::?relay`
        FUNCTION `??ZDSecMgrEntryInit::?relay`,0203H
        PUBLIC `??ZDSecMgrEntryLookup::?relay`
        FUNCTION `??ZDSecMgrEntryLookup::?relay`,0203H
        PUBLIC `??ZDSecMgrEntryLookupAMI::?relay`
        FUNCTION `??ZDSecMgrEntryLookupAMI::?relay`,0203H
        PUBLIC `??ZDSecMgrEntryLookupAMIGetIndex::?relay`
        FUNCTION `??ZDSecMgrEntryLookupAMIGetIndex::?relay`,0203H
        PUBLIC `??ZDSecMgrEntryLookupExt::?relay`
        FUNCTION `??ZDSecMgrEntryLookupExt::?relay`,0203H
        PUBLIC `??ZDSecMgrEntryLookupExtGetIndex::?relay`
        FUNCTION `??ZDSecMgrEntryLookupExtGetIndex::?relay`,0203H
        PUBLIC `??ZDSecMgrEntryNew::?relay`
        FUNCTION `??ZDSecMgrEntryNew::?relay`,0203H
        PUBLIC `??ZDSecMgrExtAddrLookup::?relay`
        FUNCTION `??ZDSecMgrExtAddrLookup::?relay`,0203H
        PUBLIC `??ZDSecMgrExtAddrStore::?relay`
        FUNCTION `??ZDSecMgrExtAddrStore::?relay`,0203H
        PUBLIC `??ZDSecMgrInit::?relay`
        FUNCTION `??ZDSecMgrInit::?relay`,0203H
        PUBLIC `??ZDSecMgrInitNV::?relay`
        FUNCTION `??ZDSecMgrInitNV::?relay`,0203H
        PUBLIC `??ZDSecMgrInitNVKeyTables::?relay`
        FUNCTION `??ZDSecMgrInitNVKeyTables::?relay`,0203H
        PUBLIC `??ZDSecMgrNewDeviceEvent::?relay`
        FUNCTION `??ZDSecMgrNewDeviceEvent::?relay`,0203H
        PUBLIC `??ZDSecMgrNwkKeyInit::?relay`
        FUNCTION `??ZDSecMgrNwkKeyInit::?relay`,0203H
        PUBLIC `??ZDSecMgrPermitJoining::?relay`
        FUNCTION `??ZDSecMgrPermitJoining::?relay`,0203H
        PUBLIC `??ZDSecMgrPermitJoiningTimeout::?relay`
        FUNCTION `??ZDSecMgrPermitJoiningTimeout::?relay`,0203H
        PUBLIC `??ZDSecMgrReadKeyFromNv::?relay`
        FUNCTION `??ZDSecMgrReadKeyFromNv::?relay`,0203H
        PUBLIC `??ZDSecMgrRemoveDeviceInd::?relay`
        FUNCTION `??ZDSecMgrRemoveDeviceInd::?relay`,0203H
        PUBLIC `??ZDSecMgrRequestAppKey::?relay`
        FUNCTION `??ZDSecMgrRequestAppKey::?relay`,0203H
        PUBLIC `??ZDSecMgrRequestKeyInd::?relay`
        FUNCTION `??ZDSecMgrRequestKeyInd::?relay`,0203H
        PUBLIC `??ZDSecMgrSaveApsLinkKey::?relay`
        FUNCTION `??ZDSecMgrSaveApsLinkKey::?relay`,0203H
        PUBLIC `??ZDSecMgrSaveTCLinkKey::?relay`
        FUNCTION `??ZDSecMgrSaveTCLinkKey::?relay`,0203H
        PUBLIC `??ZDSecMgrSendNwkKey::?relay`
        FUNCTION `??ZDSecMgrSendNwkKey::?relay`,0203H
        PUBLIC `??ZDSecMgrSetDefaultNV::?relay`
        FUNCTION `??ZDSecMgrSetDefaultNV::?relay`,0203H
        PUBLIC `??ZDSecMgrSwitchKeyInd::?relay`
        FUNCTION `??ZDSecMgrSwitchKeyInd::?relay`,0203H
        PUBLIC `??ZDSecMgrSwitchNwkKey::?relay`
        FUNCTION `??ZDSecMgrSwitchNwkKey::?relay`,0203H
        PUBLIC `??ZDSecMgrTCDataLoad::?relay`
        FUNCTION `??ZDSecMgrTCDataLoad::?relay`,0203H
        PUBLIC `??ZDSecMgrTCExtAddrCheck::?relay`
        FUNCTION `??ZDSecMgrTCExtAddrCheck::?relay`,0203H
        PUBLIC `??ZDSecMgrTransportKeyInd::?relay`
        FUNCTION `??ZDSecMgrTransportKeyInd::?relay`,0203H
        PUBLIC `??ZDSecMgrUpdateDeviceInd::?relay`
        FUNCTION `??ZDSecMgrUpdateDeviceInd::?relay`,0203H
        PUBLIC `??ZDSecMgrUpdateNwkKey::?relay`
        FUNCTION `??ZDSecMgrUpdateNwkKey::?relay`,0203H
        PUBLIC `??ZDSecMgrUpdateTCAddress::?relay`
        FUNCTION `??ZDSecMgrUpdateTCAddress::?relay`,0203H
        PUBLIC APSME_IsDefaultTCLK
        FUNCTION APSME_IsDefaultTCLK,021203H
        ARGFRAME XSTACK, 59, STACK
        ARGFRAME IOVERLAY, 0, STATIC
        ARGFRAME DOVERLAY, 0, STATIC
        LOCFRAME ISTACK, 2, STACK
        PUBLIC APSME_IsLinkKeyValid
        FUNCTION APSME_IsLinkKeyValid,0a1203H
        ARGFRAME XSTACK, 0, STACK
        LOCFRAME XSTACK, 37, STACK
        PUBLIC APSME_KeyFwdToChild
        FUNCTION APSME_KeyFwdToChild,0a1203H
        ARGFRAME XSTACK, 0, STACK
        LOCFRAME XSTACK, 10, STACK
        PUBLIC APSME_LinkKeyNVIdGet
        FUNCTION APSME_LinkKeyNVIdGet,021203H
        ARGFRAME XSTACK, 33, STACK
        ARGFRAME IOVERLAY, 0, STATIC
        ARGFRAME DOVERLAY, 0, STATIC
        LOCFRAME XSTACK, 11, STACK
        PUBLIC APSME_LinkKeySet
        FUNCTION APSME_LinkKeySet,0a1203H
        ARGFRAME XSTACK, 14, STACK
        ARGFRAME IOVERLAY, 0, STATIC
        ARGFRAME DOVERLAY, 0, STATIC
        LOCFRAME XSTACK, 23, STACK
        PUBLIC APSME_TCLinkKeyInit
        FUNCTION APSME_TCLinkKeyInit,0a1203H
        ARGFRAME XSTACK, 9, STACK
        ARGFRAME IOVERLAY, 0, STATIC
        ARGFRAME DOVERLAY, 0, STATIC
        LOCFRAME XSTACK, 47, STACK
        PUBLIC APSME_TCLinkKeyLoad
        FUNCTION APSME_TCLinkKeyLoad,0a1203H
        ARGFRAME XSTACK, 0, STACK
        LOCFRAME XSTACK, 63, STACK
        PUBLIC APSME_TCLinkKeySync
        FUNCTION APSME_TCLinkKeySync,0a1203H
        ARGFRAME XSTACK, 0, STACK
        LOCFRAME XSTACK, 52, STACK
        PUBLIC ApsLinkKeyFrmCntr
        PUBLIC TCLinkKeyFrmCntr
        PUBLIC TrustCenterLinkKey
        PUBLIC ZDSecMgrAPSRemove
        FUNCTION ZDSecMgrAPSRemove,021203H
        ARGFRAME XSTACK, 2, STACK
        LOCFRAME ISTACK, 2, STACK
        LOCFRAME XSTACK, 8, STACK
        PUBLIC ZDSecMgrAddLinkKey
        FUNCTION ZDSecMgrAddLinkKey,0a1203H
        ARGFRAME XSTACK, 2, STACK
        LOCFRAME XSTACK, 16, STACK
        PUBLIC ZDSecMgrAddrClear
        FUNCTION ZDSecMgrAddrClear,021203H
        ARGFRAME XSTACK, 33, STACK
        ARGFRAME IOVERLAY, 0, STATIC
        ARGFRAME DOVERLAY, 0, STATIC
        LOCFRAME XSTACK, 24, STACK
        PUBLIC ZDSecMgrAddrStore
        FUNCTION ZDSecMgrAddrStore,021203H
        ARGFRAME XSTACK, 32, STACK
        ARGFRAME IOVERLAY, 0, STATIC
        ARGFRAME DOVERLAY, 0, STATIC
        LOCFRAME XSTACK, 22, STACK
        PUBLIC ZDSecMgrAppKeyGet
        FUNCTION ZDSecMgrAppKeyGet,021203H
        ARGFRAME XSTACK, 59, STACK
        ARGFRAME IOVERLAY, 0, STATIC
        ARGFRAME DOVERLAY, 0, STATIC
        LOCFRAME ISTACK, 3, STACK
        PUBLIC ZDSecMgrAppKeyReq
        FUNCTION ZDSecMgrAppKeyReq,0a1203H
        ARGFRAME XSTACK, 0, STACK
        ARGFRAME IOVERLAY, 0, STATIC
        ARGFRAME DOVERLAY, 0, STATIC
        LOCFRAME XSTACK, 59, STACK
        PUBLIC ZDSecMgrAppKeyType
        PUBLIC ZDSecMgrAppKeyTypeSet
        FUNCTION ZDSecMgrAppKeyTypeSet,0203H
        ARGFRAME XSTACK, 0, STACK
        LOCFRAME ISTACK, 2, STACK
        PUBLIC ZDSecMgrApsLinkKeyInit
        FUNCTION ZDSecMgrApsLinkKeyInit,0a1203H
        ARGFRAME XSTACK, 9, STACK
        ARGFRAME IOVERLAY, 0, STATIC
        ARGFRAME DOVERLAY, 0, STATIC
        LOCFRAME XSTACK, 40, STACK
        PUBLIC ZDSecMgrAssocDeviceAuth
        FUNCTION ZDSecMgrAssocDeviceAuth,0203H
        ARGFRAME XSTACK, 33, STACK
        ARGFRAME IOVERLAY, 0, STATIC
        ARGFRAME DOVERLAY, 0, STATIC
        LOCFRAME ISTACK, 2, STACK
        PUBLIC ZDSecMgrAuthNwkKey
        FUNCTION ZDSecMgrAuthNwkKey,021203H
        ARGFRAME XSTACK, 26, STACK
        ARGFRAME IOVERLAY, 0, STATIC
        ARGFRAME DOVERLAY, 0, STATIC
        LOCFRAME ISTACK, 2, STACK
        PUBLIC ZDSecMgrAuthenticationCheck
        FUNCTION ZDSecMgrAuthenticationCheck,0203H
        ARGFRAME XSTACK, 0, STACK
        PUBLIC ZDSecMgrAuthenticationSet
        FUNCTION ZDSecMgrAuthenticationSet,021203H
        ARGFRAME XSTACK, 0, STACK
        LOCFRAME ISTACK, 1, STACK
        LOCFRAME XSTACK, 11, STACK
        PUBLIC ZDSecMgrConfig
        FUNCTION ZDSecMgrConfig,021203H
        ARGFRAME XSTACK, 0, STACK
        LOCFRAME ISTACK, 2, STACK
        PUBLIC ZDSecMgrDeviceJoin
        FUNCTION ZDSecMgrDeviceJoin,0a1203H
        ARGFRAME XSTACK, 9, STACK
        ARGFRAME IOVERLAY, 0, STATIC
        ARGFRAME DOVERLAY, 0, STATIC
        LOCFRAME XSTACK, 33, STACK
        PUBLIC ZDSecMgrDeviceJoinDirect
        FUNCTION ZDSecMgrDeviceJoinDirect,0a1203H
        ARGFRAME XSTACK, 0, STACK
        ARGFRAME IOVERLAY, 0, STATIC
        ARGFRAME DOVERLAY, 0, STATIC
        LOCFRAME XSTACK, 9, STACK
        PUBLIC ZDSecMgrDeviceJoinFwd
        FUNCTION ZDSecMgrDeviceJoinFwd,0a1203H
        ARGFRAME XSTACK, 0, STACK
        LOCFRAME XSTACK, 18, STACK
        PUBLIC ZDSecMgrDeviceNew
        FUNCTION ZDSecMgrDeviceNew,021203H
        ARGFRAME XSTACK, 33, STACK
        ARGFRAME IOVERLAY, 0, STATIC
        ARGFRAME DOVERLAY, 0, STATIC
        LOCFRAME ISTACK, 2, STACK
        PUBLIC ZDSecMgrDeviceRemove
        FUNCTION ZDSecMgrDeviceRemove,0a1203H
        ARGFRAME XSTACK, 30, STACK
        ARGFRAME IOVERLAY, 0, STATIC
        ARGFRAME DOVERLAY, 0, STATIC
        LOCFRAME XSTACK, 20, STACK
        PUBLIC ZDSecMgrDeviceRemoveByExtAddr
        FUNCTION ZDSecMgrDeviceRemoveByExtAddr,021203H
        ARGFRAME XSTACK, 0, STACK
        LOCFRAME XSTACK, 11, STACK
        PUBLIC ZDSecMgrDeviceValidate
        FUNCTION ZDSecMgrDeviceValidate,021203H
        ARGFRAME XSTACK, 30, STACK
        ARGFRAME IOVERLAY, 0, STATIC
        ARGFRAME DOVERLAY, 0, STATIC
        LOCFRAME ISTACK, 2, STACK
        PUBLIC ZDSecMgrDeviceValidateRM
        FUNCTION ZDSecMgrDeviceValidateRM,0203H
        ARGFRAME XSTACK, 0, STACK
        ARGFRAME IOVERLAY, 0, STATIC
        ARGFRAME DOVERLAY, 0, STATIC
        LOCFRAME ISTACK, 2, STACK
        PUBLIC ZDSecMgrEntries
        PUBLIC ZDSecMgrEntryFree
        FUNCTION ZDSecMgrEntryFree,0a1203H
        ARGFRAME XSTACK, 11, STACK
        ARGFRAME IOVERLAY, 0, STATIC
        ARGFRAME DOVERLAY, 0, STATIC
        LOCFRAME XSTACK, 18, STACK
        PUBLIC ZDSecMgrEntryInit
        FUNCTION ZDSecMgrEntryInit,021203H
        ARGFRAME XSTACK, 0, STACK
        LOCFRAME ISTACK, 2, STACK
        PUBLIC ZDSecMgrEntryLookup
        FUNCTION ZDSecMgrEntryLookup,0a1203H
        ARGFRAME XSTACK, 0, STACK
        LOCFRAME XSTACK, 22, STACK
        PUBLIC ZDSecMgrEntryLookupAMI
        FUNCTION ZDSecMgrEntryLookupAMI,080203H
        ARGFRAME XSTACK, 14, STACK
        ARGFRAME IOVERLAY, 0, STATIC
        ARGFRAME DOVERLAY, 0, STATIC
        LOCFRAME XSTACK, 9, STACK
        PUBLIC ZDSecMgrEntryLookupAMIGetIndex
        FUNCTION ZDSecMgrEntryLookupAMIGetIndex,080203H
        ARGFRAME XSTACK, 0, STACK
        LOCFRAME XSTACK, 9, STACK
        PUBLIC ZDSecMgrEntryLookupExt
        FUNCTION ZDSecMgrEntryLookupExt,0a1203H
        ARGFRAME XSTACK, 11, STACK
        ARGFRAME IOVERLAY, 0, STATIC
        ARGFRAME DOVERLAY, 0, STATIC
        LOCFRAME XSTACK, 11, STACK
        PUBLIC ZDSecMgrEntryLookupExtGetIndex
        FUNCTION ZDSecMgrEntryLookupExtGetIndex,021203H
        ARGFRAME XSTACK, 21, STACK
        ARGFRAME IOVERLAY, 0, STATIC
        ARGFRAME DOVERLAY, 0, STATIC
        LOCFRAME XSTACK, 11, STACK
        PUBLIC ZDSecMgrEntryNew
        FUNCTION ZDSecMgrEntryNew,080203H
        ARGFRAME XSTACK, 14, STACK
        ARGFRAME IOVERLAY, 0, STATIC
        ARGFRAME DOVERLAY, 0, STATIC
        LOCFRAME XSTACK, 9, STACK
        PUBLIC ZDSecMgrExtAddrLookup
        FUNCTION ZDSecMgrExtAddrLookup,021203H
        ARGFRAME XSTACK, 24, STACK
        ARGFRAME IOVERLAY, 0, STATIC
        ARGFRAME DOVERLAY, 0, STATIC
        LOCFRAME XSTACK, 22, STACK
        PUBLIC ZDSecMgrExtAddrStore
        FUNCTION ZDSecMgrExtAddrStore,021203H
        ARGFRAME XSTACK, 2, STACK
        LOCFRAME XSTACK, 22, STACK
        PUBLIC ZDSecMgrInit
        FUNCTION ZDSecMgrInit,021203H
        ARGFRAME XSTACK, 0, STACK
        LOCFRAME ISTACK, 2, STACK
        PUBLIC ZDSecMgrInitNV
        FUNCTION ZDSecMgrInitNV,0a1203H
        ARGFRAME XSTACK, 0, STACK
        LOCFRAME XSTACK, 16, STACK
        PUBLIC ZDSecMgrInitNVKeyTables
        FUNCTION ZDSecMgrInitNVKeyTables,021203H
        ARGFRAME XSTACK, 0, STACK
        LOCFRAME XSTACK, 9, STACK
        PUBLIC ZDSecMgrNewDeviceEvent
        FUNCTION ZDSecMgrNewDeviceEvent,0a1203H
        ARGFRAME XSTACK, 0, STACK
        LOCFRAME ISTACK, 1, STACK
        LOCFRAME XSTACK, 33, STACK
        PUBLIC ZDSecMgrNwkKeyInit
        FUNCTION ZDSecMgrNwkKeyInit,0a1203H
        ARGFRAME XSTACK, 9, STACK
        ARGFRAME IOVERLAY, 0, STATIC
        ARGFRAME DOVERLAY, 0, STATIC
        LOCFRAME XSTACK, 52, STACK
        PUBLIC ZDSecMgrPermitJoining
        FUNCTION ZDSecMgrPermitJoining,0203H
        ARGFRAME XSTACK, 0, STACK
        LOCFRAME ISTACK, 2, STACK
        PUBLIC ZDSecMgrPermitJoiningEnabled
        PUBLIC ZDSecMgrPermitJoiningTimed
        PUBLIC ZDSecMgrPermitJoiningTimeout
        FUNCTION ZDSecMgrPermitJoiningTimeout,0203H
        ARGFRAME XSTACK, 0, STACK
        LOCFRAME ISTACK, 2, STACK
        PUBLIC ZDSecMgrReadKeyFromNv
        FUNCTION ZDSecMgrReadKeyFromNv,0a1203H
        ARGFRAME XSTACK, 26, STACK
        ARGFRAME IOVERLAY, 0, STATIC
        ARGFRAME DOVERLAY, 0, STATIC
        LOCFRAME XSTACK, 14, STACK
        PUBLIC ZDSecMgrRemoveDeviceInd
        FUNCTION ZDSecMgrRemoveDeviceInd,021203H
        ARGFRAME XSTACK, 0, STACK
        LOCFRAME XSTACK, 17, STACK
        PUBLIC ZDSecMgrRequestAppKey
        FUNCTION ZDSecMgrRequestAppKey,021203H
        ARGFRAME XSTACK, 0, STACK
        LOCFRAME ISTACK, 2, STACK
        LOCFRAME XSTACK, 4, STACK
        PUBLIC ZDSecMgrRequestKeyInd
        FUNCTION ZDSecMgrRequestKeyInd,021203H
        ARGFRAME XSTACK, 0, STACK
        LOCFRAME ISTACK, 2, STACK
        PUBLIC ZDSecMgrSaveApsLinkKey
        FUNCTION ZDSecMgrSaveApsLinkKey,0a1203H
        ARGFRAME XSTACK, 0, STACK
        LOCFRAME XSTACK, 22, STACK
        PUBLIC ZDSecMgrSaveTCLinkKey
        FUNCTION ZDSecMgrSaveTCLinkKey,0a1203H
        ARGFRAME XSTACK, 0, STACK
        LOCFRAME XSTACK, 16, STACK
        PUBLIC ZDSecMgrSendNwkKey
        FUNCTION ZDSecMgrSendNwkKey,0a1203H
        ARGFRAME XSTACK, 30, STACK
        ARGFRAME IOVERLAY, 0, STATIC
        ARGFRAME DOVERLAY, 0, STATIC
        LOCFRAME ISTACK, 1, STACK
        LOCFRAME XSTACK, 44, STACK
        PUBLIC ZDSecMgrSetDefaultNV
        FUNCTION ZDSecMgrSetDefaultNV,0a1203H
        ARGFRAME XSTACK, 0, STACK
        LOCFRAME XSTACK, 23, STACK
        PUBLIC ZDSecMgrSwitchKeyInd
        FUNCTION ZDSecMgrSwitchKeyInd,021203H
        ARGFRAME XSTACK, 0, STACK
        LOCFRAME ISTACK, 2, STACK
        PUBLIC ZDSecMgrSwitchNwkKey
        FUNCTION ZDSecMgrSwitchNwkKey,021203H
        ARGFRAME XSTACK, 0, STACK
        LOCFRAME ISTACK, 1, STACK
        LOCFRAME XSTACK, 13, STACK
        PUBLIC ZDSecMgrTCAuthenticated
        PUBLIC ZDSecMgrTCDataLoad
        FUNCTION ZDSecMgrTCDataLoad,0a1203H
        ARGFRAME XSTACK, 26, STACK
        ARGFRAME IOVERLAY, 0, STATIC
        ARGFRAME DOVERLAY, 0, STATIC
        LOCFRAME XSTACK, 27, STACK
        PUBLIC ZDSecMgrTCExtAddr
        PUBLIC ZDSecMgrTCExtAddrCheck
        FUNCTION ZDSecMgrTCExtAddrCheck,021203H
        ARGFRAME XSTACK, 0, STACK
        LOCFRAME XSTACK, 17, STACK
        PUBLIC ZDSecMgrTransportKeyInd
        FUNCTION ZDSecMgrTransportKeyInd,0a1203H
        ARGFRAME XSTACK, 0, STACK
        LOCFRAME XSTACK, 26, STACK
        PUBLIC ZDSecMgrUpdateDeviceInd
        FUNCTION ZDSecMgrUpdateDeviceInd,021203H
        ARGFRAME XSTACK, 0, STACK
        LOCFRAME ISTACK, 2, STACK
        LOCFRAME XSTACK, 8, STACK
        PUBLIC ZDSecMgrUpdateNwkKey
        FUNCTION ZDSecMgrUpdateNwkKey,0a1203H
        ARGFRAME XSTACK, 0, STACK
        LOCFRAME ISTACK, 1, STACK
        LOCFRAME XSTACK, 23, STACK
        PUBLIC ZDSecMgrUpdateTCAddress
        FUNCTION ZDSecMgrUpdateTCAddress,0a1203H
        ARGFRAME XSTACK, 26, STACK
        ARGFRAME IOVERLAY, 0, STATIC
        ARGFRAME DOVERLAY, 0, STATIC
        LOCFRAME XSTACK, 18, STACK
        PUBWEAK __Constant_1
        
          CFI Names cfiNames0
          CFI StackFrame CFA_SP SP IDATA
          CFI StackFrame CFA_PSP16 PSP16 XDATA
          CFI StackFrame CFA_XSP16 XSP16 XDATA
          CFI StaticOverlayFrame CFA_IOVERLAY IOVERLAY
          CFI StaticOverlayFrame CFA_DOVERLAY DOVERLAY
          CFI Resource `PSW.CY`:1, `B.BR0`:1, `B.BR1`:1, `B.BR2`:1, `B.BR3`:1
          CFI Resource `B.BR4`:1, `B.BR5`:1, `B.BR6`:1, `B.BR7`:1, `VB.BR8`:1
          CFI Resource `VB.BR9`:1, `VB.BR10`:1, `VB.BR11`:1, `VB.BR12`:1
          CFI Resource `VB.BR13`:1, `VB.BR14`:1, `VB.BR15`:1, VB:8, B:8, A:8
          CFI Resource PSW:8, DPL0:8, DPH0:8, R0:8, R1:8, R2:8, R3:8, R4:8, R5:8
          CFI Resource R6:8, R7:8, V0:8, V1:8, V2:8, V3:8, V4:8, V5:8, V6:8, V7:8
          CFI Resource V8:8, V9:8, V10:8, V11:8, V12:8, V13:8, V14:8, V15:8, SP:8
          CFI Resource PSPH:8, PSPL:8, PSP16:16, XSPH:8, XSPL:8, XSP16:16
          CFI VirtualResource ?RET:24
          CFI Resource ?BRET_EXT:8
          CFI VirtualResource ?RET_HIGH:8, ?RET_LOW:8
          CFI ResourceParts PSP16 PSPH, PSPL
          CFI ResourceParts XSP16 XSPH, XSPL
          CFI ResourceParts ?RET ?BRET_EXT, ?RET_HIGH, ?RET_LOW
          CFI EndNames cfiNames0
        
          CFI Common cfiCommon0 Using cfiNames0
          CFI CodeAlign 1
          CFI DataAlign -1
          CFI ReturnAddress ?RET CODE
          CFI CFA_DOVERLAY Used
          CFI CFA_IOVERLAY Used
          CFI CFA_SP SP+-3
          CFI CFA_PSP16 PSP16+0
          CFI CFA_XSP16 XSP16+0
          CFI `PSW.CY` SameValue
          CFI `B.BR0` SameValue
          CFI `B.BR1` SameValue
          CFI `B.BR2` SameValue
          CFI `B.BR3` SameValue
          CFI `B.BR4` SameValue
          CFI `B.BR5` SameValue
          CFI `B.BR6` SameValue
          CFI `B.BR7` SameValue
          CFI `VB.BR8` SameValue
          CFI `VB.BR9` SameValue
          CFI `VB.BR10` SameValue
          CFI `VB.BR11` SameValue
          CFI `VB.BR12` SameValue
          CFI `VB.BR13` SameValue
          CFI `VB.BR14` SameValue
          CFI `VB.BR15` SameValue
          CFI VB SameValue
          CFI B Undefined
          CFI A Undefined
          CFI PSW SameValue
          CFI DPL0 SameValue
          CFI DPH0 SameValue
          CFI R0 Undefined
          CFI R1 Undefined
          CFI R2 Undefined
          CFI R3 Undefined
          CFI R4 Undefined
          CFI R5 Undefined
          CFI R6 SameValue
          CFI R7 SameValue
          CFI V0 SameValue
          CFI V1 SameValue
          CFI V2 SameValue
          CFI V3 SameValue
          CFI V4 SameValue
          CFI V5 SameValue
          CFI V6 SameValue
          CFI V7 SameValue
          CFI V8 SameValue
          CFI V9 SameValue
          CFI V10 SameValue
          CFI V11 SameValue
          CFI V12 SameValue
          CFI V13 SameValue
          CFI V14 SameValue
          CFI V15 SameValue
          CFI PSPH Undefined
          CFI PSPL Undefined
          CFI XSPH Undefined
          CFI XSPL Undefined
          CFI ?RET Concat
          CFI ?BRET_EXT Frame(CFA_SP, 3)
          CFI ?RET_HIGH Frame(CFA_SP, 2)
          CFI ?RET_LOW Frame(CFA_SP, 1)
          CFI EndCommon cfiCommon0
        
        
          CFI Common cfiCommon1 Using cfiNames0
          CFI CodeAlign 1
          CFI DataAlign -1
          CFI ReturnAddress ?RET CODE
          CFI CFA_DOVERLAY Used
          CFI CFA_IOVERLAY Used
          CFI CFA_SP SP+-2
          CFI CFA_PSP16 PSP16+0
          CFI CFA_XSP16 XSP16+0
          CFI `PSW.CY` SameValue
          CFI `B.BR0` SameValue
          CFI `B.BR1` SameValue
          CFI `B.BR2` SameValue
          CFI `B.BR3` SameValue
          CFI `B.BR4` SameValue
          CFI `B.BR5` SameValue
          CFI `B.BR6` SameValue
          CFI `B.BR7` SameValue
          CFI `VB.BR8` SameValue
          CFI `VB.BR9` SameValue
          CFI `VB.BR10` SameValue
          CFI `VB.BR11` SameValue
          CFI `VB.BR12` SameValue
          CFI `VB.BR13` SameValue
          CFI `VB.BR14` SameValue
          CFI `VB.BR15` SameValue
          CFI VB SameValue
          CFI B SameValue
          CFI A SameValue
          CFI PSW SameValue
          CFI DPL0 SameValue
          CFI DPH0 SameValue
          CFI R0 SameValue
          CFI R1 SameValue
          CFI R2 SameValue
          CFI R3 SameValue
          CFI R4 SameValue
          CFI R5 SameValue
          CFI R6 SameValue
          CFI R7 SameValue
          CFI V0 SameValue
          CFI V1 SameValue
          CFI V2 SameValue
          CFI V3 SameValue
          CFI V4 SameValue
          CFI V5 SameValue
          CFI V6 SameValue
          CFI V7 SameValue
          CFI V8 SameValue
          CFI V9 SameValue
          CFI V10 SameValue
          CFI V11 SameValue
          CFI V12 SameValue
          CFI V13 SameValue
          CFI V14 SameValue
          CFI V15 SameValue
          CFI PSPH Undefined
          CFI PSPL Undefined
          CFI XSPH Undefined
          CFI XSPL Undefined
          CFI ?RET Concat
          CFI ?BRET_EXT SameValue
          CFI ?RET_HIGH Frame(CFA_SP, 2)
          CFI ?RET_LOW Frame(CFA_SP, 1)
          CFI EndCommon cfiCommon1
        
APSME_GetRequest    SYMBOL "APSME_GetRequest"
`??APSME_GetRequest::?relay` SYMBOL "?relay", APSME_GetRequest
APSME_IsDistributedSecurity SYMBOL "APSME_IsDistributedSecurity"
`??APSME_IsDistributedSecurity::?relay` SYMBOL "?relay", APSME_IsDistributedSecurity
APSME_LookupExtAddr SYMBOL "APSME_LookupExtAddr"
`??APSME_LookupExtAddr::?relay` SYMBOL "?relay", APSME_LookupExtAddr
APSME_LookupNwkAddr SYMBOL "APSME_LookupNwkAddr"
`??APSME_LookupNwkAddr::?relay` SYMBOL "?relay", APSME_LookupNwkAddr
APSME_RemoveDeviceReq SYMBOL "APSME_RemoveDeviceReq"
`??APSME_RemoveDeviceReq::?relay` SYMBOL "?relay", APSME_RemoveDeviceReq
APSME_RequestKeyReq SYMBOL "APSME_RequestKeyReq"
`??APSME_RequestKeyReq::?relay` SYMBOL "?relay", APSME_RequestKeyReq
APSME_SecurityRM_CD SYMBOL "APSME_SecurityRM_CD"
`??APSME_SecurityRM_CD::?relay` SYMBOL "?relay", APSME_SecurityRM_CD
APSME_SetRequest    SYMBOL "APSME_SetRequest"
`??APSME_SetRequest::?relay` SYMBOL "?relay", APSME_SetRequest
APSME_SwitchKeyReq  SYMBOL "APSME_SwitchKeyReq"
`??APSME_SwitchKeyReq::?relay` SYMBOL "?relay", APSME_SwitchKeyReq
APSME_TransportKeyReq SYMBOL "APSME_TransportKeyReq"
`??APSME_TransportKeyReq::?relay` SYMBOL "?relay", APSME_TransportKeyReq
APSME_UpdateDeviceReq SYMBOL "APSME_UpdateDeviceReq"
`??APSME_UpdateDeviceReq::?relay` SYMBOL "?relay", APSME_UpdateDeviceReq
AddrMgrEntryGet     SYMBOL "AddrMgrEntryGet"
`??AddrMgrEntryGet::?relay` SYMBOL "?relay", AddrMgrEntryGet
AddrMgrEntryLookupExt SYMBOL "AddrMgrEntryLookupExt"
`??AddrMgrEntryLookupExt::?relay` SYMBOL "?relay", AddrMgrEntryLookupExt
AddrMgrEntryLookupNwk SYMBOL "AddrMgrEntryLookupNwk"
`??AddrMgrEntryLookupNwk::?relay` SYMBOL "?relay", AddrMgrEntryLookupNwk
AddrMgrEntryRelease SYMBOL "AddrMgrEntryRelease"
`??AddrMgrEntryRelease::?relay` SYMBOL "?relay", AddrMgrEntryRelease
AddrMgrEntryUpdate  SYMBOL "AddrMgrEntryUpdate"
`??AddrMgrEntryUpdate::?relay` SYMBOL "?relay", AddrMgrEntryUpdate
AddrMgrExtAddrEqual SYMBOL "AddrMgrExtAddrEqual"
`??AddrMgrExtAddrEqual::?relay` SYMBOL "?relay", AddrMgrExtAddrEqual
AddrMgrExtAddrSet   SYMBOL "AddrMgrExtAddrSet"
`??AddrMgrExtAddrSet::?relay` SYMBOL "?relay", AddrMgrExtAddrSet
AddrMgrExtAddrValid SYMBOL "AddrMgrExtAddrValid"
`??AddrMgrExtAddrValid::?relay` SYMBOL "?relay", AddrMgrExtAddrValid
AssocGetWithExt     SYMBOL "AssocGetWithExt"
`??AssocGetWithExt::?relay` SYMBOL "?relay", AssocGetWithExt
AssocGetWithShort   SYMBOL "AssocGetWithShort"
`??AssocGetWithShort::?relay` SYMBOL "?relay", AssocGetWithShort
AssocRemove         SYMBOL "AssocRemove"
`??AssocRemove::?relay` SYMBOL "?relay", AssocRemove
NLME_GetShortAddr   SYMBOL "NLME_GetShortAddr"
`??NLME_GetShortAddr::?relay` SYMBOL "?relay", NLME_GetShortAddr
NLME_LeaveReq       SYMBOL "NLME_LeaveReq"
`??NLME_LeaveReq::?relay` SYMBOL "?relay", NLME_LeaveReq
NLME_ReadNwkKeyInfo SYMBOL "NLME_ReadNwkKeyInfo"
`??NLME_ReadNwkKeyInfo::?relay` SYMBOL "?relay", NLME_ReadNwkKeyInfo
SSP_GetTrueRand     SYMBOL "SSP_GetTrueRand"
`??SSP_GetTrueRand::?relay` SYMBOL "?relay", SSP_GetTrueRand
SSP_Init            SYMBOL "SSP_Init"
`??SSP_Init::?relay` SYMBOL "?relay", SSP_Init
SSP_SwitchNwkKey    SYMBOL "SSP_SwitchNwkKey"
`??SSP_SwitchNwkKey::?relay` SYMBOL "?relay", SSP_SwitchNwkKey
SSP_UpdateNwkKey    SYMBOL "SSP_UpdateNwkKey"
`??SSP_UpdateNwkKey::?relay` SYMBOL "?relay", SSP_UpdateNwkKey
ZDApp_NVUpdate      SYMBOL "ZDApp_NVUpdate"
`??ZDApp_NVUpdate::?relay` SYMBOL "?relay", ZDApp_NVUpdate
osal_isbufset       SYMBOL "osal_isbufset"
`??osal_isbufset::?relay` SYMBOL "?relay", osal_isbufset
osal_mem_alloc      SYMBOL "osal_mem_alloc"
`??osal_mem_alloc::?relay` SYMBOL "?relay", osal_mem_alloc
osal_mem_free       SYMBOL "osal_mem_free"
`??osal_mem_free::?relay` SYMBOL "?relay", osal_mem_free
osal_memcmp         SYMBOL "osal_memcmp"
`??osal_memcmp::?relay` SYMBOL "?relay", osal_memcmp
osal_memcpy         SYMBOL "osal_memcpy"
`??osal_memcpy::?relay` SYMBOL "?relay", osal_memcpy
osal_memset         SYMBOL "osal_memset"
`??osal_memset::?relay` SYMBOL "?relay", osal_memset
osal_nv_item_init   SYMBOL "osal_nv_item_init"
`??osal_nv_item_init::?relay` SYMBOL "?relay", osal_nv_item_init
osal_nv_read        SYMBOL "osal_nv_read"
`??osal_nv_read::?relay` SYMBOL "?relay", osal_nv_read
osal_nv_write       SYMBOL "osal_nv_write"
`??osal_nv_write::?relay` SYMBOL "?relay", osal_nv_write
osal_set_event      SYMBOL "osal_set_event"
`??osal_set_event::?relay` SYMBOL "?relay", osal_set_event
sAddrExtCmp         SYMBOL "sAddrExtCmp"
`??sAddrExtCmp::?relay` SYMBOL "?relay", sAddrExtCmp
sAddrExtCpy         SYMBOL "sAddrExtCpy"
`??sAddrExtCpy::?relay` SYMBOL "?relay", sAddrExtCpy
APSME_IsDefaultTCLK SYMBOL "APSME_IsDefaultTCLK"
`??APSME_IsDefaultTCLK::?relay` SYMBOL "?relay", APSME_IsDefaultTCLK
APSME_IsLinkKeyValid SYMBOL "APSME_IsLinkKeyValid"
`??APSME_IsLinkKeyValid::?relay` SYMBOL "?relay", APSME_IsLinkKeyValid
APSME_KeyFwdToChild SYMBOL "APSME_KeyFwdToChild"
`??APSME_KeyFwdToChild::?relay` SYMBOL "?relay", APSME_KeyFwdToChild
APSME_LinkKeyNVIdGet SYMBOL "APSME_LinkKeyNVIdGet"
`??APSME_LinkKeyNVIdGet::?relay` SYMBOL "?relay", APSME_LinkKeyNVIdGet
APSME_LinkKeySet    SYMBOL "APSME_LinkKeySet"
`??APSME_LinkKeySet::?relay` SYMBOL "?relay", APSME_LinkKeySet
APSME_TCLinkKeyInit SYMBOL "APSME_TCLinkKeyInit"
`??APSME_TCLinkKeyInit::?relay` SYMBOL "?relay", APSME_TCLinkKeyInit
APSME_TCLinkKeyLoad SYMBOL "APSME_TCLinkKeyLoad"
`??APSME_TCLinkKeyLoad::?relay` SYMBOL "?relay", APSME_TCLinkKeyLoad
APSME_TCLinkKeySync SYMBOL "APSME_TCLinkKeySync"
`??APSME_TCLinkKeySync::?relay` SYMBOL "?relay", APSME_TCLinkKeySync
ZDSecMgrAPSRemove   SYMBOL "ZDSecMgrAPSRemove"
`??ZDSecMgrAPSRemove::?relay` SYMBOL "?relay", ZDSecMgrAPSRemove
ZDSecMgrAddLinkKey  SYMBOL "ZDSecMgrAddLinkKey"
`??ZDSecMgrAddLinkKey::?relay` SYMBOL "?relay", ZDSecMgrAddLinkKey
ZDSecMgrAddrClear   SYMBOL "ZDSecMgrAddrClear"
`??ZDSecMgrAddrClear::?relay` SYMBOL "?relay", ZDSecMgrAddrClear
ZDSecMgrAddrStore   SYMBOL "ZDSecMgrAddrStore"
`??ZDSecMgrAddrStore::?relay` SYMBOL "?relay", ZDSecMgrAddrStore
ZDSecMgrAppKeyGet   SYMBOL "ZDSecMgrAppKeyGet"
`??ZDSecMgrAppKeyGet::?relay` SYMBOL "?relay", ZDSecMgrAppKeyGet
ZDSecMgrAppKeyReq   SYMBOL "ZDSecMgrAppKeyReq"
`??ZDSecMgrAppKeyReq::?relay` SYMBOL "?relay", ZDSecMgrAppKeyReq
ZDSecMgrAppKeyTypeSet SYMBOL "ZDSecMgrAppKeyTypeSet"
`??ZDSecMgrAppKeyTypeSet::?relay` SYMBOL "?relay", ZDSecMgrAppKeyTypeSet
ZDSecMgrApsLinkKeyInit SYMBOL "ZDSecMgrApsLinkKeyInit"
`??ZDSecMgrApsLinkKeyInit::?relay` SYMBOL "?relay", ZDSecMgrApsLinkKeyInit
ZDSecMgrAssocDeviceAuth SYMBOL "ZDSecMgrAssocDeviceAuth"
`??ZDSecMgrAssocDeviceAuth::?relay` SYMBOL "?relay", ZDSecMgrAssocDeviceAuth
ZDSecMgrAuthNwkKey  SYMBOL "ZDSecMgrAuthNwkKey"
`??ZDSecMgrAuthNwkKey::?relay` SYMBOL "?relay", ZDSecMgrAuthNwkKey
ZDSecMgrAuthenticationCheck SYMBOL "ZDSecMgrAuthenticationCheck"
`??ZDSecMgrAuthenticationCheck::?relay` SYMBOL "?relay", ZDSecMgrAuthenticationCheck
ZDSecMgrAuthenticationSet SYMBOL "ZDSecMgrAuthenticationSet"
`??ZDSecMgrAuthenticationSet::?relay` SYMBOL "?relay", ZDSecMgrAuthenticationSet
ZDSecMgrConfig      SYMBOL "ZDSecMgrConfig"
`??ZDSecMgrConfig::?relay` SYMBOL "?relay", ZDSecMgrConfig
ZDSecMgrDeviceJoin  SYMBOL "ZDSecMgrDeviceJoin"
`??ZDSecMgrDeviceJoin::?relay` SYMBOL "?relay", ZDSecMgrDeviceJoin
ZDSecMgrDeviceJoinDirect SYMBOL "ZDSecMgrDeviceJoinDirect"
`??ZDSecMgrDeviceJoinDirect::?relay` SYMBOL "?relay", ZDSecMgrDeviceJoinDirect
ZDSecMgrDeviceJoinFwd SYMBOL "ZDSecMgrDeviceJoinFwd"
`??ZDSecMgrDeviceJoinFwd::?relay` SYMBOL "?relay", ZDSecMgrDeviceJoinFwd
ZDSecMgrDeviceNew   SYMBOL "ZDSecMgrDeviceNew"
`??ZDSecMgrDeviceNew::?relay` SYMBOL "?relay", ZDSecMgrDeviceNew
ZDSecMgrDeviceRemove SYMBOL "ZDSecMgrDeviceRemove"
`??ZDSecMgrDeviceRemove::?relay` SYMBOL "?relay", ZDSecMgrDeviceRemove
ZDSecMgrDeviceRemoveByExtAddr SYMBOL "ZDSecMgrDeviceRemoveByExtAddr"
`??ZDSecMgrDeviceRemoveByExtAddr::?relay` SYMBOL "?relay", ZDSecMgrDeviceRemoveByExtAddr
ZDSecMgrDeviceValidate SYMBOL "ZDSecMgrDeviceValidate"
`??ZDSecMgrDeviceValidate::?relay` SYMBOL "?relay", ZDSecMgrDeviceValidate
ZDSecMgrDeviceValidateRM SYMBOL "ZDSecMgrDeviceValidateRM"
`??ZDSecMgrDeviceValidateRM::?relay` SYMBOL "?relay", ZDSecMgrDeviceValidateRM
ZDSecMgrEntryFree   SYMBOL "ZDSecMgrEntryFree"
`??ZDSecMgrEntryFree::?relay` SYMBOL "?relay", ZDSecMgrEntryFree
ZDSecMgrEntryInit   SYMBOL "ZDSecMgrEntryInit"
`??ZDSecMgrEntryInit::?relay` SYMBOL "?relay", ZDSecMgrEntryInit
ZDSecMgrEntryLookup SYMBOL "ZDSecMgrEntryLookup"
`??ZDSecMgrEntryLookup::?relay` SYMBOL "?relay", ZDSecMgrEntryLookup
ZDSecMgrEntryLookupAMI SYMBOL "ZDSecMgrEntryLookupAMI"
`??ZDSecMgrEntryLookupAMI::?relay` SYMBOL "?relay", ZDSecMgrEntryLookupAMI
ZDSecMgrEntryLookupAMIGetIndex SYMBOL "ZDSecMgrEntryLookupAMIGetIndex"
`??ZDSecMgrEntryLookupAMIGetIndex::?relay` SYMBOL "?relay", ZDSecMgrEntryLookupAMIGetIndex
ZDSecMgrEntryLookupExt SYMBOL "ZDSecMgrEntryLookupExt"
`??ZDSecMgrEntryLookupExt::?relay` SYMBOL "?relay", ZDSecMgrEntryLookupExt
ZDSecMgrEntryLookupExtGetIndex SYMBOL "ZDSecMgrEntryLookupExtGetIndex"
`??ZDSecMgrEntryLookupExtGetIndex::?relay` SYMBOL "?relay", ZDSecMgrEntryLookupExtGetIndex
ZDSecMgrEntryNew    SYMBOL "ZDSecMgrEntryNew"
`??ZDSecMgrEntryNew::?relay` SYMBOL "?relay", ZDSecMgrEntryNew
ZDSecMgrExtAddrLookup SYMBOL "ZDSecMgrExtAddrLookup"
`??ZDSecMgrExtAddrLookup::?relay` SYMBOL "?relay", ZDSecMgrExtAddrLookup
ZDSecMgrExtAddrStore SYMBOL "ZDSecMgrExtAddrStore"
`??ZDSecMgrExtAddrStore::?relay` SYMBOL "?relay", ZDSecMgrExtAddrStore
ZDSecMgrInit        SYMBOL "ZDSecMgrInit"
`??ZDSecMgrInit::?relay` SYMBOL "?relay", ZDSecMgrInit
ZDSecMgrInitNV      SYMBOL "ZDSecMgrInitNV"
`??ZDSecMgrInitNV::?relay` SYMBOL "?relay", ZDSecMgrInitNV
ZDSecMgrInitNVKeyTables SYMBOL "ZDSecMgrInitNVKeyTables"
`??ZDSecMgrInitNVKeyTables::?relay` SYMBOL "?relay", ZDSecMgrInitNVKeyTables
ZDSecMgrNewDeviceEvent SYMBOL "ZDSecMgrNewDeviceEvent"
`??ZDSecMgrNewDeviceEvent::?relay` SYMBOL "?relay", ZDSecMgrNewDeviceEvent
ZDSecMgrNwkKeyInit  SYMBOL "ZDSecMgrNwkKeyInit"
`??ZDSecMgrNwkKeyInit::?relay` SYMBOL "?relay", ZDSecMgrNwkKeyInit
ZDSecMgrPermitJoining SYMBOL "ZDSecMgrPermitJoining"
`??ZDSecMgrPermitJoining::?relay` SYMBOL "?relay", ZDSecMgrPermitJoining
ZDSecMgrPermitJoiningTimeout SYMBOL "ZDSecMgrPermitJoiningTimeout"
`??ZDSecMgrPermitJoiningTimeout::?relay` SYMBOL "?relay", ZDSecMgrPermitJoiningTimeout
ZDSecMgrReadKeyFromNv SYMBOL "ZDSecMgrReadKeyFromNv"
`??ZDSecMgrReadKeyFromNv::?relay` SYMBOL "?relay", ZDSecMgrReadKeyFromNv
ZDSecMgrRemoveDeviceInd SYMBOL "ZDSecMgrRemoveDeviceInd"
`??ZDSecMgrRemoveDeviceInd::?relay` SYMBOL "?relay", ZDSecMgrRemoveDeviceInd
ZDSecMgrRequestAppKey SYMBOL "ZDSecMgrRequestAppKey"
`??ZDSecMgrRequestAppKey::?relay` SYMBOL "?relay", ZDSecMgrRequestAppKey
ZDSecMgrRequestKeyInd SYMBOL "ZDSecMgrRequestKeyInd"
`??ZDSecMgrRequestKeyInd::?relay` SYMBOL "?relay", ZDSecMgrRequestKeyInd
ZDSecMgrSaveApsLinkKey SYMBOL "ZDSecMgrSaveApsLinkKey"
`??ZDSecMgrSaveApsLinkKey::?relay` SYMBOL "?relay", ZDSecMgrSaveApsLinkKey
ZDSecMgrSaveTCLinkKey SYMBOL "ZDSecMgrSaveTCLinkKey"
`??ZDSecMgrSaveTCLinkKey::?relay` SYMBOL "?relay", ZDSecMgrSaveTCLinkKey
ZDSecMgrSendNwkKey  SYMBOL "ZDSecMgrSendNwkKey"
`??ZDSecMgrSendNwkKey::?relay` SYMBOL "?relay", ZDSecMgrSendNwkKey
ZDSecMgrSetDefaultNV SYMBOL "ZDSecMgrSetDefaultNV"
`??ZDSecMgrSetDefaultNV::?relay` SYMBOL "?relay", ZDSecMgrSetDefaultNV
ZDSecMgrSwitchKeyInd SYMBOL "ZDSecMgrSwitchKeyInd"
`??ZDSecMgrSwitchKeyInd::?relay` SYMBOL "?relay", ZDSecMgrSwitchKeyInd
ZDSecMgrSwitchNwkKey SYMBOL "ZDSecMgrSwitchNwkKey"
`??ZDSecMgrSwitchNwkKey::?relay` SYMBOL "?relay", ZDSecMgrSwitchNwkKey
ZDSecMgrTCDataLoad  SYMBOL "ZDSecMgrTCDataLoad"
`??ZDSecMgrTCDataLoad::?relay` SYMBOL "?relay", ZDSecMgrTCDataLoad
ZDSecMgrTCExtAddrCheck SYMBOL "ZDSecMgrTCExtAddrCheck"
`??ZDSecMgrTCExtAddrCheck::?relay` SYMBOL "?relay", ZDSecMgrTCExtAddrCheck
ZDSecMgrTransportKeyInd SYMBOL "ZDSecMgrTransportKeyInd"
`??ZDSecMgrTransportKeyInd::?relay` SYMBOL "?relay", ZDSecMgrTransportKeyInd
ZDSecMgrUpdateDeviceInd SYMBOL "ZDSecMgrUpdateDeviceInd"
`??ZDSecMgrUpdateDeviceInd::?relay` SYMBOL "?relay", ZDSecMgrUpdateDeviceInd
ZDSecMgrUpdateNwkKey SYMBOL "ZDSecMgrUpdateNwkKey"
`??ZDSecMgrUpdateNwkKey::?relay` SYMBOL "?relay", ZDSecMgrUpdateNwkKey
ZDSecMgrUpdateTCAddress SYMBOL "ZDSecMgrUpdateTCAddress"
`??ZDSecMgrUpdateTCAddress::?relay` SYMBOL "?relay", ZDSecMgrUpdateTCAddress

        EXTERN `??APSME_GetRequest::?relay`
        FUNCTION `??APSME_GetRequest::?relay`,00H
        EXTERN `??APSME_IsDistributedSecurity::?relay`
        FUNCTION `??APSME_IsDistributedSecurity::?relay`,00H
        EXTERN `??APSME_LookupExtAddr::?relay`
        FUNCTION `??APSME_LookupExtAddr::?relay`,00H
        EXTERN `??APSME_LookupNwkAddr::?relay`
        FUNCTION `??APSME_LookupNwkAddr::?relay`,00H
        EXTERN `??APSME_RemoveDeviceReq::?relay`
        FUNCTION `??APSME_RemoveDeviceReq::?relay`,00H
        EXTERN `??APSME_RequestKeyReq::?relay`
        FUNCTION `??APSME_RequestKeyReq::?relay`,00H
        EXTERN `??APSME_SecurityRM_CD::?relay`
        FUNCTION `??APSME_SecurityRM_CD::?relay`,00H
        EXTERN `??APSME_SetRequest::?relay`
        FUNCTION `??APSME_SetRequest::?relay`,00H
        EXTERN `??APSME_SwitchKeyReq::?relay`
        FUNCTION `??APSME_SwitchKeyReq::?relay`,00H
        EXTERN `??APSME_TransportKeyReq::?relay`
        FUNCTION `??APSME_TransportKeyReq::?relay`,00H
        EXTERN `??APSME_UpdateDeviceReq::?relay`
        FUNCTION `??APSME_UpdateDeviceReq::?relay`,00H
        EXTERN `??AddrMgrEntryGet::?relay`
        FUNCTION `??AddrMgrEntryGet::?relay`,00H
        EXTERN `??AddrMgrEntryLookupExt::?relay`
        FUNCTION `??AddrMgrEntryLookupExt::?relay`,00H
        EXTERN `??AddrMgrEntryLookupNwk::?relay`
        FUNCTION `??AddrMgrEntryLookupNwk::?relay`,00H
        EXTERN `??AddrMgrEntryRelease::?relay`
        FUNCTION `??AddrMgrEntryRelease::?relay`,00H
        EXTERN `??AddrMgrEntryUpdate::?relay`
        FUNCTION `??AddrMgrEntryUpdate::?relay`,00H
        EXTERN `??AddrMgrExtAddrEqual::?relay`
        FUNCTION `??AddrMgrExtAddrEqual::?relay`,00H
        EXTERN `??AddrMgrExtAddrSet::?relay`
        FUNCTION `??AddrMgrExtAddrSet::?relay`,00H
        EXTERN `??AddrMgrExtAddrValid::?relay`
        FUNCTION `??AddrMgrExtAddrValid::?relay`,00H
        EXTERN `??AssocGetWithExt::?relay`
        FUNCTION `??AssocGetWithExt::?relay`,00H
        EXTERN `??AssocGetWithShort::?relay`
        FUNCTION `??AssocGetWithShort::?relay`,00H
        EXTERN `??AssocRemove::?relay`
        FUNCTION `??AssocRemove::?relay`,00H
        EXTERN `??NLME_GetShortAddr::?relay`
        FUNCTION `??NLME_GetShortAddr::?relay`,00H
        EXTERN `??NLME_LeaveReq::?relay`
        FUNCTION `??NLME_LeaveReq::?relay`,00H
        EXTERN `??NLME_ReadNwkKeyInfo::?relay`
        FUNCTION `??NLME_ReadNwkKeyInfo::?relay`,00H
        EXTERN `??SSP_GetTrueRand::?relay`
        FUNCTION `??SSP_GetTrueRand::?relay`,00H
        EXTERN `??SSP_Init::?relay`
        FUNCTION `??SSP_Init::?relay`,00H
        EXTERN `??SSP_SwitchNwkKey::?relay`
        FUNCTION `??SSP_SwitchNwkKey::?relay`,00H
        EXTERN `??SSP_UpdateNwkKey::?relay`
        FUNCTION `??SSP_UpdateNwkKey::?relay`,00H
        EXTERN `??ZDApp_NVUpdate::?relay`
        FUNCTION `??ZDApp_NVUpdate::?relay`,00H
        EXTERN `??osal_isbufset::?relay`
        FUNCTION `??osal_isbufset::?relay`,00H
        EXTERN `??osal_mem_alloc::?relay`
        FUNCTION `??osal_mem_alloc::?relay`,00H
        EXTERN `??osal_mem_free::?relay`
        FUNCTION `??osal_mem_free::?relay`,00H
        EXTERN `??osal_memcmp::?relay`
        FUNCTION `??osal_memcmp::?relay`,00H
        EXTERN `??osal_memcpy::?relay`
        FUNCTION `??osal_memcpy::?relay`,00H
        EXTERN `??osal_memset::?relay`
        FUNCTION `??osal_memset::?relay`,00H
        EXTERN `??osal_nv_item_init::?relay`
        FUNCTION `??osal_nv_item_init::?relay`,00H
        EXTERN `??osal_nv_read::?relay`
        FUNCTION `??osal_nv_read::?relay`,00H
        EXTERN `??osal_nv_write::?relay`
        FUNCTION `??osal_nv_write::?relay`,00H
        EXTERN `??osal_set_event::?relay`
        FUNCTION `??osal_set_event::?relay`,00H
        EXTERN `??sAddrExtCmp::?relay`
        FUNCTION `??sAddrExtCmp::?relay`,00H
        EXTERN `??sAddrExtCpy::?relay`
        FUNCTION `??sAddrExtCpy::?relay`,00H
        EXTERN APSME_GetRequest
        FUNCTION APSME_GetRequest,0202H
        ARGFRAME ISTACK, 0, STACK
        ARGFRAME PSTACK, 0, STACK
        ARGFRAME XSTACK, 17, STACK
        ARGFRAME IOVERLAY, 0, STATIC
        ARGFRAME DOVERLAY, 0, STATIC
        EXTERN APSME_IsDistributedSecurity
        FUNCTION APSME_IsDistributedSecurity,0202H
        ARGFRAME ISTACK, 0, STACK
        ARGFRAME PSTACK, 0, STACK
        ARGFRAME XSTACK, 59, STACK
        ARGFRAME IOVERLAY, 0, STATIC
        ARGFRAME DOVERLAY, 0, STATIC
        EXTERN APSME_LookupExtAddr
        FUNCTION APSME_LookupExtAddr,0202H
        ARGFRAME ISTACK, 0, STACK
        ARGFRAME PSTACK, 0, STACK
        ARGFRAME XSTACK, 51, STACK
        ARGFRAME IOVERLAY, 0, STATIC
        ARGFRAME DOVERLAY, 0, STATIC
        EXTERN APSME_LookupNwkAddr
        FUNCTION APSME_LookupNwkAddr,0202H
        ARGFRAME ISTACK, 0, STACK
        ARGFRAME PSTACK, 0, STACK
        ARGFRAME XSTACK, 51, STACK
        ARGFRAME IOVERLAY, 0, STATIC
        ARGFRAME DOVERLAY, 0, STATIC
        EXTERN APSME_RemoveDeviceReq
        FUNCTION APSME_RemoveDeviceReq,0202H
        ARGFRAME ISTACK, 0, STACK
        ARGFRAME PSTACK, 0, STACK
        ARGFRAME XSTACK, 20, STACK
        ARGFRAME IOVERLAY, 0, STATIC
        ARGFRAME DOVERLAY, 0, STATIC
        EXTERN APSME_RequestKeyReq
        FUNCTION APSME_RequestKeyReq,0202H
        ARGFRAME ISTACK, 2, STACK
        ARGFRAME PSTACK, 0, STACK
        ARGFRAME XSTACK, 4, STACK
        ARGFRAME IOVERLAY, 0, STATIC
        ARGFRAME DOVERLAY, 0, STATIC
        EXTERN APSME_SecurityRM_CD
        FUNCTION APSME_SecurityRM_CD,0202H
        ARGFRAME ISTACK, 2, STACK
        ARGFRAME PSTACK, 0, STACK
        ARGFRAME XSTACK, 0, STACK
        ARGFRAME IOVERLAY, 0, STATIC
        ARGFRAME DOVERLAY, 0, STATIC
        EXTERN APSME_SetRequest
        FUNCTION APSME_SetRequest,0202H
        ARGFRAME ISTACK, 0, STACK
        ARGFRAME PSTACK, 0, STACK
        ARGFRAME XSTACK, 18, STACK
        ARGFRAME IOVERLAY, 0, STATIC
        ARGFRAME DOVERLAY, 0, STATIC
        EXTERN APSME_SwitchKeyReq
        FUNCTION APSME_SwitchKeyReq,0202H
        ARGFRAME ISTACK, 0, STACK
        ARGFRAME PSTACK, 0, STACK
        ARGFRAME XSTACK, 13, STACK
        ARGFRAME IOVERLAY, 0, STATIC
        ARGFRAME DOVERLAY, 0, STATIC
        EXTERN APSME_TransportKeyReq
        FUNCTION APSME_TransportKeyReq,0202H
        ARGFRAME ISTACK, 0, STACK
        ARGFRAME PSTACK, 0, STACK
        ARGFRAME XSTACK, 51, STACK
        ARGFRAME IOVERLAY, 0, STATIC
        ARGFRAME DOVERLAY, 0, STATIC
        EXTERN APSME_UpdateDeviceReq
        FUNCTION APSME_UpdateDeviceReq,0202H
        ARGFRAME ISTACK, 0, STACK
        ARGFRAME PSTACK, 0, STACK
        ARGFRAME XSTACK, 18, STACK
        ARGFRAME IOVERLAY, 0, STATIC
        ARGFRAME DOVERLAY, 0, STATIC
        EXTERN AddrMgrEntryGet
        FUNCTION AddrMgrEntryGet,0202H
        ARGFRAME ISTACK, 0, STACK
        ARGFRAME PSTACK, 0, STACK
        ARGFRAME XSTACK, 33, STACK
        ARGFRAME IOVERLAY, 0, STATIC
        ARGFRAME DOVERLAY, 0, STATIC
        EXTERN AddrMgrEntryLookupExt
        FUNCTION AddrMgrEntryLookupExt,0202H
        ARGFRAME ISTACK, 0, STACK
        ARGFRAME PSTACK, 0, STACK
        ARGFRAME XSTACK, 25, STACK
        ARGFRAME IOVERLAY, 0, STATIC
        ARGFRAME DOVERLAY, 0, STATIC
        EXTERN AddrMgrEntryLookupNwk
        FUNCTION AddrMgrEntryLookupNwk,0202H
        ARGFRAME ISTACK, 0, STACK
        ARGFRAME PSTACK, 0, STACK
        ARGFRAME XSTACK, 59, STACK
        ARGFRAME IOVERLAY, 0, STATIC
        ARGFRAME DOVERLAY, 0, STATIC
        EXTERN AddrMgrEntryRelease
        FUNCTION AddrMgrEntryRelease,0202H
        ARGFRAME ISTACK, 0, STACK
        ARGFRAME PSTACK, 0, STACK
        ARGFRAME XSTACK, 59, STACK
        ARGFRAME IOVERLAY, 0, STATIC
        ARGFRAME DOVERLAY, 0, STATIC
        EXTERN AddrMgrEntryUpdate
        FUNCTION AddrMgrEntryUpdate,0202H
        ARGFRAME ISTACK, 0, STACK
        ARGFRAME PSTACK, 0, STACK
        ARGFRAME XSTACK, 22, STACK
        ARGFRAME IOVERLAY, 0, STATIC
        ARGFRAME DOVERLAY, 0, STATIC
        EXTERN AddrMgrExtAddrEqual
        FUNCTION AddrMgrExtAddrEqual,0202H
        ARGFRAME ISTACK, 0, STACK
        ARGFRAME PSTACK, 0, STACK
        ARGFRAME XSTACK, 59, STACK
        ARGFRAME IOVERLAY, 0, STATIC
        ARGFRAME DOVERLAY, 0, STATIC
        EXTERN AddrMgrExtAddrSet
        FUNCTION AddrMgrExtAddrSet,0202H
        ARGFRAME ISTACK, 0, STACK
        ARGFRAME PSTACK, 0, STACK
        ARGFRAME XSTACK, 22, STACK
        ARGFRAME IOVERLAY, 0, STATIC
        ARGFRAME DOVERLAY, 0, STATIC
        EXTERN AddrMgrExtAddrValid
        FUNCTION AddrMgrExtAddrValid,0202H
        ARGFRAME ISTACK, 0, STACK
        ARGFRAME PSTACK, 0, STACK
        ARGFRAME XSTACK, 59, STACK
        ARGFRAME IOVERLAY, 0, STATIC
        ARGFRAME DOVERLAY, 0, STATIC
        EXTERN AssocGetWithExt
        FUNCTION AssocGetWithExt,0202H
        ARGFRAME ISTACK, 0, STACK
        ARGFRAME PSTACK, 0, STACK
        ARGFRAME XSTACK, 20, STACK
        ARGFRAME IOVERLAY, 0, STATIC
        ARGFRAME DOVERLAY, 0, STATIC
        EXTERN AssocGetWithShort
        FUNCTION AssocGetWithShort,0202H
        ARGFRAME ISTACK, 0, STACK
        ARGFRAME PSTACK, 0, STACK
        ARGFRAME XSTACK, 33, STACK
        ARGFRAME IOVERLAY, 0, STATIC
        ARGFRAME DOVERLAY, 0, STATIC
        EXTERN AssocRemove
        FUNCTION AssocRemove,0202H
        ARGFRAME ISTACK, 0, STACK
        ARGFRAME PSTACK, 0, STACK
        ARGFRAME XSTACK, 33, STACK
        ARGFRAME IOVERLAY, 0, STATIC
        ARGFRAME DOVERLAY, 0, STATIC
        EXTERN NLME_GetShortAddr
        FUNCTION NLME_GetShortAddr,0202H
        ARGFRAME ISTACK, 0, STACK
        ARGFRAME PSTACK, 0, STACK
        ARGFRAME XSTACK, 40, STACK
        ARGFRAME IOVERLAY, 0, STATIC
        ARGFRAME DOVERLAY, 0, STATIC
        EXTERN NLME_LeaveReq
        FUNCTION NLME_LeaveReq,0202H
        ARGFRAME ISTACK, 0, STACK
        ARGFRAME PSTACK, 0, STACK
        ARGFRAME XSTACK, 20, STACK
        ARGFRAME IOVERLAY, 0, STATIC
        ARGFRAME DOVERLAY, 0, STATIC
        EXTERN NLME_ReadNwkKeyInfo
        FUNCTION NLME_ReadNwkKeyInfo,0202H
        ARGFRAME ISTACK, 0, STACK
        ARGFRAME PSTACK, 0, STACK
        ARGFRAME XSTACK, 44, STACK
        ARGFRAME IOVERLAY, 0, STATIC
        ARGFRAME DOVERLAY, 0, STATIC
        EXTERN SSP_GetTrueRand
        FUNCTION SSP_GetTrueRand,0202H
        ARGFRAME ISTACK, 2, STACK
        ARGFRAME PSTACK, 0, STACK
        ARGFRAME XSTACK, 0, STACK
        ARGFRAME IOVERLAY, 0, STATIC
        ARGFRAME DOVERLAY, 0, STATIC
        EXTERN SSP_Init
        FUNCTION SSP_Init,0202H
        ARGFRAME ISTACK, 2, STACK
        ARGFRAME PSTACK, 0, STACK
        ARGFRAME XSTACK, 0, STACK
        ARGFRAME IOVERLAY, 0, STATIC
        ARGFRAME DOVERLAY, 0, STATIC
        EXTERN SSP_SwitchNwkKey
        FUNCTION SSP_SwitchNwkKey,0202H
        ARGFRAME ISTACK, 2, STACK
        ARGFRAME PSTACK, 0, STACK
        ARGFRAME XSTACK, 26, STACK
        ARGFRAME IOVERLAY, 0, STATIC
        ARGFRAME DOVERLAY, 0, STATIC
        EXTERN SSP_UpdateNwkKey
        FUNCTION SSP_UpdateNwkKey,0202H
        ARGFRAME ISTACK, 0, STACK
        ARGFRAME PSTACK, 0, STACK
        ARGFRAME XSTACK, 26, STACK
        ARGFRAME IOVERLAY, 0, STATIC
        ARGFRAME DOVERLAY, 0, STATIC
        EXTERN ZDAppTaskID
        EXTERN ZDApp_NVUpdate
        FUNCTION ZDApp_NVUpdate,0202H
        ARGFRAME ISTACK, 2, STACK
        ARGFRAME PSTACK, 0, STACK
        ARGFRAME XSTACK, 23, STACK
        ARGFRAME IOVERLAY, 0, STATIC
        ARGFRAME DOVERLAY, 0, STATIC
        EXTERN _NIB
        EXTERN defaultTCLinkKey
        EXTERN devState
        EXTERN osal_isbufset
        FUNCTION osal_isbufset,0202H
        ARGFRAME ISTACK, 2, STACK
        ARGFRAME PSTACK, 0, STACK
        ARGFRAME XSTACK, 26, STACK
        ARGFRAME IOVERLAY, 0, STATIC
        ARGFRAME DOVERLAY, 0, STATIC
        EXTERN osal_mem_alloc
        FUNCTION osal_mem_alloc,0202H
        ARGFRAME ISTACK, 2, STACK
        ARGFRAME PSTACK, 0, STACK
        ARGFRAME XSTACK, 33, STACK
        ARGFRAME IOVERLAY, 0, STATIC
        ARGFRAME DOVERLAY, 0, STATIC
        EXTERN osal_mem_free
        FUNCTION osal_mem_free,0202H
        ARGFRAME ISTACK, 0, STACK
        ARGFRAME PSTACK, 0, STACK
        ARGFRAME XSTACK, 33, STACK
        ARGFRAME IOVERLAY, 0, STATIC
        ARGFRAME DOVERLAY, 0, STATIC
        EXTERN osal_memcmp
        FUNCTION osal_memcmp,0202H
        ARGFRAME ISTACK, 0, STACK
        ARGFRAME PSTACK, 0, STACK
        ARGFRAME XSTACK, 36, STACK
        ARGFRAME IOVERLAY, 0, STATIC
        ARGFRAME DOVERLAY, 0, STATIC
        EXTERN osal_memcpy
        FUNCTION osal_memcpy,0202H
        ARGFRAME ISTACK, 0, STACK
        ARGFRAME PSTACK, 0, STACK
        ARGFRAME XSTACK, 46, STACK
        ARGFRAME IOVERLAY, 0, STATIC
        ARGFRAME DOVERLAY, 0, STATIC
        EXTERN osal_memset
        FUNCTION osal_memset,0202H
        ARGFRAME ISTACK, 0, STACK
        ARGFRAME PSTACK, 0, STACK
        ARGFRAME XSTACK, 59, STACK
        ARGFRAME IOVERLAY, 0, STATIC
        ARGFRAME DOVERLAY, 0, STATIC
        EXTERN osal_nv_item_init
        FUNCTION osal_nv_item_init,0202H
        ARGFRAME ISTACK, 0, STACK
        ARGFRAME PSTACK, 0, STACK
        ARGFRAME XSTACK, 50, STACK
        ARGFRAME IOVERLAY, 0, STATIC
        ARGFRAME DOVERLAY, 0, STATIC
        EXTERN osal_nv_read
        FUNCTION osal_nv_read,0202H
        ARGFRAME ISTACK, 0, STACK
        ARGFRAME PSTACK, 0, STACK
        ARGFRAME XSTACK, 63, STACK
        ARGFRAME IOVERLAY, 0, STATIC
        ARGFRAME DOVERLAY, 0, STATIC
        EXTERN osal_nv_write
        FUNCTION osal_nv_write,0202H
        ARGFRAME ISTACK, 0, STACK
        ARGFRAME PSTACK, 0, STACK
        ARGFRAME XSTACK, 52, STACK
        ARGFRAME IOVERLAY, 0, STATIC
        ARGFRAME DOVERLAY, 0, STATIC
        EXTERN osal_set_event
        FUNCTION osal_set_event,0202H
        ARGFRAME ISTACK, 2, STACK
        ARGFRAME PSTACK, 0, STACK
        ARGFRAME XSTACK, 0, STACK
        ARGFRAME IOVERLAY, 0, STATIC
        ARGFRAME DOVERLAY, 0, STATIC
        EXTERN sAddrExtCmp
        FUNCTION sAddrExtCmp,0202H
        ARGFRAME ISTACK, 0, STACK
        ARGFRAME PSTACK, 0, STACK
        ARGFRAME XSTACK, 48, STACK
        ARGFRAME IOVERLAY, 0, STATIC
        ARGFRAME DOVERLAY, 0, STATIC
        EXTERN sAddrExtCpy
        FUNCTION sAddrExtCpy,0202H
        ARGFRAME ISTACK, 0, STACK
        ARGFRAME PSTACK, 0, STACK
        ARGFRAME XSTACK, 25, STACK
        ARGFRAME IOVERLAY, 0, STATIC
        ARGFRAME DOVERLAY, 0, STATIC
        EXTERN zdoCBFunc
        EXTERN zgApsLinkKeyType
        EXTERN zgApsTrustCenterAddr
        EXTERN zgPreConfigKeys
        EXTERN zgSecurePermitJoin
        EXTERN zgUseDefaultTCLK

// C:\Users\hhhho\Desktop\Z-Stack1.2.2a-spp-v001-AD\Components\stack\zdo\ZDSecMgr.c
//    1 /******************************************************************************
//    2   Filename:       ZDSecMgr.c
//    3   Revised:        $Date: 2014-06-05 11:25:00 -0700 (Thu, 05 Jun 2014) $
//    4   Revision:       $Revision: 38833 $
//    5 
//    6   Description:    The ZigBee Device Security Manager.
//    7 
//    8 
//    9   Copyright 2005-2014 Texas Instruments Incorporated. All rights reserved.
//   10 
//   11   IMPORTANT: Your use of this Software is limited to those specific rights
//   12   granted under the terms of a software license agreement between the user
//   13   who downloaded the software, his/her employer (which must be your employer)
//   14   and Texas Instruments Incorporated (the "License"). You may not use this
//   15   Software unless you agree to abide by the terms of the License. The License
//   16   limits your use, and you acknowledge, that the Software may not be modified,
//   17   copied or distributed unless embedded on a Texas Instruments microcontroller
//   18   or used solely and exclusively in conjunction with a Texas Instruments radio
//   19   frequency transceiver, which is integrated into your product. Other than for
//   20   the foregoing purpose, you may not use, reproduce, copy, prepare derivative
//   21   works of, modify, distribute, perform, display or sell this Software and/or
//   22   its documentation for any purpose.
//   23 
//   24   YOU FURTHER ACKNOWLEDGE AND AGREE THAT THE SOFTWARE AND DOCUMENTATION ARE
//   25   PROVIDED "AS IS" WITHOUT WARRANTY OF ANY KIND, EITHER EXPRESS OR IMPLIED,
//   26   INCLUDING WITHOUT LIMITATION, ANY WARRANTY OF MERCHANTABILITY, TITLE,
//   27   NON-INFRINGEMENT AND FITNESS FOR A PARTICULAR PURPOSE. IN NO EVENT SHALL
//   28   TEXAS INSTRUMENTS OR ITS LICENSORS BE LIABLE OR OBLIGATED UNDER CONTRACT,
//   29   NEGLIGENCE, STRICT LIABILITY, CONTRIBUTION, BREACH OF WARRANTY, OR OTHER
//   30   LEGAL EQUITABLE THEORY ANY DIRECT OR INDIRECT DAMAGES OR EXPENSES
//   31   INCLUDING BUT NOT LIMITED TO ANY INCIDENTAL, SPECIAL, INDIRECT, PUNITIVE
//   32   OR CONSEQUENTIAL DAMAGES, LOST PROFITS OR LOST DATA, COST OF PROCUREMENT
//   33   OF SUBSTITUTE GOODS, TECHNOLOGY, SERVICES, OR ANY CLAIMS BY THIRD PARTIES
//   34   (INCLUDING BUT NOT LIMITED TO ANY DEFENSE THEREOF), OR OTHER SIMILAR COSTS.
//   35 
//   36   Should you have any questions regarding your right to use this Software,
//   37   contact Texas Instruments Incorporated at www.TI.com.
//   38 ******************************************************************************/
//   39 
//   40 #ifdef __cplusplus
//   41 extern "C"
//   42 {
//   43 #endif
//   44 
//   45 /******************************************************************************
//   46  * INCLUDES
//   47  */
//   48 #include "ZComDef.h"
//   49 #include "OSAL.h"
//   50 #include "OSAL_Nv.h"
//   51 #include "ZGlobals.h"
//   52 #include "ssp.h"
//   53 #include "nwk_globals.h"
//   54 #include "nwk.h"
//   55 #include "NLMEDE.h"
//   56 #include "AddrMgr.h"
//   57 #include "AssocList.h"
//   58 #include "APSMEDE.h"
//   59 #include "ZDConfig.h"
//   60 #include "ZDSecMgr.h"
//   61 
//   62 /******************************************************************************
//   63  * CONSTANTS
//   64  */
//   65 // maximum number of devices managed by this Security Manager
//   66 #if !defined ( ZDSECMGR_DEVICE_MAX )
//   67   #define ZDSECMGR_DEVICE_MAX 3
//   68 #endif
//   69 
//   70 // maximum number of LINK keys this device may store
//   71 #define ZDSECMGR_ENTRY_MAX ZDSECMGR_DEVICE_MAX
//   72 
//   73 // total number of stored devices
//   74 #if !defined ( ZDSECMGR_STORED_DEVICES )
//   75   #define ZDSECMGR_STORED_DEVICES 3
//   76 #endif
//   77 
//   78 // Total number of preconfigured trust center link key
//   79 #if !defined ( ZDSECMGR_TC_DEVICE_MAX )
//   80   #define ZDSECMGR_TC_DEVICE_MAX 1
//   81 #endif
//   82 
//   83 #if ( ZDSECMGR_TC_DEVICE_MAX < 1 ) || ( ZDSECMGR_TC_DEVICE_MAX > 255 )
//   84   #error "ZDSECMGR_TC_DEVICE_MAX shall be between 1 and 255 !"
//   85 #endif
//   86 
//   87 // APSME Stub Implementations
//   88 #define ZDSecMgrLinkKeySet     APSME_LinkKeySet
//   89 #define ZDSecMgrLinkKeyNVIdGet APSME_LinkKeyNVIdGet
//   90 #define ZDSecMgrKeyFwdToChild  APSME_KeyFwdToChild
//   91 #define ZDSecMgrIsLinkKeyValid APSME_IsLinkKeyValid
//   92 
//   93 /******************************************************************************
//   94  * TYPEDEFS
//   95  */
//   96 typedef struct
//   97 {
//   98   uint16            ami;
//   99   uint16            keyNvId;   // index to the Link Key table in NV
//  100   ZDSecMgr_Authentication_Option authenticateOption;
//  101 } ZDSecMgrEntry_t;
//  102 
//  103 typedef struct
//  104 {
//  105   uint16          nwkAddr;
//  106   uint8*          extAddr;
//  107   uint16          parentAddr;
//  108   uint8           secure;
//  109   uint8           devStatus;
//  110 } ZDSecMgrDevice_t;
//  111 
//  112 /******************************************************************************
//  113  * EXTERNAL VARIABLES
//  114  */
//  115 extern pfnZdoCb zdoCBFunc[MAX_ZDO_CB_FUNC];
//  116 
//  117 /******************************************************************************
//  118  * LOCAL VARIABLES
//  119  */
//  120 #if 0 // Taken out because the following functionality is only used for test
//  121       // purpose. A more efficient (above) way is used. It can be put
//  122       // back in if customers request for a white/black list feature.
//  123 uint8 ZDSecMgrStoredDeviceList[ZDSECMGR_STORED_DEVICES][Z_EXTADDR_LEN] =
//  124 {
//  125   { 0x01, 0x00, 0x00, 0x00, 0x00, 0x00, 0x00, 0x00 },
//  126   { 0x00, 0x00, 0x00, 0x00, 0x00, 0x00, 0x00, 0x01 },
//  127   { 0x00, 0x00, 0x00, 0x00, 0x00, 0x00, 0x00, 0x00 },
//  128 };
//  129 #endif
//  130 

        RSEG XDATA_Z:XDATA:NOROOT(0)
        DATA8
//  131 uint8 ZDSecMgrTCExtAddr[Z_EXTADDR_LEN]=
ZDSecMgrTCExtAddr:
        DS 8
        REQUIRE __INIT_XDATA_Z
//  132   { 0x00, 0x00, 0x00, 0x00, 0x00, 0x00, 0x00, 0x00 };
//  133 

        RSEG XDATA_Z:XDATA:NOROOT(0)
        DATA8
//  134 uint8 ZDSecMgrTCAuthenticated = FALSE;
ZDSecMgrTCAuthenticated:
        DS 1
        REQUIRE __INIT_XDATA_Z
//  135 

        RSEG XDATA_Z:XDATA:NOROOT(0)
        DATA16
//  136 ZDSecMgrEntry_t* ZDSecMgrEntries  = NULL;
ZDSecMgrEntries:
        DS 2
        REQUIRE __INIT_XDATA_Z
//  137 
//  138 void ZDSecMgrAddrMgrCB( uint8 update, AddrMgrEntry_t* newEntry, AddrMgrEntry_t* oldEntry );
//  139 

        RSEG XDATA_Z:XDATA:NOROOT(0)
        DATA8
//  140 uint8 ZDSecMgrPermitJoiningEnabled;
ZDSecMgrPermitJoiningEnabled:
        DS 1
        REQUIRE __INIT_XDATA_Z

        RSEG XDATA_Z:XDATA:NOROOT(0)
        DATA8
//  141 uint8 ZDSecMgrPermitJoiningTimed;
ZDSecMgrPermitJoiningTimed:
        DS 1
        REQUIRE __INIT_XDATA_Z
//  142 

        RSEG XDATA_Z:XDATA:NOROOT(0)
        DATA8
//  143 APSME_TCLinkKey_t TrustCenterLinkKey;
TrustCenterLinkKey:
        DS 32
        REQUIRE __INIT_XDATA_Z
//  144 

        RSEG XDATA_Z:XDATA:NOROOT(0)
        DATA8
//  145 APSME_ApsLinkKeyFrmCntr_t ApsLinkKeyFrmCntr[ZDSECMGR_ENTRY_MAX];
ApsLinkKeyFrmCntr:
        DS 27
        REQUIRE __INIT_XDATA_Z

        RSEG XDATA_Z:XDATA:NOROOT(0)
        DATA8
//  146 APSME_TCLinkKeyFrmCntr_t TCLinkKeyFrmCntr[ZDSECMGR_TC_DEVICE_MAX];
TCLinkKeyFrmCntr:
        DS 9
        REQUIRE __INIT_XDATA_Z
//  147 
//  148 /******************************************************************************
//  149  * PRIVATE FUNCTIONS
//  150  *
//  151  *   ZDSecMgrAddrStore
//  152  *   ZDSecMgrExtAddrStore
//  153  *   ZDSecMgrExtAddrLookup
//  154  *   ZDSecMgrEntryInit
//  155  *   ZDSecMgrEntryLookup
//  156  *   ZDSecMgrEntryLookupAMI
//  157  *   ZDSecMgrEntryLookupExt
//  158  *   ZDSecMgrEntryLookupExtGetIndex
//  159  *   ZDSecMgrEntryFree
//  160  *   ZDSecMgrEntryNew
//  161  *   ZDSecMgrAppKeyGet
//  162  *   ZDSecMgrAppKeyReq
//  163  *   ZDSecMgrSendNwkKey
//  164  *   ZDSecMgrDeviceRemove
//  165  *   ZDSecMgrDeviceValidateRM
//  166  *   ZDSecMgrDeviceValidate
//  167  *   ZDSecMgrDeviceJoin
//  168  *   ZDSecMgrDeviceJoinDirect
//  169  *   ZDSecMgrDeviceJoinFwd
//  170  *   ZDSecMgrDeviceNew
//  171  *   ZDSecMgrAssocDeviceAuth
//  172  *   ZDSecMgrAuthNwkKey
//  173  *   APSME_TCLinkKeyInit
//  174  *   APSME_IsDefaultTCLK
//  175  */
//  176 
//  177 //-----------------------------------------------------------------------------
//  178 // address management
//  179 //-----------------------------------------------------------------------------
//  180 ZStatus_t ZDSecMgrAddrStore( uint16 nwkAddr, uint8* extAddr, uint16* ami );
//  181 ZStatus_t ZDSecMgrExtAddrStore( uint16 nwkAddr, uint8* extAddr, uint16* ami );
//  182 ZStatus_t ZDSecMgrExtAddrLookup( uint8* extAddr, uint16* ami );
//  183 
//  184 //-----------------------------------------------------------------------------
//  185 // Trust Center management
//  186 //-----------------------------------------------------------------------------
//  187 uint8 ZDSecMgrTCExtAddrCheck( uint8* extAddr );
//  188 void ZDSecMgrTCDataLoad( uint8* extAddr );
//  189 
//  190 //-----------------------------------------------------------------------------
//  191 // entry data
//  192 //-----------------------------------------------------------------------------
//  193 void ZDSecMgrEntryInit(uint8 state);
//  194 ZStatus_t ZDSecMgrEntryLookup( uint16 nwkAddr, ZDSecMgrEntry_t** entry );
//  195 ZStatus_t ZDSecMgrEntryLookupAMI( uint16 ami, ZDSecMgrEntry_t** entry );
//  196 ZStatus_t ZDSecMgrEntryLookupExt( uint8* extAddr, ZDSecMgrEntry_t** entry );
//  197 ZStatus_t ZDSecMgrEntryLookupExtGetIndex( uint8* extAddr, ZDSecMgrEntry_t** entry, uint16* entryIndex );
//  198 ZStatus_t ZDSecMgrEntryLookupAMIGetIndex( uint16 ami, uint16* entryIndex );
//  199 void ZDSecMgrEntryFree( ZDSecMgrEntry_t* entry );
//  200 ZStatus_t ZDSecMgrEntryNew( ZDSecMgrEntry_t** entry );
//  201 ZStatus_t ZDSecMgrAuthenticationSet( uint8* extAddr, ZDSecMgr_Authentication_Option option );
//  202 void ZDSecMgrApsLinkKeyInit(void);
//  203 #if defined ( NV_RESTORE )
//  204 static void ZDSecMgrWriteNV(void);
//  205 static void ZDSecMgrRestoreFromNV(void);
//  206 static void ZDSecMgrUpdateNV( uint16 index );
//  207 #endif
//  208 
//  209 //-----------------------------------------------------------------------------
//  210 // key support
//  211 //-----------------------------------------------------------------------------
//  212 ZStatus_t ZDSecMgrAppKeyGet( uint16  initNwkAddr,
//  213                              uint8*  initExtAddr,
//  214                              uint16  partNwkAddr,
//  215                              uint8*  partExtAddr,
//  216                              uint8** key,
//  217                              uint8*  keyType );
//  218 void ZDSecMgrAppKeyReq( ZDO_RequestKeyInd_t* ind );
//  219 ZStatus_t ZDSecMgrSendNwkKey( ZDSecMgrDevice_t* device );
//  220 void ZDSecMgrNwkKeyInit(uint8 setDefault);
//  221 
//  222 //-----------------------------------------------------------------------------
//  223 // device management
//  224 //-----------------------------------------------------------------------------
//  225 void ZDSecMgrDeviceRemove( ZDSecMgrDevice_t* device );
//  226 ZStatus_t ZDSecMgrDeviceValidateRM( ZDSecMgrDevice_t* device );
//  227 ZStatus_t ZDSecMgrDeviceValidate( ZDSecMgrDevice_t* device );
//  228 ZStatus_t ZDSecMgrDeviceJoin( ZDSecMgrDevice_t* device );
//  229 ZStatus_t ZDSecMgrDeviceJoinDirect( ZDSecMgrDevice_t* device );
//  230 ZStatus_t ZDSecMgrDeviceJoinFwd( ZDSecMgrDevice_t* device );
//  231 ZStatus_t ZDSecMgrDeviceNew( ZDSecMgrDevice_t* device );
//  232 
//  233 //-----------------------------------------------------------------------------
//  234 // association management
//  235 //-----------------------------------------------------------------------------
//  236 void ZDSecMgrAssocDeviceAuth( associated_devices_t* assoc );
//  237 
//  238 //-----------------------------------------------------------------------------
//  239 // authentication management
//  240 //-----------------------------------------------------------------------------
//  241 void ZDSecMgrAuthNwkKey( void );
//  242 
//  243 //-----------------------------------------------------------------------------
//  244 // APSME function
//  245 //-----------------------------------------------------------------------------
//  246 void APSME_TCLinkKeyInit( uint8 setDefault );
//  247 uint8 APSME_IsDefaultTCLK( uint8 *extAddr );
//  248 
//  249 /******************************************************************************
//  250  * @fn          ZDSecMgrAddrStore
//  251  *
//  252  * @brief       Store device addresses.
//  253  *
//  254  * @param       nwkAddr - [in] NWK address
//  255  * @param       extAddr - [in] EXT address
//  256  * @param       ami     - [out] Address Manager index
//  257  *
//  258  * @return      ZStatus_t
//  259  */

        RSEG BANKED_CODE:HUGECODE:NOROOT(0)
//  260 ZStatus_t ZDSecMgrAddrStore( uint16 nwkAddr, uint8* extAddr, uint16* ami )
ZDSecMgrAddrStore:
          CFI Block cfiBlock0 Using cfiCommon0
          CFI Function ZDSecMgrAddrStore
        CODE
//  261 {
        FUNCALL ZDSecMgrAddrStore, AddrMgrExtAddrSet
        LOCFRAME ISTACK, 0, STACK
        LOCFRAME PSTACK, 0, STACK
        LOCFRAME XSTACK, 22, STACK
        LOCFRAME IOVERLAY, 0, STATIC
        LOCFRAME DOVERLAY, 0, STATIC
        ARGFRAME ISTACK, 0, STACK
        ARGFRAME PSTACK, 0, STACK
        ARGFRAME XSTACK, 22, STACK
        ARGFRAME IOVERLAY, 0, STATIC
        ARGFRAME DOVERLAY, 0, STATIC
        FUNCALL ZDSecMgrAddrStore, AddrMgrEntryUpdate
        LOCFRAME ISTACK, 0, STACK
        LOCFRAME PSTACK, 0, STACK
        LOCFRAME XSTACK, 22, STACK
        LOCFRAME IOVERLAY, 0, STATIC
        LOCFRAME DOVERLAY, 0, STATIC
        ARGFRAME ISTACK, 0, STACK
        ARGFRAME PSTACK, 0, STACK
        ARGFRAME XSTACK, 22, STACK
        ARGFRAME IOVERLAY, 0, STATIC
        ARGFRAME DOVERLAY, 0, STATIC
        MOV       A,#-0x9
        LCALL     ?BANKED_ENTER_XDATA
          CFI DPH0 load(1, XDATA, add(CFA_XSP16, literal(-1)))
          CFI DPL0 load(1, XDATA, add(CFA_XSP16, literal(-2)))
          CFI ?BRET_EXT load(1, XDATA, add(CFA_XSP16, literal(-3)))
          CFI ?RET_HIGH load(1, XDATA, add(CFA_XSP16, literal(-4)))
          CFI ?RET_LOW load(1, XDATA, add(CFA_XSP16, literal(-5)))
          CFI R7 load(1, XDATA, add(CFA_XSP16, literal(-6)))
          CFI V0 load(1, XDATA, add(CFA_XSP16, literal(-7)))
          CFI VB load(1, XDATA, add(CFA_XSP16, literal(-8)))
          CFI R6 load(1, XDATA, add(CFA_XSP16, literal(-9)))
          CFI CFA_SP SP+0
          CFI CFA_XSP16 add(XSP16, 9)
        ; Saved register size: 9
        ; Auto size: 13
        MOV       A,#-0xd
        LCALL     ?ALLOC_XSTACK8
          CFI CFA_XSP16 add(XSP16, 22)
//  262   ZStatus_t      status;
//  263   AddrMgrEntry_t entry;
//  264 
//  265 
//  266   // add entry
//  267   entry.user    = ADDRMGR_USER_SECURITY;
        MOV       DPL,?XSP + 0
        MOV       DPH,?XSP + 1
        MOV       A,#0x2
        MOVX      @DPTR,A
//  268   entry.nwkAddr = nwkAddr;
        DEC       A
        LCALL     ?XSTACK_DISP0_8
        LCALL     ??Subroutine62_0 & 0xFFFF
//  269   AddrMgrExtAddrSet( entry.extAddr, extAddr );
??CrossCallReturnLabel_103:
        ; Setup parameters for call to function AddrMgrExtAddrSet
        MOV       A,#0x3
        LCALL     ?XSTACK_DISP0_8
        MOV       R2,DPL
        MOV       R3,DPH
        LCALL     `??AddrMgrExtAddrSet::?relay`; Banked call to: AddrMgrExtAddrSet
        MOV       A,#0x16
        LCALL     ?XSTACK_DISP0_8
        LCALL     ?Subroutine27 & 0xFFFF
//  270 
//  271   if ( AddrMgrEntryUpdate( &entry ) == TRUE )
??CrossCallReturnLabel_24:
        JNZ       ??ZDSecMgrAddrStore_0
//  272   {
//  273     // return successful results
//  274     *ami   = entry.index;
        MOV       A,#0xb
        LCALL     ?XSTACK_DISP0_8
        LCALL     ?Subroutine14 & 0xFFFF
//  275     status = ZSuccess;
//  276   }
??CrossCallReturnLabel_53:
        SJMP      ??CrossCallReturnLabel_7
//  277   else
//  278   {
//  279     // return failed results
//  280     *ami   = entry.index;
??ZDSecMgrAddrStore_0:
        MOV       A,#0xb
        LCALL     ?XSTACK_DISP0_8
        LCALL     ?Subroutine17 & 0xFFFF
//  281     status = ZNwkUnknownDevice;
//  282   }
//  283 
//  284   return status;
??CrossCallReturnLabel_7:
        LJMP      ?Subroutine0 & 0xFFFF
//  285 }
          CFI EndBlock cfiBlock0

        RSEG BANKED_CODE:HUGECODE:NOROOT(0)
?Subroutine14:
          CFI Block cfiCond1 Using cfiCommon0
          CFI Function ZDSecMgrAddrStore
          CFI Conditional ??CrossCallReturnLabel_53
          CFI R6 load(1, XDATA, add(CFA_XSP16, literal(-9)))
          CFI VB load(1, XDATA, add(CFA_XSP16, literal(-8)))
          CFI V0 load(1, XDATA, add(CFA_XSP16, literal(-7)))
          CFI R7 load(1, XDATA, add(CFA_XSP16, literal(-6)))
          CFI ?RET_LOW load(1, XDATA, add(CFA_XSP16, literal(-5)))
          CFI ?RET_HIGH load(1, XDATA, add(CFA_XSP16, literal(-4)))
          CFI ?BRET_EXT load(1, XDATA, add(CFA_XSP16, literal(-3)))
          CFI DPL0 load(1, XDATA, add(CFA_XSP16, literal(-2)))
          CFI DPH0 load(1, XDATA, add(CFA_XSP16, literal(-1)))
          CFI CFA_SP SP+-2
          CFI CFA_XSP16 add(XSP16, 22)
          CFI Block cfiCond2 Using cfiCommon0
          CFI (cfiCond2) Function ZDSecMgrExtAddrStore
          CFI (cfiCond2) Conditional ??CrossCallReturnLabel_54
          CFI (cfiCond2) R6 load(1, XDATA, add(CFA_XSP16, literal(-9)))
          CFI (cfiCond2) VB load(1, XDATA, add(CFA_XSP16, literal(-8)))
          CFI (cfiCond2) V0 load(1, XDATA, add(CFA_XSP16, literal(-7)))
          CFI (cfiCond2) R7 load(1, XDATA, add(CFA_XSP16, literal(-6)))
          CFI (cfiCond2) ?RET_LOW load(1, XDATA, add(CFA_XSP16, literal(-5)))
          CFI (cfiCond2) ?RET_HIGH load(1, XDATA, add(CFA_XSP16, literal(-4)))
          CFI (cfiCond2) ?BRET_EXT load(1, XDATA, add(CFA_XSP16, literal(-3)))
          CFI (cfiCond2) DPL0 load(1, XDATA, add(CFA_XSP16, literal(-2)))
          CFI (cfiCond2) DPH0 load(1, XDATA, add(CFA_XSP16, literal(-1)))
          CFI (cfiCond2) CFA_SP SP+-2
          CFI (cfiCond2) CFA_XSP16 add(XSP16, 22)
          CFI Block cfiCond3 Using cfiCommon0
          CFI (cfiCond3) Function ZDSecMgrExtAddrLookup
          CFI (cfiCond3) Conditional ??CrossCallReturnLabel_55
          CFI (cfiCond3) R6 load(1, XDATA, add(CFA_XSP16, literal(-9)))
          CFI (cfiCond3) VB load(1, XDATA, add(CFA_XSP16, literal(-8)))
          CFI (cfiCond3) V0 load(1, XDATA, add(CFA_XSP16, literal(-7)))
          CFI (cfiCond3) R7 load(1, XDATA, add(CFA_XSP16, literal(-6)))
          CFI (cfiCond3) ?RET_LOW load(1, XDATA, add(CFA_XSP16, literal(-5)))
          CFI (cfiCond3) ?RET_HIGH load(1, XDATA, add(CFA_XSP16, literal(-4)))
          CFI (cfiCond3) ?BRET_EXT load(1, XDATA, add(CFA_XSP16, literal(-3)))
          CFI (cfiCond3) DPL0 load(1, XDATA, add(CFA_XSP16, literal(-2)))
          CFI (cfiCond3) DPH0 load(1, XDATA, add(CFA_XSP16, literal(-1)))
          CFI (cfiCond3) CFA_SP SP+-2
          CFI (cfiCond3) CFA_XSP16 add(XSP16, 22)
          CFI Block cfiPicker4 Using cfiCommon1
          CFI (cfiPicker4) NoFunction
          CFI (cfiPicker4) Picker
        LCALL     ?Subroutine50 & 0xFFFF
??CrossCallReturnLabel_49:
          CFI EndBlock cfiCond1
          CFI EndBlock cfiCond2
          CFI EndBlock cfiCond3
          CFI EndBlock cfiPicker4
        REQUIRE ??Subroutine55_0
        ; // Fall through to label ??Subroutine55_0

        RSEG BANKED_CODE:HUGECODE:NOROOT(0)
??Subroutine55_0:
          CFI Block cfiCond5 Using cfiCommon0
          CFI Function ZDSecMgrEntryLookupExtGetIndex
          CFI Conditional ??CrossCallReturnLabel_56
          CFI R6 load(1, XDATA, add(CFA_XSP16, literal(-9)))
          CFI VB load(1, XDATA, add(CFA_XSP16, literal(-8)))
          CFI V0 load(1, XDATA, add(CFA_XSP16, literal(-7)))
          CFI R7 load(1, XDATA, add(CFA_XSP16, literal(-6)))
          CFI ?RET_LOW load(1, XDATA, add(CFA_XSP16, literal(-5)))
          CFI ?RET_HIGH load(1, XDATA, add(CFA_XSP16, literal(-4)))
          CFI ?BRET_EXT load(1, XDATA, add(CFA_XSP16, literal(-3)))
          CFI DPL0 load(1, XDATA, add(CFA_XSP16, literal(-2)))
          CFI DPH0 load(1, XDATA, add(CFA_XSP16, literal(-1)))
          CFI CFA_SP SP+-2
          CFI CFA_XSP16 add(XSP16, 11)
          CFI Block cfiCond6 Using cfiCommon0
          CFI (cfiCond6) Function ZDSecMgrEntryLookupAMIGetIndex
          CFI (cfiCond6) Conditional ??CrossCallReturnLabel_57
          CFI (cfiCond6) R6 load(1, XDATA, add(CFA_XSP16, literal(-9)))
          CFI (cfiCond6) VB load(1, XDATA, add(CFA_XSP16, literal(-8)))
          CFI (cfiCond6) V0 load(1, XDATA, add(CFA_XSP16, literal(-7)))
          CFI (cfiCond6) R7 load(1, XDATA, add(CFA_XSP16, literal(-6)))
          CFI (cfiCond6) ?RET_LOW load(1, XDATA, add(CFA_XSP16, literal(-5)))
          CFI (cfiCond6) ?RET_HIGH load(1, XDATA, add(CFA_XSP16, literal(-4)))
          CFI (cfiCond6) ?BRET_EXT load(1, XDATA, add(CFA_XSP16, literal(-3)))
          CFI (cfiCond6) DPL0 load(1, XDATA, add(CFA_XSP16, literal(-2)))
          CFI (cfiCond6) DPH0 load(1, XDATA, add(CFA_XSP16, literal(-1)))
          CFI (cfiCond6) CFA_SP SP+-2
          CFI (cfiCond6) CFA_XSP16 add(XSP16, 9)
          CFI Block cfiCond7 Using cfiCommon0
          CFI (cfiCond7) Function ZDSecMgrAddrStore
          CFI (cfiCond7) Conditional ??CrossCallReturnLabel_53
          CFI (cfiCond7) R6 load(1, XDATA, add(CFA_XSP16, literal(-9)))
          CFI (cfiCond7) VB load(1, XDATA, add(CFA_XSP16, literal(-8)))
          CFI (cfiCond7) V0 load(1, XDATA, add(CFA_XSP16, literal(-7)))
          CFI (cfiCond7) R7 load(1, XDATA, add(CFA_XSP16, literal(-6)))
          CFI (cfiCond7) ?RET_LOW load(1, XDATA, add(CFA_XSP16, literal(-5)))
          CFI (cfiCond7) ?RET_HIGH load(1, XDATA, add(CFA_XSP16, literal(-4)))
          CFI (cfiCond7) ?BRET_EXT load(1, XDATA, add(CFA_XSP16, literal(-3)))
          CFI (cfiCond7) DPL0 load(1, XDATA, add(CFA_XSP16, literal(-2)))
          CFI (cfiCond7) DPH0 load(1, XDATA, add(CFA_XSP16, literal(-1)))
          CFI (cfiCond7) CFA_SP SP+-2
          CFI (cfiCond7) CFA_XSP16 add(XSP16, 22)
          CFI Block cfiCond8 Using cfiCommon0
          CFI (cfiCond8) Function ZDSecMgrExtAddrStore
          CFI (cfiCond8) Conditional ??CrossCallReturnLabel_54
          CFI (cfiCond8) R6 load(1, XDATA, add(CFA_XSP16, literal(-9)))
          CFI (cfiCond8) VB load(1, XDATA, add(CFA_XSP16, literal(-8)))
          CFI (cfiCond8) V0 load(1, XDATA, add(CFA_XSP16, literal(-7)))
          CFI (cfiCond8) R7 load(1, XDATA, add(CFA_XSP16, literal(-6)))
          CFI (cfiCond8) ?RET_LOW load(1, XDATA, add(CFA_XSP16, literal(-5)))
          CFI (cfiCond8) ?RET_HIGH load(1, XDATA, add(CFA_XSP16, literal(-4)))
          CFI (cfiCond8) ?BRET_EXT load(1, XDATA, add(CFA_XSP16, literal(-3)))
          CFI (cfiCond8) DPL0 load(1, XDATA, add(CFA_XSP16, literal(-2)))
          CFI (cfiCond8) DPH0 load(1, XDATA, add(CFA_XSP16, literal(-1)))
          CFI (cfiCond8) CFA_SP SP+-2
          CFI (cfiCond8) CFA_XSP16 add(XSP16, 22)
          CFI Block cfiCond9 Using cfiCommon0
          CFI (cfiCond9) Function ZDSecMgrExtAddrLookup
          CFI (cfiCond9) Conditional ??CrossCallReturnLabel_55
          CFI (cfiCond9) R6 load(1, XDATA, add(CFA_XSP16, literal(-9)))
          CFI (cfiCond9) VB load(1, XDATA, add(CFA_XSP16, literal(-8)))
          CFI (cfiCond9) V0 load(1, XDATA, add(CFA_XSP16, literal(-7)))
          CFI (cfiCond9) R7 load(1, XDATA, add(CFA_XSP16, literal(-6)))
          CFI (cfiCond9) ?RET_LOW load(1, XDATA, add(CFA_XSP16, literal(-5)))
          CFI (cfiCond9) ?RET_HIGH load(1, XDATA, add(CFA_XSP16, literal(-4)))
          CFI (cfiCond9) ?BRET_EXT load(1, XDATA, add(CFA_XSP16, literal(-3)))
          CFI (cfiCond9) DPL0 load(1, XDATA, add(CFA_XSP16, literal(-2)))
          CFI (cfiCond9) DPH0 load(1, XDATA, add(CFA_XSP16, literal(-1)))
          CFI (cfiCond9) CFA_SP SP+-2
          CFI (cfiCond9) CFA_XSP16 add(XSP16, 22)
          CFI Block cfiPicker10 Using cfiCommon1
          CFI (cfiPicker10) NoFunction
          CFI (cfiPicker10) Picker
        LCALL     ?Subroutine48 & 0xFFFF
??CrossCallReturnLabel_101:
        MOV       R1,#0x0
        RET
          CFI EndBlock cfiCond5
          CFI EndBlock cfiCond6
          CFI EndBlock cfiCond7
          CFI EndBlock cfiCond8
          CFI EndBlock cfiCond9
          CFI EndBlock cfiPicker10
//  286 
//  287 /******************************************************************************
//  288  * @fn          ZDSecMgrExtAddrStore
//  289  *
//  290  * @brief       Store EXT address.
//  291  *
//  292  * @param       extAddr - [in] EXT address
//  293  * @param       ami     - [out] Address Manager index
//  294  *
//  295  * @return      ZStatus_t
//  296  */

        RSEG BANKED_CODE:HUGECODE:NOROOT(0)
//  297 ZStatus_t ZDSecMgrExtAddrStore( uint16 nwkAddr, uint8* extAddr, uint16* ami )
ZDSecMgrExtAddrStore:
          CFI Block cfiBlock11 Using cfiCommon0
          CFI Function ZDSecMgrExtAddrStore
        CODE
//  298 {
        FUNCALL ZDSecMgrExtAddrStore, AddrMgrExtAddrSet
        LOCFRAME ISTACK, 0, STACK
        LOCFRAME PSTACK, 0, STACK
        LOCFRAME XSTACK, 22, STACK
        LOCFRAME IOVERLAY, 0, STATIC
        LOCFRAME DOVERLAY, 0, STATIC
        ARGFRAME ISTACK, 0, STACK
        ARGFRAME PSTACK, 0, STACK
        ARGFRAME XSTACK, 22, STACK
        ARGFRAME IOVERLAY, 0, STATIC
        ARGFRAME DOVERLAY, 0, STATIC
        FUNCALL ZDSecMgrExtAddrStore, AddrMgrEntryUpdate
        LOCFRAME ISTACK, 0, STACK
        LOCFRAME PSTACK, 0, STACK
        LOCFRAME XSTACK, 22, STACK
        LOCFRAME IOVERLAY, 0, STATIC
        LOCFRAME DOVERLAY, 0, STATIC
        ARGFRAME ISTACK, 0, STACK
        ARGFRAME PSTACK, 0, STACK
        ARGFRAME XSTACK, 22, STACK
        ARGFRAME IOVERLAY, 0, STATIC
        ARGFRAME DOVERLAY, 0, STATIC
        MOV       A,#-0x9
        LCALL     ?BANKED_ENTER_XDATA
          CFI DPH0 load(1, XDATA, add(CFA_XSP16, literal(-1)))
          CFI DPL0 load(1, XDATA, add(CFA_XSP16, literal(-2)))
          CFI ?BRET_EXT load(1, XDATA, add(CFA_XSP16, literal(-3)))
          CFI ?RET_HIGH load(1, XDATA, add(CFA_XSP16, literal(-4)))
          CFI ?RET_LOW load(1, XDATA, add(CFA_XSP16, literal(-5)))
          CFI R7 load(1, XDATA, add(CFA_XSP16, literal(-6)))
          CFI V0 load(1, XDATA, add(CFA_XSP16, literal(-7)))
          CFI VB load(1, XDATA, add(CFA_XSP16, literal(-8)))
          CFI R6 load(1, XDATA, add(CFA_XSP16, literal(-9)))
          CFI CFA_SP SP+0
          CFI CFA_XSP16 add(XSP16, 9)
        ; Saved register size: 9
        ; Auto size: 13
        MOV       A,#-0xd
        LCALL     ?ALLOC_XSTACK8
          CFI CFA_XSP16 add(XSP16, 22)
//  299   ZStatus_t      status;
//  300   AddrMgrEntry_t entry;
//  301 
//  302 
//  303   // add entry
//  304   entry.user    = ADDRMGR_USER_SECURITY;
        MOV       DPL,?XSP + 0
        MOV       DPH,?XSP + 1
        MOV       A,#0x2
        MOVX      @DPTR,A
//  305   entry.nwkAddr = nwkAddr;
        DEC       A
        LCALL     ?XSTACK_DISP0_8
        LCALL     ??Subroutine62_0 & 0xFFFF
//  306   AddrMgrExtAddrSet( entry.extAddr, extAddr );
??CrossCallReturnLabel_104:
        ; Setup parameters for call to function AddrMgrExtAddrSet
        MOV       A,#0x3
        LCALL     ?XSTACK_DISP0_8
        MOV       R2,DPL
        MOV       R3,DPH
        LCALL     `??AddrMgrExtAddrSet::?relay`; Banked call to: AddrMgrExtAddrSet
        MOV       A,#0x16
        LCALL     ?XSTACK_DISP0_8
        LCALL     ?Subroutine27 & 0xFFFF
//  307 
//  308   if ( AddrMgrEntryUpdate( &entry ) == TRUE )
??CrossCallReturnLabel_25:
        JNZ       ??ZDSecMgrExtAddrStore_0
//  309   {
//  310     // return successful results
//  311     *ami   = entry.index;
        MOV       A,#0xb
        LCALL     ?XSTACK_DISP0_8
        LCALL     ?Subroutine14 & 0xFFFF
//  312     status = ZSuccess;
//  313   }
??CrossCallReturnLabel_54:
        SJMP      ??CrossCallReturnLabel_8
//  314   else
//  315   {
//  316     // return failed results
//  317     *ami   = entry.index;
??ZDSecMgrExtAddrStore_0:
        MOV       A,#0xb
        LCALL     ?XSTACK_DISP0_8
        LCALL     ?Subroutine17 & 0xFFFF
//  318     status = ZNwkUnknownDevice;
//  319   }
//  320 
//  321   return status;
??CrossCallReturnLabel_8:
        LJMP      ?Subroutine0 & 0xFFFF
//  322 }
          CFI EndBlock cfiBlock11

        RSEG BANKED_CODE:HUGECODE:NOROOT(0)
?Subroutine27:
          CFI Block cfiCond12 Using cfiCommon0
          CFI Function ZDSecMgrAddrStore
          CFI Conditional ??CrossCallReturnLabel_24
          CFI R6 load(1, XDATA, add(CFA_XSP16, literal(-9)))
          CFI VB load(1, XDATA, add(CFA_XSP16, literal(-8)))
          CFI V0 load(1, XDATA, add(CFA_XSP16, literal(-7)))
          CFI R7 load(1, XDATA, add(CFA_XSP16, literal(-6)))
          CFI ?RET_LOW load(1, XDATA, add(CFA_XSP16, literal(-5)))
          CFI ?RET_HIGH load(1, XDATA, add(CFA_XSP16, literal(-4)))
          CFI ?BRET_EXT load(1, XDATA, add(CFA_XSP16, literal(-3)))
          CFI DPL0 load(1, XDATA, add(CFA_XSP16, literal(-2)))
          CFI DPH0 load(1, XDATA, add(CFA_XSP16, literal(-1)))
          CFI CFA_SP SP+-2
          CFI CFA_XSP16 add(XSP16, 22)
          CFI Block cfiCond13 Using cfiCommon0
          CFI (cfiCond13) Function ZDSecMgrExtAddrStore
          CFI (cfiCond13) Conditional ??CrossCallReturnLabel_25
          CFI (cfiCond13) R6 load(1, XDATA, add(CFA_XSP16, literal(-9)))
          CFI (cfiCond13) VB load(1, XDATA, add(CFA_XSP16, literal(-8)))
          CFI (cfiCond13) V0 load(1, XDATA, add(CFA_XSP16, literal(-7)))
          CFI (cfiCond13) R7 load(1, XDATA, add(CFA_XSP16, literal(-6)))
          CFI (cfiCond13) ?RET_LOW load(1, XDATA, add(CFA_XSP16, literal(-5)))
          CFI (cfiCond13) ?RET_HIGH load(1, XDATA, add(CFA_XSP16, literal(-4)))
          CFI (cfiCond13) ?BRET_EXT load(1, XDATA, add(CFA_XSP16, literal(-3)))
          CFI (cfiCond13) DPL0 load(1, XDATA, add(CFA_XSP16, literal(-2)))
          CFI (cfiCond13) DPH0 load(1, XDATA, add(CFA_XSP16, literal(-1)))
          CFI (cfiCond13) CFA_SP SP+-2
          CFI (cfiCond13) CFA_XSP16 add(XSP16, 22)
          CFI Block cfiPicker14 Using cfiCommon1
          CFI (cfiPicker14) NoFunction
          CFI (cfiPicker14) Picker
        LCALL     ?Subroutine51 & 0xFFFF
??CrossCallReturnLabel_148:
        MOV       R6,A
        MOV       A,R1
        MOV       R7,A
        ; Setup parameters for call to function AddrMgrEntryUpdate
        ; Setup parameters for call to function AddrMgrEntryUpdate
        MOV       R2,?XSP + 0
        MOV       R3,?XSP + 1
        LCALL     `??AddrMgrEntryUpdate::?relay`; Banked call to: AddrMgrEntryUpdate
        MOV       A,R1
        XRL       A,#0x1
        RET
          CFI EndBlock cfiCond12
          CFI EndBlock cfiCond13
          CFI EndBlock cfiPicker14

        RSEG BANKED_CODE:HUGECODE:NOROOT(0)
?Subroutine17:
          CFI Block cfiCond15 Using cfiCommon0
          CFI Function ZDSecMgrAddrStore
          CFI Conditional ??CrossCallReturnLabel_7
          CFI R6 load(1, XDATA, add(CFA_XSP16, literal(-9)))
          CFI VB load(1, XDATA, add(CFA_XSP16, literal(-8)))
          CFI V0 load(1, XDATA, add(CFA_XSP16, literal(-7)))
          CFI R7 load(1, XDATA, add(CFA_XSP16, literal(-6)))
          CFI ?RET_LOW load(1, XDATA, add(CFA_XSP16, literal(-5)))
          CFI ?RET_HIGH load(1, XDATA, add(CFA_XSP16, literal(-4)))
          CFI ?BRET_EXT load(1, XDATA, add(CFA_XSP16, literal(-3)))
          CFI DPL0 load(1, XDATA, add(CFA_XSP16, literal(-2)))
          CFI DPH0 load(1, XDATA, add(CFA_XSP16, literal(-1)))
          CFI CFA_SP SP+-2
          CFI CFA_XSP16 add(XSP16, 22)
          CFI Block cfiCond16 Using cfiCommon0
          CFI (cfiCond16) Function ZDSecMgrExtAddrStore
          CFI (cfiCond16) Conditional ??CrossCallReturnLabel_8
          CFI (cfiCond16) R6 load(1, XDATA, add(CFA_XSP16, literal(-9)))
          CFI (cfiCond16) VB load(1, XDATA, add(CFA_XSP16, literal(-8)))
          CFI (cfiCond16) V0 load(1, XDATA, add(CFA_XSP16, literal(-7)))
          CFI (cfiCond16) R7 load(1, XDATA, add(CFA_XSP16, literal(-6)))
          CFI (cfiCond16) ?RET_LOW load(1, XDATA, add(CFA_XSP16, literal(-5)))
          CFI (cfiCond16) ?RET_HIGH load(1, XDATA, add(CFA_XSP16, literal(-4)))
          CFI (cfiCond16) ?BRET_EXT load(1, XDATA, add(CFA_XSP16, literal(-3)))
          CFI (cfiCond16) DPL0 load(1, XDATA, add(CFA_XSP16, literal(-2)))
          CFI (cfiCond16) DPH0 load(1, XDATA, add(CFA_XSP16, literal(-1)))
          CFI (cfiCond16) CFA_SP SP+-2
          CFI (cfiCond16) CFA_XSP16 add(XSP16, 22)
          CFI Block cfiCond17 Using cfiCommon0
          CFI (cfiCond17) Function ZDSecMgrExtAddrLookup
          CFI (cfiCond17) Conditional ??CrossCallReturnLabel_9
          CFI (cfiCond17) R6 load(1, XDATA, add(CFA_XSP16, literal(-9)))
          CFI (cfiCond17) VB load(1, XDATA, add(CFA_XSP16, literal(-8)))
          CFI (cfiCond17) V0 load(1, XDATA, add(CFA_XSP16, literal(-7)))
          CFI (cfiCond17) R7 load(1, XDATA, add(CFA_XSP16, literal(-6)))
          CFI (cfiCond17) ?RET_LOW load(1, XDATA, add(CFA_XSP16, literal(-5)))
          CFI (cfiCond17) ?RET_HIGH load(1, XDATA, add(CFA_XSP16, literal(-4)))
          CFI (cfiCond17) ?BRET_EXT load(1, XDATA, add(CFA_XSP16, literal(-3)))
          CFI (cfiCond17) DPL0 load(1, XDATA, add(CFA_XSP16, literal(-2)))
          CFI (cfiCond17) DPH0 load(1, XDATA, add(CFA_XSP16, literal(-1)))
          CFI (cfiCond17) CFA_SP SP+-2
          CFI (cfiCond17) CFA_XSP16 add(XSP16, 22)
          CFI Block cfiPicker18 Using cfiCommon1
          CFI (cfiPicker18) NoFunction
          CFI (cfiPicker18) Picker
        LCALL     ?Subroutine50 & 0xFFFF
??CrossCallReturnLabel_50:
        LCALL     ?Subroutine48 & 0xFFFF
??CrossCallReturnLabel_98:
        MOV       R1,#-0x38
        RET
          CFI EndBlock cfiCond15
          CFI EndBlock cfiCond16
          CFI EndBlock cfiCond17
          CFI EndBlock cfiPicker18

        RSEG BANKED_CODE:HUGECODE:NOROOT(0)
?Subroutine50:
          CFI Block cfiCond19 Using cfiCommon0
          CFI Function ZDSecMgrAddrStore
          CFI Conditional ??CrossCallReturnLabel_49, ??CrossCallReturnLabel_53
          CFI R6 load(1, XDATA, add(CFA_XSP16, literal(-9)))
          CFI VB load(1, XDATA, add(CFA_XSP16, literal(-8)))
          CFI V0 load(1, XDATA, add(CFA_XSP16, literal(-7)))
          CFI R7 load(1, XDATA, add(CFA_XSP16, literal(-6)))
          CFI ?RET_LOW load(1, XDATA, add(CFA_XSP16, literal(-5)))
          CFI ?RET_HIGH load(1, XDATA, add(CFA_XSP16, literal(-4)))
          CFI ?BRET_EXT load(1, XDATA, add(CFA_XSP16, literal(-3)))
          CFI DPL0 load(1, XDATA, add(CFA_XSP16, literal(-2)))
          CFI DPH0 load(1, XDATA, add(CFA_XSP16, literal(-1)))
          CFI CFA_SP SP+-4
          CFI CFA_XSP16 add(XSP16, 22)
          CFI Block cfiCond20 Using cfiCommon0
          CFI (cfiCond20) Function ZDSecMgrExtAddrStore
          CFI (cfiCond20) Conditional ??CrossCallReturnLabel_49, ??CrossCallReturnLabel_54
          CFI (cfiCond20) R6 load(1, XDATA, add(CFA_XSP16, literal(-9)))
          CFI (cfiCond20) VB load(1, XDATA, add(CFA_XSP16, literal(-8)))
          CFI (cfiCond20) V0 load(1, XDATA, add(CFA_XSP16, literal(-7)))
          CFI (cfiCond20) R7 load(1, XDATA, add(CFA_XSP16, literal(-6)))
          CFI (cfiCond20) ?RET_LOW load(1, XDATA, add(CFA_XSP16, literal(-5)))
          CFI (cfiCond20) ?RET_HIGH load(1, XDATA, add(CFA_XSP16, literal(-4)))
          CFI (cfiCond20) ?BRET_EXT load(1, XDATA, add(CFA_XSP16, literal(-3)))
          CFI (cfiCond20) DPL0 load(1, XDATA, add(CFA_XSP16, literal(-2)))
          CFI (cfiCond20) DPH0 load(1, XDATA, add(CFA_XSP16, literal(-1)))
          CFI (cfiCond20) CFA_SP SP+-4
          CFI (cfiCond20) CFA_XSP16 add(XSP16, 22)
          CFI Block cfiCond21 Using cfiCommon0
          CFI (cfiCond21) Function ZDSecMgrExtAddrLookup
          CFI (cfiCond21) Conditional ??CrossCallReturnLabel_49, ??CrossCallReturnLabel_55
          CFI (cfiCond21) R6 load(1, XDATA, add(CFA_XSP16, literal(-9)))
          CFI (cfiCond21) VB load(1, XDATA, add(CFA_XSP16, literal(-8)))
          CFI (cfiCond21) V0 load(1, XDATA, add(CFA_XSP16, literal(-7)))
          CFI (cfiCond21) R7 load(1, XDATA, add(CFA_XSP16, literal(-6)))
          CFI (cfiCond21) ?RET_LOW load(1, XDATA, add(CFA_XSP16, literal(-5)))
          CFI (cfiCond21) ?RET_HIGH load(1, XDATA, add(CFA_XSP16, literal(-4)))
          CFI (cfiCond21) ?BRET_EXT load(1, XDATA, add(CFA_XSP16, literal(-3)))
          CFI (cfiCond21) DPL0 load(1, XDATA, add(CFA_XSP16, literal(-2)))
          CFI (cfiCond21) DPH0 load(1, XDATA, add(CFA_XSP16, literal(-1)))
          CFI (cfiCond21) CFA_SP SP+-4
          CFI (cfiCond21) CFA_XSP16 add(XSP16, 22)
          CFI Block cfiCond22 Using cfiCommon0
          CFI (cfiCond22) Function ZDSecMgrAddrStore
          CFI (cfiCond22) Conditional ??CrossCallReturnLabel_50, ??CrossCallReturnLabel_7
          CFI (cfiCond22) R6 load(1, XDATA, add(CFA_XSP16, literal(-9)))
          CFI (cfiCond22) VB load(1, XDATA, add(CFA_XSP16, literal(-8)))
          CFI (cfiCond22) V0 load(1, XDATA, add(CFA_XSP16, literal(-7)))
          CFI (cfiCond22) R7 load(1, XDATA, add(CFA_XSP16, literal(-6)))
          CFI (cfiCond22) ?RET_LOW load(1, XDATA, add(CFA_XSP16, literal(-5)))
          CFI (cfiCond22) ?RET_HIGH load(1, XDATA, add(CFA_XSP16, literal(-4)))
          CFI (cfiCond22) ?BRET_EXT load(1, XDATA, add(CFA_XSP16, literal(-3)))
          CFI (cfiCond22) DPL0 load(1, XDATA, add(CFA_XSP16, literal(-2)))
          CFI (cfiCond22) DPH0 load(1, XDATA, add(CFA_XSP16, literal(-1)))
          CFI (cfiCond22) CFA_SP SP+-4
          CFI (cfiCond22) CFA_XSP16 add(XSP16, 22)
          CFI Block cfiCond23 Using cfiCommon0
          CFI (cfiCond23) Function ZDSecMgrExtAddrStore
          CFI (cfiCond23) Conditional ??CrossCallReturnLabel_50, ??CrossCallReturnLabel_8
          CFI (cfiCond23) R6 load(1, XDATA, add(CFA_XSP16, literal(-9)))
          CFI (cfiCond23) VB load(1, XDATA, add(CFA_XSP16, literal(-8)))
          CFI (cfiCond23) V0 load(1, XDATA, add(CFA_XSP16, literal(-7)))
          CFI (cfiCond23) R7 load(1, XDATA, add(CFA_XSP16, literal(-6)))
          CFI (cfiCond23) ?RET_LOW load(1, XDATA, add(CFA_XSP16, literal(-5)))
          CFI (cfiCond23) ?RET_HIGH load(1, XDATA, add(CFA_XSP16, literal(-4)))
          CFI (cfiCond23) ?BRET_EXT load(1, XDATA, add(CFA_XSP16, literal(-3)))
          CFI (cfiCond23) DPL0 load(1, XDATA, add(CFA_XSP16, literal(-2)))
          CFI (cfiCond23) DPH0 load(1, XDATA, add(CFA_XSP16, literal(-1)))
          CFI (cfiCond23) CFA_SP SP+-4
          CFI (cfiCond23) CFA_XSP16 add(XSP16, 22)
          CFI Block cfiCond24 Using cfiCommon0
          CFI (cfiCond24) Function ZDSecMgrExtAddrLookup
          CFI (cfiCond24) Conditional ??CrossCallReturnLabel_50, ??CrossCallReturnLabel_9
          CFI (cfiCond24) R6 load(1, XDATA, add(CFA_XSP16, literal(-9)))
          CFI (cfiCond24) VB load(1, XDATA, add(CFA_XSP16, literal(-8)))
          CFI (cfiCond24) V0 load(1, XDATA, add(CFA_XSP16, literal(-7)))
          CFI (cfiCond24) R7 load(1, XDATA, add(CFA_XSP16, literal(-6)))
          CFI (cfiCond24) ?RET_LOW load(1, XDATA, add(CFA_XSP16, literal(-5)))
          CFI (cfiCond24) ?RET_HIGH load(1, XDATA, add(CFA_XSP16, literal(-4)))
          CFI (cfiCond24) ?BRET_EXT load(1, XDATA, add(CFA_XSP16, literal(-3)))
          CFI (cfiCond24) DPL0 load(1, XDATA, add(CFA_XSP16, literal(-2)))
          CFI (cfiCond24) DPH0 load(1, XDATA, add(CFA_XSP16, literal(-1)))
          CFI (cfiCond24) CFA_SP SP+-4
          CFI (cfiCond24) CFA_XSP16 add(XSP16, 22)
          CFI Block cfiPicker25 Using cfiCommon1
          CFI (cfiPicker25) NoFunction
          CFI (cfiPicker25) Picker
        MOVX      A,@DPTR
        MOV       R0,A
        INC       DPTR
        MOVX      A,@DPTR
        MOV       R1,A
        MOV       DPL,R6
        MOV       DPH,R7
        RET
          CFI EndBlock cfiCond19
          CFI EndBlock cfiCond20
          CFI EndBlock cfiCond21
          CFI EndBlock cfiCond22
          CFI EndBlock cfiCond23
          CFI EndBlock cfiCond24
          CFI EndBlock cfiPicker25
//  323 
//  324 /******************************************************************************
//  325  * @fn          ZDSecMgrExtAddrLookup
//  326  *
//  327  * @brief       Lookup index for specified EXT address.
//  328  *
//  329  * @param       extAddr - [in] EXT address
//  330  * @param       ami     - [out] Address Manager index
//  331  *
//  332  * @return      ZStatus_t
//  333  */

        RSEG BANKED_CODE:HUGECODE:NOROOT(0)
//  334 ZStatus_t ZDSecMgrExtAddrLookup( uint8* extAddr, uint16* ami )
ZDSecMgrExtAddrLookup:
          CFI Block cfiBlock26 Using cfiCommon0
          CFI Function ZDSecMgrExtAddrLookup
        CODE
//  335 {
        FUNCALL ZDSecMgrExtAddrLookup, AddrMgrExtAddrSet
        LOCFRAME ISTACK, 0, STACK
        LOCFRAME PSTACK, 0, STACK
        LOCFRAME XSTACK, 22, STACK
        LOCFRAME IOVERLAY, 0, STATIC
        LOCFRAME DOVERLAY, 0, STATIC
        ARGFRAME ISTACK, 0, STACK
        ARGFRAME PSTACK, 0, STACK
        ARGFRAME XSTACK, 22, STACK
        ARGFRAME IOVERLAY, 0, STATIC
        ARGFRAME DOVERLAY, 0, STATIC
        FUNCALL ZDSecMgrExtAddrLookup, AddrMgrEntryLookupExt
        LOCFRAME ISTACK, 0, STACK
        LOCFRAME PSTACK, 0, STACK
        LOCFRAME XSTACK, 22, STACK
        LOCFRAME IOVERLAY, 0, STATIC
        LOCFRAME DOVERLAY, 0, STATIC
        ARGFRAME ISTACK, 0, STACK
        ARGFRAME PSTACK, 0, STACK
        ARGFRAME XSTACK, 22, STACK
        ARGFRAME IOVERLAY, 0, STATIC
        ARGFRAME DOVERLAY, 0, STATIC
        MOV       A,#-0x9
        LCALL     ?BANKED_ENTER_XDATA
          CFI DPH0 load(1, XDATA, add(CFA_XSP16, literal(-1)))
          CFI DPL0 load(1, XDATA, add(CFA_XSP16, literal(-2)))
          CFI ?BRET_EXT load(1, XDATA, add(CFA_XSP16, literal(-3)))
          CFI ?RET_HIGH load(1, XDATA, add(CFA_XSP16, literal(-4)))
          CFI ?RET_LOW load(1, XDATA, add(CFA_XSP16, literal(-5)))
          CFI R7 load(1, XDATA, add(CFA_XSP16, literal(-6)))
          CFI V0 load(1, XDATA, add(CFA_XSP16, literal(-7)))
          CFI VB load(1, XDATA, add(CFA_XSP16, literal(-8)))
          CFI R6 load(1, XDATA, add(CFA_XSP16, literal(-9)))
          CFI CFA_SP SP+0
          CFI CFA_XSP16 add(XSP16, 9)
        ; Saved register size: 9
        ; Auto size: 13
        MOV       A,#-0xd
        LCALL     ?ALLOC_XSTACK8
          CFI CFA_XSP16 add(XSP16, 22)
        MOV       A,R4
        MOV       R6,A
        MOV       A,R5
        MOV       R7,A
//  336   ZStatus_t      status;
//  337   AddrMgrEntry_t entry;
//  338 
//  339 
//  340   // lookup entry
//  341   entry.user = ADDRMGR_USER_SECURITY;
        MOV       DPL,?XSP + 0
        MOV       DPH,?XSP + 1
        MOV       A,#0x2
        MOVX      @DPTR,A
//  342   AddrMgrExtAddrSet( entry.extAddr, extAddr );
        ; Setup parameters for call to function AddrMgrExtAddrSet
        MOV       A,R2
        MOV       R4,A
        MOV       A,R3
        MOV       R5,A
        MOV       A,#0x3
        LCALL     ?XSTACK_DISP0_8
        MOV       R2,DPL
        MOV       R3,DPH
        LCALL     `??AddrMgrExtAddrSet::?relay`; Banked call to: AddrMgrExtAddrSet
//  343 
//  344   if ( AddrMgrEntryLookupExt( &entry ) == TRUE )
        ; Setup parameters for call to function AddrMgrEntryLookupExt
        MOV       R2,?XSP + 0
        MOV       R3,?XSP + 1
        LCALL     `??AddrMgrEntryLookupExt::?relay`; Banked call to: AddrMgrEntryLookupExt
        MOV       A,R1
        XRL       A,#0x1
        JNZ       ??ZDSecMgrExtAddrLookup_0
//  345   {
//  346     // return successful results
//  347     *ami   = entry.index;
        MOV       A,#0xb
        LCALL     ?XSTACK_DISP0_8
        LCALL     ?Subroutine14 & 0xFFFF
//  348     status = ZSuccess;
//  349   }
??CrossCallReturnLabel_55:
        SJMP      ??CrossCallReturnLabel_9
//  350   else
//  351   {
//  352     // return failed results
//  353     *ami   = entry.index;
??ZDSecMgrExtAddrLookup_0:
        MOV       A,#0xb
        LCALL     ?XSTACK_DISP0_8
        LCALL     ?Subroutine17 & 0xFFFF
//  354     status = ZNwkUnknownDevice;
//  355   }
//  356 
//  357   return status;
??CrossCallReturnLabel_9:
        LJMP      ?Subroutine0 & 0xFFFF
//  358 }
          CFI EndBlock cfiBlock26
//  359 
//  360 /******************************************************************************
//  361  * @fn          ZDSecMgrAddrClear
//  362  *
//  363  * @brief       Clear security bit from Address Manager for specific device.
//  364  *
//  365  * @param       extAddr - [in] EXT address
//  366  *
//  367  * @return      ZStatus_t
//  368  */

        RSEG BANKED_CODE:HUGECODE:NOROOT(0)
//  369 ZStatus_t ZDSecMgrAddrClear( uint8* extAddr )
ZDSecMgrAddrClear:
          CFI Block cfiBlock27 Using cfiCommon0
          CFI Function ZDSecMgrAddrClear
        CODE
//  370 {
        FUNCALL ZDSecMgrAddrClear, ZDSecMgrExtAddrLookup
        LOCFRAME ISTACK, 0, STACK
        LOCFRAME PSTACK, 0, STACK
        LOCFRAME XSTACK, 24, STACK
        LOCFRAME IOVERLAY, 0, STATIC
        LOCFRAME DOVERLAY, 0, STATIC
        ARGFRAME ISTACK, 0, STACK
        ARGFRAME PSTACK, 0, STACK
        ARGFRAME XSTACK, 24, STACK
        ARGFRAME IOVERLAY, 0, STATIC
        ARGFRAME DOVERLAY, 0, STATIC
        FUNCALL ZDSecMgrAddrClear, AddrMgrEntryRelease
        LOCFRAME ISTACK, 0, STACK
        LOCFRAME PSTACK, 0, STACK
        LOCFRAME XSTACK, 24, STACK
        LOCFRAME IOVERLAY, 0, STATIC
        LOCFRAME DOVERLAY, 0, STATIC
        ARGFRAME ISTACK, 0, STACK
        ARGFRAME PSTACK, 0, STACK
        ARGFRAME XSTACK, 24, STACK
        ARGFRAME IOVERLAY, 0, STATIC
        ARGFRAME DOVERLAY, 0, STATIC
        MOV       A,#-0x9
        LCALL     ?BANKED_ENTER_XDATA
          CFI DPH0 load(1, XDATA, add(CFA_XSP16, literal(-1)))
          CFI DPL0 load(1, XDATA, add(CFA_XSP16, literal(-2)))
          CFI ?BRET_EXT load(1, XDATA, add(CFA_XSP16, literal(-3)))
          CFI ?RET_HIGH load(1, XDATA, add(CFA_XSP16, literal(-4)))
          CFI ?RET_LOW load(1, XDATA, add(CFA_XSP16, literal(-5)))
          CFI R7 load(1, XDATA, add(CFA_XSP16, literal(-6)))
          CFI V0 load(1, XDATA, add(CFA_XSP16, literal(-7)))
          CFI VB load(1, XDATA, add(CFA_XSP16, literal(-8)))
          CFI R6 load(1, XDATA, add(CFA_XSP16, literal(-9)))
          CFI CFA_SP SP+0
          CFI CFA_XSP16 add(XSP16, 9)
        ; Saved register size: 9
        ; Auto size: 15
        MOV       A,#-0xf
        LCALL     ?ALLOC_XSTACK8
          CFI CFA_XSP16 add(XSP16, 24)
//  371   ZStatus_t status;
//  372   uint16 entryAmi;
//  373 
//  374   // get Address Manager Index
//  375   status = ZDSecMgrExtAddrLookup( extAddr, &entryAmi );
        ; Setup parameters for call to function ZDSecMgrExtAddrLookup
        MOV       R4,?XSP + 0
        MOV       R5,?XSP + 1
        LCALL     `??ZDSecMgrExtAddrLookup::?relay`; Banked call to: ZDSecMgrExtAddrLookup
        MOV       A,R1
        MOV       R6,A
//  376 
//  377   if ( status == ZSuccess )
        JNZ       ??ZDSecMgrAddrClear_0
//  378   {
//  379     AddrMgrEntry_t addrEntry;
//  380 
//  381     // Clear SECURITY User bit from the address manager
//  382     addrEntry.user = ADDRMGR_USER_SECURITY;
        MOV       A,#0x2
        LCALL     ?XSTACK_DISP0_8
        MOV       A,#0x2
        MOVX      @DPTR,A
//  383     addrEntry.index = entryAmi;
        MOV       DPL,?XSP + 0
        MOV       DPH,?XSP + 1
        LCALL     ??Subroutine77_0 & 0xFFFF
??CrossCallReturnLabel_157:
        MOV       A,#0xd
        LCALL     ?XSTACK_DISP0_8
        LCALL     ?Subroutine18 & 0xFFFF
//  384 
//  385     if ( AddrMgrEntryRelease( &addrEntry ) != TRUE )
??CrossCallReturnLabel_10:
        LCALL     ?XSTACK_DISP101_8
        LCALL     `??AddrMgrEntryRelease::?relay`; Banked call to: AddrMgrEntryRelease
        MOV       A,R1
        XRL       A,#0x1
        JZ        ??ZDSecMgrAddrClear_0
//  386     {
//  387       // return failure results
//  388       status = ZFailure;
        MOV       R6,#0x1
//  389     }
//  390   }
//  391 
//  392   return status;
??ZDSecMgrAddrClear_0:
        MOV       A,R6
        MOV       R1,A
        MOV       A,#0xf
        LJMP      ??Subroutine66_0 & 0xFFFF
//  393 }
          CFI EndBlock cfiBlock27
//  394 
//  395 /******************************************************************************
//  396  * @fn          ZDSecMgrEntryInit
//  397  *
//  398  * @brief       Initialize entry sub module
//  399  *
//  400  * @param       state - device initialization state
//  401  *
//  402  * @return      none
//  403  */

        RSEG BANKED_CODE:HUGECODE:NOROOT(0)
//  404 void ZDSecMgrEntryInit(uint8 state)
ZDSecMgrEntryInit:
          CFI Block cfiBlock28 Using cfiCommon0
          CFI Function ZDSecMgrEntryInit
        CODE
//  405 {
        FUNCALL ZDSecMgrEntryInit, osal_mem_alloc
        LOCFRAME ISTACK, 2, STACK
        LOCFRAME PSTACK, 0, STACK
        LOCFRAME XSTACK, 0, STACK
        LOCFRAME IOVERLAY, 0, STATIC
        LOCFRAME DOVERLAY, 0, STATIC
        ARGFRAME ISTACK, 2, STACK
        ARGFRAME PSTACK, 0, STACK
        ARGFRAME XSTACK, 0, STACK
        ARGFRAME IOVERLAY, 0, STATIC
        ARGFRAME DOVERLAY, 0, STATIC
        PUSH      DPL
          CFI DPL0 Frame(CFA_SP, 4)
          CFI CFA_SP SP+-4
        PUSH      DPH
          CFI DPH0 Frame(CFA_SP, 5)
          CFI CFA_SP SP+-5
        ; Saved register size: 2
        ; Auto size: 0
//  406   if (ZDSecMgrEntries == NULL)
        LCALL     ?Subroutine25 & 0xFFFF
??CrossCallReturnLabel_144:
        JNZ       ??ZDSecMgrEntryInit_0
//  407   {
//  408     uint16 index;
//  409 
//  410     if ((ZDSecMgrEntries = osal_mem_alloc(sizeof(ZDSecMgrEntry_t) * ZDSECMGR_ENTRY_MAX)) == NULL)
        ; Setup parameters for call to function osal_mem_alloc
        MOV       R2,#0xf
        MOV       R3,#0x0
        LCALL     `??osal_mem_alloc::?relay`; Banked call to: osal_mem_alloc
        MOV       DPTR,#ZDSecMgrEntries
        LCALL     ??Subroutine62_0 & 0xFFFF
??CrossCallReturnLabel_105:
        MOV       R1,A
        MOV       A,R2
        ORL       A,R1
        JZ        ??ZDSecMgrEntryInit_0
//  411     {
//  412       return;
//  413     }
//  414 
//  415     for (index = 0; index < ZDSECMGR_ENTRY_MAX; index++)
        MOV       R0,#0x0
        MOV       R1,#0x0
//  416     {
//  417       ZDSecMgrEntries[index].ami = INVALID_NODE_ADDR;
??ZDSecMgrEntryInit_1:
        LCALL     ?Subroutine33 & 0xFFFF
//  418 
//  419       ZDSecMgrEntries[index].keyNvId = SEC_NO_KEY_NV_ID;
//  420     }
??CrossCallReturnLabel_28:
        MOV       A,#-0x2
        MOVX      @DPTR,A
        INC       DPTR
        INC       A
        LCALL     ?Subroutine19 & 0xFFFF
??CrossCallReturnLabel_13:
        INC       DPTR
        INC       DPTR
        CLR       A
        MOVX      @DPTR,A
        INC       DPTR
        MOVX      @DPTR,A
        INC       R0
        MOV       A,R0
        JNZ       ??ZDSecMgrEntryInit_2
        INC       R1
??ZDSecMgrEntryInit_2:
        LCALL     ?Subroutine39 & 0xFFFF
//  421   }
??CrossCallReturnLabel_59:
        JC        ??ZDSecMgrEntryInit_1
//  422 
//  423 #if defined NV_RESTORE
//  424   if (state == ZDO_INITDEV_RESTORED_NETWORK_STATE)
//  425   {
//  426     ZDSecMgrRestoreFromNV();
//  427   }
//  428 #else
//  429   (void)state;
//  430 #endif
//  431 }
??ZDSecMgrEntryInit_0:
        LJMP      ??Subroutine59_0 & 0xFFFF
          CFI EndBlock cfiBlock28
//  432 
//  433 /******************************************************************************
//  434  * @fn          ZDSecMgrEntryLookup
//  435  *
//  436  * @brief       Lookup entry index using specified NWK address.
//  437  *
//  438  * @param       nwkAddr - [in] NWK address
//  439  * @param       entry   - [out] valid entry
//  440  *
//  441  * @return      ZStatus_t
//  442  */

        RSEG BANKED_CODE:HUGECODE:NOROOT(0)
//  443 ZStatus_t ZDSecMgrEntryLookup( uint16 nwkAddr, ZDSecMgrEntry_t** entry )
ZDSecMgrEntryLookup:
          CFI Block cfiBlock29 Using cfiCommon0
          CFI Function ZDSecMgrEntryLookup
        CODE
//  444 {
        FUNCALL ZDSecMgrEntryLookup, AddrMgrEntryLookupNwk
        LOCFRAME ISTACK, 0, STACK
        LOCFRAME PSTACK, 0, STACK
        LOCFRAME XSTACK, 22, STACK
        LOCFRAME IOVERLAY, 0, STATIC
        LOCFRAME DOVERLAY, 0, STATIC
        ARGFRAME ISTACK, 0, STACK
        ARGFRAME PSTACK, 0, STACK
        ARGFRAME XSTACK, 22, STACK
        ARGFRAME IOVERLAY, 0, STATIC
        ARGFRAME DOVERLAY, 0, STATIC
        REQUIRE ?V0
        MOV       A,#-0x9
        LCALL     ?BANKED_ENTER_XDATA
          CFI DPH0 load(1, XDATA, add(CFA_XSP16, literal(-1)))
          CFI DPL0 load(1, XDATA, add(CFA_XSP16, literal(-2)))
          CFI ?BRET_EXT load(1, XDATA, add(CFA_XSP16, literal(-3)))
          CFI ?RET_HIGH load(1, XDATA, add(CFA_XSP16, literal(-4)))
          CFI ?RET_LOW load(1, XDATA, add(CFA_XSP16, literal(-5)))
          CFI R7 load(1, XDATA, add(CFA_XSP16, literal(-6)))
          CFI V0 load(1, XDATA, add(CFA_XSP16, literal(-7)))
          CFI VB load(1, XDATA, add(CFA_XSP16, literal(-8)))
          CFI R6 load(1, XDATA, add(CFA_XSP16, literal(-9)))
          CFI CFA_SP SP+0
          CFI CFA_XSP16 add(XSP16, 9)
        ; Saved register size: 9
        ; Auto size: 13
        MOV       A,#-0xd
        LCALL     ?ALLOC_XSTACK8
          CFI CFA_XSP16 add(XSP16, 22)
        MOV       A,R4
        MOV       R6,A
        MOV       A,R5
        MOV       R7,A
//  445   uint16         index;
//  446   AddrMgrEntry_t addrMgrEntry;
//  447 
//  448   // initialize results
//  449   *entry = NULL;
        MOV       DPL,R4
        MOV       DPH,A
        LCALL     ?Subroutine11 & 0xFFFF
//  450 
//  451   // verify data is available
//  452   if ( ZDSecMgrEntries != NULL )
??CrossCallReturnLabel_0:
        JZ        ??ZDSecMgrEntryLookup_0
//  453   {
//  454     addrMgrEntry.user    = ADDRMGR_USER_SECURITY;
        MOV       DPL,?XSP + 0
        MOV       DPH,?XSP + 1
        MOV       A,#0x2
        MOVX      @DPTR,A
//  455     addrMgrEntry.nwkAddr = nwkAddr;
        DEC       A
        LCALL     ?XSTACK_DISP0_8
        LCALL     ?Subroutine21 & 0xFFFF
//  456 
//  457     if ( AddrMgrEntryLookupNwk( &addrMgrEntry ) == TRUE )
??CrossCallReturnLabel_112:
        LCALL     `??AddrMgrEntryLookupNwk::?relay`; Banked call to: AddrMgrEntryLookupNwk
        MOV       A,R1
        XRL       A,#0x1
        JNZ       ??ZDSecMgrEntryLookup_0
//  458     {
//  459       for ( index = 0; index < ZDSECMGR_ENTRY_MAX ; index++ )
        MOV       R0,#0x0
        MOV       R1,#0x0
//  460       {
//  461         if ( addrMgrEntry.index == ZDSecMgrEntries[index].ami )
??ZDSecMgrEntryLookup_1:
        LCALL     ?Subroutine54 & 0xFFFF
??CrossCallReturnLabel_51:
        MOV       A,#0xb
        LCALL     ?XSTACK_DISP0_8
        LCALL     ?Subroutine34 & 0xFFFF
??CrossCallReturnLabel_30:
        MOV       DPL,R2
        MOV       DPH,R3
        MOVX      A,@DPTR
        XRL       A,R4
        JNZ       ??ZDSecMgrEntryLookup_2
        INC       DPTR
        MOVX      A,@DPTR
        XRL       A,R5
??ZDSecMgrEntryLookup_2:
        JNZ       ??ZDSecMgrEntryLookup_3
//  462         {
//  463           // return successful results
//  464           *entry = &ZDSecMgrEntries[index];
        LCALL     ?Subroutine22 & 0xFFFF
//  465 
//  466           // break from loop
//  467           return ZSuccess;
??CrossCallReturnLabel_110:
        MOV       R1,#0x0
        SJMP      ??ZDSecMgrEntryLookup_4
//  468         }
//  469       }
??ZDSecMgrEntryLookup_3:
        INC       R0
        MOV       A,R0
        JNZ       ??ZDSecMgrEntryLookup_5
        INC       R1
??ZDSecMgrEntryLookup_5:
        LCALL     ?Subroutine39 & 0xFFFF
//  470     }
//  471   }
??CrossCallReturnLabel_60:
        JC        ??ZDSecMgrEntryLookup_1
//  472 
//  473   return ZNwkUnknownDevice;
??ZDSecMgrEntryLookup_0:
        MOV       R1,#-0x38
??ZDSecMgrEntryLookup_4:
        LJMP      ?Subroutine0 & 0xFFFF
//  474 }
          CFI EndBlock cfiBlock29
//  475 
//  476 /******************************************************************************
//  477  * @fn          ZDSecMgrEntryLookupAMI
//  478  *
//  479  * @brief       Lookup entry using specified address index
//  480  *
//  481  * @param       ami   - [in] Address Manager index
//  482  * @param       entry - [out] valid entry
//  483  *
//  484  * @return      ZStatus_t
//  485  */

        RSEG BANKED_CODE:HUGECODE:NOROOT(0)
//  486 ZStatus_t ZDSecMgrEntryLookupAMI( uint16 ami, ZDSecMgrEntry_t** entry )
ZDSecMgrEntryLookupAMI:
          CFI Block cfiBlock30 Using cfiCommon0
          CFI Function ZDSecMgrEntryLookupAMI
        CODE
//  487 {
        REQUIRE ?V0
        MOV       A,#-0x9
        LCALL     ?BANKED_ENTER_XDATA
          CFI DPH0 load(1, XDATA, add(CFA_XSP16, literal(-1)))
          CFI DPL0 load(1, XDATA, add(CFA_XSP16, literal(-2)))
          CFI ?BRET_EXT load(1, XDATA, add(CFA_XSP16, literal(-3)))
          CFI ?RET_HIGH load(1, XDATA, add(CFA_XSP16, literal(-4)))
          CFI ?RET_LOW load(1, XDATA, add(CFA_XSP16, literal(-5)))
          CFI R7 load(1, XDATA, add(CFA_XSP16, literal(-6)))
          CFI V0 load(1, XDATA, add(CFA_XSP16, literal(-7)))
          CFI VB load(1, XDATA, add(CFA_XSP16, literal(-8)))
          CFI R6 load(1, XDATA, add(CFA_XSP16, literal(-9)))
          CFI CFA_SP SP+0
          CFI CFA_XSP16 add(XSP16, 9)
        ; Saved register size: 9
        ; Auto size: 0
//  488   uint16 index;
//  489 
//  490   // initialize results
//  491   *entry = NULL;
        MOV       DPL,R4
        MOV       DPH,R5
        LCALL     ?Subroutine11 & 0xFFFF
//  492 
//  493   // verify data is available
//  494   if ( ZDSecMgrEntries != NULL )
??CrossCallReturnLabel_1:
        JZ        ??ZDSecMgrEntryLookupAMI_0
//  495   {
//  496     for ( index = 0; index < ZDSECMGR_ENTRY_MAX ; index++ )
        MOV       R0,#0x0
        MOV       R1,#0x0
//  497     {
//  498       if ( ZDSecMgrEntries[index].ami == ami )
??ZDSecMgrEntryLookupAMI_1:
        LCALL     ?Subroutine41 & 0xFFFF
??CrossCallReturnLabel_43:
        MOV       R6,A
        INC       DPTR
        MOVX      A,@DPTR
        ADDC      A,R7
        MOV       R7,A
        MOV       DPL,R6
        MOV       DPH,A
        MOVX      A,@DPTR
        XRL       A,R2
        JNZ       ??ZDSecMgrEntryLookupAMI_2
        INC       DPTR
        MOVX      A,@DPTR
        XRL       A,R3
??ZDSecMgrEntryLookupAMI_2:
        JNZ       ??ZDSecMgrEntryLookupAMI_3
//  499       {
//  500         // return successful results
//  501         *entry = &ZDSecMgrEntries[index];
        MOV       DPL,R4
        MOV       DPH,R5
        MOV       A,R6
        MOVX      @DPTR,A
        INC       DPTR
        MOV       A,R7
        MOVX      @DPTR,A
//  502 
//  503         // break from loop
//  504         return ZSuccess;
        MOV       R1,#0x0
        SJMP      ??ZDSecMgrEntryLookupAMI_4
//  505       }
//  506     }
??ZDSecMgrEntryLookupAMI_3:
        INC       R0
        MOV       A,R0
        JNZ       ??ZDSecMgrEntryLookupAMI_5
        INC       R1
??ZDSecMgrEntryLookupAMI_5:
        LCALL     ?Subroutine39 & 0xFFFF
//  507   }
??CrossCallReturnLabel_61:
        JC        ??ZDSecMgrEntryLookupAMI_1
//  508 
//  509   return ZNwkUnknownDevice;
??ZDSecMgrEntryLookupAMI_0:
        MOV       R1,#-0x38
??ZDSecMgrEntryLookupAMI_4:
        LJMP      ??Subroutine67_0 & 0xFFFF
//  510 }
          CFI EndBlock cfiBlock30

        RSEG BANKED_CODE:HUGECODE:NOROOT(0)
?Subroutine39:
          CFI Block cfiCond31 Using cfiCommon0
          CFI Function ZDSecMgrEntryInit
          CFI Conditional ??CrossCallReturnLabel_59
          CFI DPL0 Frame(CFA_SP, 4)
          CFI DPH0 Frame(CFA_SP, 5)
          CFI CFA_SP SP+-7
          CFI Block cfiCond32 Using cfiCommon0
          CFI (cfiCond32) Function ZDSecMgrEntryLookup
          CFI (cfiCond32) Conditional ??CrossCallReturnLabel_60
          CFI (cfiCond32) R6 load(1, XDATA, add(CFA_XSP16, literal(-9)))
          CFI (cfiCond32) VB load(1, XDATA, add(CFA_XSP16, literal(-8)))
          CFI (cfiCond32) V0 load(1, XDATA, add(CFA_XSP16, literal(-7)))
          CFI (cfiCond32) R7 load(1, XDATA, add(CFA_XSP16, literal(-6)))
          CFI (cfiCond32) ?RET_LOW load(1, XDATA, add(CFA_XSP16, literal(-5)))
          CFI (cfiCond32) ?RET_HIGH load(1, XDATA, add(CFA_XSP16, literal(-4)))
          CFI (cfiCond32) ?BRET_EXT load(1, XDATA, add(CFA_XSP16, literal(-3)))
          CFI (cfiCond32) DPL0 load(1, XDATA, add(CFA_XSP16, literal(-2)))
          CFI (cfiCond32) DPH0 load(1, XDATA, add(CFA_XSP16, literal(-1)))
          CFI (cfiCond32) CFA_SP SP+-2
          CFI (cfiCond32) CFA_XSP16 add(XSP16, 22)
          CFI Block cfiCond33 Using cfiCommon0
          CFI (cfiCond33) Function ZDSecMgrEntryLookupAMI
          CFI (cfiCond33) Conditional ??CrossCallReturnLabel_61
          CFI (cfiCond33) R6 load(1, XDATA, add(CFA_XSP16, literal(-9)))
          CFI (cfiCond33) VB load(1, XDATA, add(CFA_XSP16, literal(-8)))
          CFI (cfiCond33) V0 load(1, XDATA, add(CFA_XSP16, literal(-7)))
          CFI (cfiCond33) R7 load(1, XDATA, add(CFA_XSP16, literal(-6)))
          CFI (cfiCond33) ?RET_LOW load(1, XDATA, add(CFA_XSP16, literal(-5)))
          CFI (cfiCond33) ?RET_HIGH load(1, XDATA, add(CFA_XSP16, literal(-4)))
          CFI (cfiCond33) ?BRET_EXT load(1, XDATA, add(CFA_XSP16, literal(-3)))
          CFI (cfiCond33) DPL0 load(1, XDATA, add(CFA_XSP16, literal(-2)))
          CFI (cfiCond33) DPH0 load(1, XDATA, add(CFA_XSP16, literal(-1)))
          CFI (cfiCond33) CFA_SP SP+-2
          CFI (cfiCond33) CFA_XSP16 add(XSP16, 9)
          CFI Block cfiCond34 Using cfiCommon0
          CFI (cfiCond34) Function ZDSecMgrEntryLookupExtGetIndex
          CFI (cfiCond34) Conditional ??CrossCallReturnLabel_62
          CFI (cfiCond34) R6 load(1, XDATA, add(CFA_XSP16, literal(-9)))
          CFI (cfiCond34) VB load(1, XDATA, add(CFA_XSP16, literal(-8)))
          CFI (cfiCond34) V0 load(1, XDATA, add(CFA_XSP16, literal(-7)))
          CFI (cfiCond34) R7 load(1, XDATA, add(CFA_XSP16, literal(-6)))
          CFI (cfiCond34) ?RET_LOW load(1, XDATA, add(CFA_XSP16, literal(-5)))
          CFI (cfiCond34) ?RET_HIGH load(1, XDATA, add(CFA_XSP16, literal(-4)))
          CFI (cfiCond34) ?BRET_EXT load(1, XDATA, add(CFA_XSP16, literal(-3)))
          CFI (cfiCond34) DPL0 load(1, XDATA, add(CFA_XSP16, literal(-2)))
          CFI (cfiCond34) DPH0 load(1, XDATA, add(CFA_XSP16, literal(-1)))
          CFI (cfiCond34) CFA_SP SP+-2
          CFI (cfiCond34) CFA_XSP16 add(XSP16, 11)
          CFI Block cfiCond35 Using cfiCommon0
          CFI (cfiCond35) Function ZDSecMgrEntryLookupAMIGetIndex
          CFI (cfiCond35) Conditional ??CrossCallReturnLabel_63
          CFI (cfiCond35) R6 load(1, XDATA, add(CFA_XSP16, literal(-9)))
          CFI (cfiCond35) VB load(1, XDATA, add(CFA_XSP16, literal(-8)))
          CFI (cfiCond35) V0 load(1, XDATA, add(CFA_XSP16, literal(-7)))
          CFI (cfiCond35) R7 load(1, XDATA, add(CFA_XSP16, literal(-6)))
          CFI (cfiCond35) ?RET_LOW load(1, XDATA, add(CFA_XSP16, literal(-5)))
          CFI (cfiCond35) ?RET_HIGH load(1, XDATA, add(CFA_XSP16, literal(-4)))
          CFI (cfiCond35) ?BRET_EXT load(1, XDATA, add(CFA_XSP16, literal(-3)))
          CFI (cfiCond35) DPL0 load(1, XDATA, add(CFA_XSP16, literal(-2)))
          CFI (cfiCond35) DPH0 load(1, XDATA, add(CFA_XSP16, literal(-1)))
          CFI (cfiCond35) CFA_SP SP+-2
          CFI (cfiCond35) CFA_XSP16 add(XSP16, 9)
          CFI Block cfiPicker36 Using cfiCommon1
          CFI (cfiPicker36) NoFunction
          CFI (cfiPicker36) Picker
        CLR       C
          CFI EndBlock cfiCond31
          CFI EndBlock cfiCond32
          CFI EndBlock cfiCond33
          CFI EndBlock cfiCond34
          CFI EndBlock cfiCond35
          CFI EndBlock cfiPicker36
        REQUIRE ??Subroutine56_0
        ; // Fall through to label ??Subroutine56_0

        RSEG BANKED_CODE:HUGECODE:NOROOT(0)
??Subroutine56_0:
          CFI Block cfiCond37 Using cfiCommon0
          CFI Function ZDSecMgrReadKeyFromNv
          CFI Conditional ??CrossCallReturnLabel_58
          CFI R6 load(1, XDATA, add(CFA_XSP16, literal(-10)))
          CFI VB load(1, XDATA, add(CFA_XSP16, literal(-9)))
          CFI V0 load(1, XDATA, add(CFA_XSP16, literal(-8)))
          CFI V1 load(1, XDATA, add(CFA_XSP16, literal(-7)))
          CFI R7 load(1, XDATA, add(CFA_XSP16, literal(-6)))
          CFI ?RET_LOW load(1, XDATA, add(CFA_XSP16, literal(-5)))
          CFI ?RET_HIGH load(1, XDATA, add(CFA_XSP16, literal(-4)))
          CFI ?BRET_EXT load(1, XDATA, add(CFA_XSP16, literal(-3)))
          CFI DPL0 load(1, XDATA, add(CFA_XSP16, literal(-2)))
          CFI DPH0 load(1, XDATA, add(CFA_XSP16, literal(-1)))
          CFI CFA_SP SP+-2
          CFI CFA_XSP16 add(XSP16, 10)
          CFI Block cfiCond38 Using cfiCommon0
          CFI (cfiCond38) Function ZDSecMgrEntryInit
          CFI (cfiCond38) Conditional ??CrossCallReturnLabel_59
          CFI (cfiCond38) DPL0 Frame(CFA_SP, 4)
          CFI (cfiCond38) DPH0 Frame(CFA_SP, 5)
          CFI (cfiCond38) CFA_SP SP+-7
          CFI Block cfiCond39 Using cfiCommon0
          CFI (cfiCond39) Function ZDSecMgrEntryLookup
          CFI (cfiCond39) Conditional ??CrossCallReturnLabel_60
          CFI (cfiCond39) R6 load(1, XDATA, add(CFA_XSP16, literal(-9)))
          CFI (cfiCond39) VB load(1, XDATA, add(CFA_XSP16, literal(-8)))
          CFI (cfiCond39) V0 load(1, XDATA, add(CFA_XSP16, literal(-7)))
          CFI (cfiCond39) R7 load(1, XDATA, add(CFA_XSP16, literal(-6)))
          CFI (cfiCond39) ?RET_LOW load(1, XDATA, add(CFA_XSP16, literal(-5)))
          CFI (cfiCond39) ?RET_HIGH load(1, XDATA, add(CFA_XSP16, literal(-4)))
          CFI (cfiCond39) ?BRET_EXT load(1, XDATA, add(CFA_XSP16, literal(-3)))
          CFI (cfiCond39) DPL0 load(1, XDATA, add(CFA_XSP16, literal(-2)))
          CFI (cfiCond39) DPH0 load(1, XDATA, add(CFA_XSP16, literal(-1)))
          CFI (cfiCond39) CFA_SP SP+-2
          CFI (cfiCond39) CFA_XSP16 add(XSP16, 22)
          CFI Block cfiCond40 Using cfiCommon0
          CFI (cfiCond40) Function ZDSecMgrEntryLookupAMI
          CFI (cfiCond40) Conditional ??CrossCallReturnLabel_61
          CFI (cfiCond40) R6 load(1, XDATA, add(CFA_XSP16, literal(-9)))
          CFI (cfiCond40) VB load(1, XDATA, add(CFA_XSP16, literal(-8)))
          CFI (cfiCond40) V0 load(1, XDATA, add(CFA_XSP16, literal(-7)))
          CFI (cfiCond40) R7 load(1, XDATA, add(CFA_XSP16, literal(-6)))
          CFI (cfiCond40) ?RET_LOW load(1, XDATA, add(CFA_XSP16, literal(-5)))
          CFI (cfiCond40) ?RET_HIGH load(1, XDATA, add(CFA_XSP16, literal(-4)))
          CFI (cfiCond40) ?BRET_EXT load(1, XDATA, add(CFA_XSP16, literal(-3)))
          CFI (cfiCond40) DPL0 load(1, XDATA, add(CFA_XSP16, literal(-2)))
          CFI (cfiCond40) DPH0 load(1, XDATA, add(CFA_XSP16, literal(-1)))
          CFI (cfiCond40) CFA_SP SP+-2
          CFI (cfiCond40) CFA_XSP16 add(XSP16, 9)
          CFI Block cfiCond41 Using cfiCommon0
          CFI (cfiCond41) Function ZDSecMgrEntryLookupExtGetIndex
          CFI (cfiCond41) Conditional ??CrossCallReturnLabel_62
          CFI (cfiCond41) R6 load(1, XDATA, add(CFA_XSP16, literal(-9)))
          CFI (cfiCond41) VB load(1, XDATA, add(CFA_XSP16, literal(-8)))
          CFI (cfiCond41) V0 load(1, XDATA, add(CFA_XSP16, literal(-7)))
          CFI (cfiCond41) R7 load(1, XDATA, add(CFA_XSP16, literal(-6)))
          CFI (cfiCond41) ?RET_LOW load(1, XDATA, add(CFA_XSP16, literal(-5)))
          CFI (cfiCond41) ?RET_HIGH load(1, XDATA, add(CFA_XSP16, literal(-4)))
          CFI (cfiCond41) ?BRET_EXT load(1, XDATA, add(CFA_XSP16, literal(-3)))
          CFI (cfiCond41) DPL0 load(1, XDATA, add(CFA_XSP16, literal(-2)))
          CFI (cfiCond41) DPH0 load(1, XDATA, add(CFA_XSP16, literal(-1)))
          CFI (cfiCond41) CFA_SP SP+-2
          CFI (cfiCond41) CFA_XSP16 add(XSP16, 11)
          CFI Block cfiCond42 Using cfiCommon0
          CFI (cfiCond42) Function ZDSecMgrEntryLookupAMIGetIndex
          CFI (cfiCond42) Conditional ??CrossCallReturnLabel_63
          CFI (cfiCond42) R6 load(1, XDATA, add(CFA_XSP16, literal(-9)))
          CFI (cfiCond42) VB load(1, XDATA, add(CFA_XSP16, literal(-8)))
          CFI (cfiCond42) V0 load(1, XDATA, add(CFA_XSP16, literal(-7)))
          CFI (cfiCond42) R7 load(1, XDATA, add(CFA_XSP16, literal(-6)))
          CFI (cfiCond42) ?RET_LOW load(1, XDATA, add(CFA_XSP16, literal(-5)))
          CFI (cfiCond42) ?RET_HIGH load(1, XDATA, add(CFA_XSP16, literal(-4)))
          CFI (cfiCond42) ?BRET_EXT load(1, XDATA, add(CFA_XSP16, literal(-3)))
          CFI (cfiCond42) DPL0 load(1, XDATA, add(CFA_XSP16, literal(-2)))
          CFI (cfiCond42) DPH0 load(1, XDATA, add(CFA_XSP16, literal(-1)))
          CFI (cfiCond42) CFA_SP SP+-2
          CFI (cfiCond42) CFA_XSP16 add(XSP16, 9)
          CFI Block cfiPicker43 Using cfiCommon1
          CFI (cfiPicker43) NoFunction
          CFI (cfiPicker43) Picker
        SUBB      A,#0x3
        MOV       A,R1
        SUBB      A,#0x0
        RET
          CFI EndBlock cfiCond37
          CFI EndBlock cfiCond38
          CFI EndBlock cfiCond39
          CFI EndBlock cfiCond40
          CFI EndBlock cfiCond41
          CFI EndBlock cfiCond42
          CFI EndBlock cfiPicker43

        RSEG BANKED_CODE:HUGECODE:NOROOT(0)
?Subroutine11:
          CFI Block cfiCond44 Using cfiCommon0
          CFI Function ZDSecMgrEntryLookup
          CFI Conditional ??CrossCallReturnLabel_0
          CFI R6 load(1, XDATA, add(CFA_XSP16, literal(-9)))
          CFI VB load(1, XDATA, add(CFA_XSP16, literal(-8)))
          CFI V0 load(1, XDATA, add(CFA_XSP16, literal(-7)))
          CFI R7 load(1, XDATA, add(CFA_XSP16, literal(-6)))
          CFI ?RET_LOW load(1, XDATA, add(CFA_XSP16, literal(-5)))
          CFI ?RET_HIGH load(1, XDATA, add(CFA_XSP16, literal(-4)))
          CFI ?BRET_EXT load(1, XDATA, add(CFA_XSP16, literal(-3)))
          CFI DPL0 load(1, XDATA, add(CFA_XSP16, literal(-2)))
          CFI DPH0 load(1, XDATA, add(CFA_XSP16, literal(-1)))
          CFI CFA_SP SP+-2
          CFI CFA_XSP16 add(XSP16, 22)
          CFI Block cfiCond45 Using cfiCommon0
          CFI (cfiCond45) Function ZDSecMgrEntryLookupAMI
          CFI (cfiCond45) Conditional ??CrossCallReturnLabel_1
          CFI (cfiCond45) R6 load(1, XDATA, add(CFA_XSP16, literal(-9)))
          CFI (cfiCond45) VB load(1, XDATA, add(CFA_XSP16, literal(-8)))
          CFI (cfiCond45) V0 load(1, XDATA, add(CFA_XSP16, literal(-7)))
          CFI (cfiCond45) R7 load(1, XDATA, add(CFA_XSP16, literal(-6)))
          CFI (cfiCond45) ?RET_LOW load(1, XDATA, add(CFA_XSP16, literal(-5)))
          CFI (cfiCond45) ?RET_HIGH load(1, XDATA, add(CFA_XSP16, literal(-4)))
          CFI (cfiCond45) ?BRET_EXT load(1, XDATA, add(CFA_XSP16, literal(-3)))
          CFI (cfiCond45) DPL0 load(1, XDATA, add(CFA_XSP16, literal(-2)))
          CFI (cfiCond45) DPH0 load(1, XDATA, add(CFA_XSP16, literal(-1)))
          CFI (cfiCond45) CFA_SP SP+-2
          CFI (cfiCond45) CFA_XSP16 add(XSP16, 9)
          CFI Block cfiCond46 Using cfiCommon0
          CFI (cfiCond46) Function ZDSecMgrEntryNew
          CFI (cfiCond46) Conditional ??CrossCallReturnLabel_2
          CFI (cfiCond46) R6 load(1, XDATA, add(CFA_XSP16, literal(-9)))
          CFI (cfiCond46) VB load(1, XDATA, add(CFA_XSP16, literal(-8)))
          CFI (cfiCond46) V0 load(1, XDATA, add(CFA_XSP16, literal(-7)))
          CFI (cfiCond46) R7 load(1, XDATA, add(CFA_XSP16, literal(-6)))
          CFI (cfiCond46) ?RET_LOW load(1, XDATA, add(CFA_XSP16, literal(-5)))
          CFI (cfiCond46) ?RET_HIGH load(1, XDATA, add(CFA_XSP16, literal(-4)))
          CFI (cfiCond46) ?BRET_EXT load(1, XDATA, add(CFA_XSP16, literal(-3)))
          CFI (cfiCond46) DPL0 load(1, XDATA, add(CFA_XSP16, literal(-2)))
          CFI (cfiCond46) DPH0 load(1, XDATA, add(CFA_XSP16, literal(-1)))
          CFI (cfiCond46) CFA_SP SP+-2
          CFI (cfiCond46) CFA_XSP16 add(XSP16, 9)
          CFI Block cfiPicker47 Using cfiCommon1
          CFI (cfiPicker47) NoFunction
          CFI (cfiPicker47) Picker
        CLR       A
        MOVX      @DPTR,A
        INC       DPTR
        MOVX      @DPTR,A
        MOV       DPTR,#ZDSecMgrEntries
        LCALL     ?Subroutine51 & 0xFFFF
??CrossCallReturnLabel_147:
        ORL       A,R1
        RET
          CFI EndBlock cfiCond44
          CFI EndBlock cfiCond45
          CFI EndBlock cfiCond46
          CFI EndBlock cfiPicker47

        RSEG BANKED_CODE:HUGECODE:NOROOT(0)
?Subroutine51:
          CFI Block cfiCond48 Using cfiCommon0
          CFI Function ZDSecMgrAddrStore
          CFI Conditional ??CrossCallReturnLabel_148, ??CrossCallReturnLabel_24
          CFI R6 load(1, XDATA, add(CFA_XSP16, literal(-9)))
          CFI VB load(1, XDATA, add(CFA_XSP16, literal(-8)))
          CFI V0 load(1, XDATA, add(CFA_XSP16, literal(-7)))
          CFI R7 load(1, XDATA, add(CFA_XSP16, literal(-6)))
          CFI ?RET_LOW load(1, XDATA, add(CFA_XSP16, literal(-5)))
          CFI ?RET_HIGH load(1, XDATA, add(CFA_XSP16, literal(-4)))
          CFI ?BRET_EXT load(1, XDATA, add(CFA_XSP16, literal(-3)))
          CFI DPL0 load(1, XDATA, add(CFA_XSP16, literal(-2)))
          CFI DPH0 load(1, XDATA, add(CFA_XSP16, literal(-1)))
          CFI CFA_SP SP+-4
          CFI CFA_XSP16 add(XSP16, 22)
          CFI Block cfiCond49 Using cfiCommon0
          CFI (cfiCond49) Function ZDSecMgrExtAddrStore
          CFI (cfiCond49) Conditional ??CrossCallReturnLabel_148, ??CrossCallReturnLabel_25
          CFI (cfiCond49) R6 load(1, XDATA, add(CFA_XSP16, literal(-9)))
          CFI (cfiCond49) VB load(1, XDATA, add(CFA_XSP16, literal(-8)))
          CFI (cfiCond49) V0 load(1, XDATA, add(CFA_XSP16, literal(-7)))
          CFI (cfiCond49) R7 load(1, XDATA, add(CFA_XSP16, literal(-6)))
          CFI (cfiCond49) ?RET_LOW load(1, XDATA, add(CFA_XSP16, literal(-5)))
          CFI (cfiCond49) ?RET_HIGH load(1, XDATA, add(CFA_XSP16, literal(-4)))
          CFI (cfiCond49) ?BRET_EXT load(1, XDATA, add(CFA_XSP16, literal(-3)))
          CFI (cfiCond49) DPL0 load(1, XDATA, add(CFA_XSP16, literal(-2)))
          CFI (cfiCond49) DPH0 load(1, XDATA, add(CFA_XSP16, literal(-1)))
          CFI (cfiCond49) CFA_SP SP+-4
          CFI (cfiCond49) CFA_XSP16 add(XSP16, 22)
          CFI Block cfiCond50 Using cfiCommon0
          CFI (cfiCond50) Function ZDSecMgrEntryLookup
          CFI (cfiCond50) Conditional ??CrossCallReturnLabel_147, ??CrossCallReturnLabel_0
          CFI (cfiCond50) R6 load(1, XDATA, add(CFA_XSP16, literal(-9)))
          CFI (cfiCond50) VB load(1, XDATA, add(CFA_XSP16, literal(-8)))
          CFI (cfiCond50) V0 load(1, XDATA, add(CFA_XSP16, literal(-7)))
          CFI (cfiCond50) R7 load(1, XDATA, add(CFA_XSP16, literal(-6)))
          CFI (cfiCond50) ?RET_LOW load(1, XDATA, add(CFA_XSP16, literal(-5)))
          CFI (cfiCond50) ?RET_HIGH load(1, XDATA, add(CFA_XSP16, literal(-4)))
          CFI (cfiCond50) ?BRET_EXT load(1, XDATA, add(CFA_XSP16, literal(-3)))
          CFI (cfiCond50) DPL0 load(1, XDATA, add(CFA_XSP16, literal(-2)))
          CFI (cfiCond50) DPH0 load(1, XDATA, add(CFA_XSP16, literal(-1)))
          CFI (cfiCond50) CFA_SP SP+-4
          CFI (cfiCond50) CFA_XSP16 add(XSP16, 22)
          CFI Block cfiCond51 Using cfiCommon0
          CFI (cfiCond51) Function ZDSecMgrEntryLookupAMI
          CFI (cfiCond51) Conditional ??CrossCallReturnLabel_147, ??CrossCallReturnLabel_1
          CFI (cfiCond51) R6 load(1, XDATA, add(CFA_XSP16, literal(-9)))
          CFI (cfiCond51) VB load(1, XDATA, add(CFA_XSP16, literal(-8)))
          CFI (cfiCond51) V0 load(1, XDATA, add(CFA_XSP16, literal(-7)))
          CFI (cfiCond51) R7 load(1, XDATA, add(CFA_XSP16, literal(-6)))
          CFI (cfiCond51) ?RET_LOW load(1, XDATA, add(CFA_XSP16, literal(-5)))
          CFI (cfiCond51) ?RET_HIGH load(1, XDATA, add(CFA_XSP16, literal(-4)))
          CFI (cfiCond51) ?BRET_EXT load(1, XDATA, add(CFA_XSP16, literal(-3)))
          CFI (cfiCond51) DPL0 load(1, XDATA, add(CFA_XSP16, literal(-2)))
          CFI (cfiCond51) DPH0 load(1, XDATA, add(CFA_XSP16, literal(-1)))
          CFI (cfiCond51) CFA_SP SP+-4
          CFI (cfiCond51) CFA_XSP16 add(XSP16, 9)
          CFI Block cfiCond52 Using cfiCommon0
          CFI (cfiCond52) Function ZDSecMgrEntryNew
          CFI (cfiCond52) Conditional ??CrossCallReturnLabel_147, ??CrossCallReturnLabel_2
          CFI (cfiCond52) R6 load(1, XDATA, add(CFA_XSP16, literal(-9)))
          CFI (cfiCond52) VB load(1, XDATA, add(CFA_XSP16, literal(-8)))
          CFI (cfiCond52) V0 load(1, XDATA, add(CFA_XSP16, literal(-7)))
          CFI (cfiCond52) R7 load(1, XDATA, add(CFA_XSP16, literal(-6)))
          CFI (cfiCond52) ?RET_LOW load(1, XDATA, add(CFA_XSP16, literal(-5)))
          CFI (cfiCond52) ?RET_HIGH load(1, XDATA, add(CFA_XSP16, literal(-4)))
          CFI (cfiCond52) ?BRET_EXT load(1, XDATA, add(CFA_XSP16, literal(-3)))
          CFI (cfiCond52) DPL0 load(1, XDATA, add(CFA_XSP16, literal(-2)))
          CFI (cfiCond52) DPH0 load(1, XDATA, add(CFA_XSP16, literal(-1)))
          CFI (cfiCond52) CFA_SP SP+-4
          CFI (cfiCond52) CFA_XSP16 add(XSP16, 9)
          CFI Block cfiCond53 Using cfiCommon0
          CFI (cfiCond53) Function ZDSecMgrEntryInit
          CFI (cfiCond53) Conditional ??CrossCallReturnLabel_149, ??CrossCallReturnLabel_144
          CFI (cfiCond53) DPL0 Frame(CFA_SP, 4)
          CFI (cfiCond53) DPH0 Frame(CFA_SP, 5)
          CFI (cfiCond53) CFA_SP SP+-9
          CFI Block cfiCond54 Using cfiCommon0
          CFI (cfiCond54) Function ZDSecMgrEntryLookupExtGetIndex
          CFI (cfiCond54) Conditional ??CrossCallReturnLabel_149, ??CrossCallReturnLabel_145
          CFI (cfiCond54) R6 load(1, XDATA, add(CFA_XSP16, literal(-9)))
          CFI (cfiCond54) VB load(1, XDATA, add(CFA_XSP16, literal(-8)))
          CFI (cfiCond54) V0 load(1, XDATA, add(CFA_XSP16, literal(-7)))
          CFI (cfiCond54) R7 load(1, XDATA, add(CFA_XSP16, literal(-6)))
          CFI (cfiCond54) ?RET_LOW load(1, XDATA, add(CFA_XSP16, literal(-5)))
          CFI (cfiCond54) ?RET_HIGH load(1, XDATA, add(CFA_XSP16, literal(-4)))
          CFI (cfiCond54) ?BRET_EXT load(1, XDATA, add(CFA_XSP16, literal(-3)))
          CFI (cfiCond54) DPL0 load(1, XDATA, add(CFA_XSP16, literal(-2)))
          CFI (cfiCond54) DPH0 load(1, XDATA, add(CFA_XSP16, literal(-1)))
          CFI (cfiCond54) CFA_SP SP+-4
          CFI (cfiCond54) CFA_XSP16 add(XSP16, 11)
          CFI Block cfiCond55 Using cfiCommon0
          CFI (cfiCond55) Function ZDSecMgrEntryLookupAMIGetIndex
          CFI (cfiCond55) Conditional ??CrossCallReturnLabel_149, ??CrossCallReturnLabel_146
          CFI (cfiCond55) R6 load(1, XDATA, add(CFA_XSP16, literal(-9)))
          CFI (cfiCond55) VB load(1, XDATA, add(CFA_XSP16, literal(-8)))
          CFI (cfiCond55) V0 load(1, XDATA, add(CFA_XSP16, literal(-7)))
          CFI (cfiCond55) R7 load(1, XDATA, add(CFA_XSP16, literal(-6)))
          CFI (cfiCond55) ?RET_LOW load(1, XDATA, add(CFA_XSP16, literal(-5)))
          CFI (cfiCond55) ?RET_HIGH load(1, XDATA, add(CFA_XSP16, literal(-4)))
          CFI (cfiCond55) ?BRET_EXT load(1, XDATA, add(CFA_XSP16, literal(-3)))
          CFI (cfiCond55) DPL0 load(1, XDATA, add(CFA_XSP16, literal(-2)))
          CFI (cfiCond55) DPH0 load(1, XDATA, add(CFA_XSP16, literal(-1)))
          CFI (cfiCond55) CFA_SP SP+-4
          CFI (cfiCond55) CFA_XSP16 add(XSP16, 9)
          CFI Block cfiCond56 Using cfiCommon0
          CFI (cfiCond56) Function ZDSecMgrDeviceJoin
          CFI (cfiCond56) Conditional ??CrossCallReturnLabel_149, ??CrossCallReturnLabel_139
          CFI (cfiCond56) R6 load(1, XDATA, add(CFA_XSP16, literal(-16)))
          CFI (cfiCond56) VB load(1, XDATA, add(CFA_XSP16, literal(-15)))
          CFI (cfiCond56) V0 load(1, XDATA, add(CFA_XSP16, literal(-14)))
          CFI (cfiCond56) V1 load(1, XDATA, add(CFA_XSP16, literal(-13)))
          CFI (cfiCond56) V2 load(1, XDATA, add(CFA_XSP16, literal(-12)))
          CFI (cfiCond56) V3 load(1, XDATA, add(CFA_XSP16, literal(-11)))
          CFI (cfiCond56) V4 load(1, XDATA, add(CFA_XSP16, literal(-10)))
          CFI (cfiCond56) V5 load(1, XDATA, add(CFA_XSP16, literal(-9)))
          CFI (cfiCond56) V6 load(1, XDATA, add(CFA_XSP16, literal(-8)))
          CFI (cfiCond56) V7 load(1, XDATA, add(CFA_XSP16, literal(-7)))
          CFI (cfiCond56) R7 load(1, XDATA, add(CFA_XSP16, literal(-6)))
          CFI (cfiCond56) ?RET_LOW load(1, XDATA, add(CFA_XSP16, literal(-5)))
          CFI (cfiCond56) ?RET_HIGH load(1, XDATA, add(CFA_XSP16, literal(-4)))
          CFI (cfiCond56) ?BRET_EXT load(1, XDATA, add(CFA_XSP16, literal(-3)))
          CFI (cfiCond56) DPL0 load(1, XDATA, add(CFA_XSP16, literal(-2)))
          CFI (cfiCond56) DPH0 load(1, XDATA, add(CFA_XSP16, literal(-1)))
          CFI (cfiCond56) CFA_SP SP+-4
          CFI (cfiCond56) CFA_XSP16 add(XSP16, 30)
          CFI Block cfiCond57 Using cfiCommon0
          CFI (cfiCond57) Function ZDSecMgrRemoveDeviceInd
          CFI (cfiCond57) Conditional ??CrossCallReturnLabel_149, ??CrossCallReturnLabel_140
          CFI (cfiCond57) R6 load(1, XDATA, add(CFA_XSP16, literal(-9)))
          CFI (cfiCond57) VB load(1, XDATA, add(CFA_XSP16, literal(-8)))
          CFI (cfiCond57) V0 load(1, XDATA, add(CFA_XSP16, literal(-7)))
          CFI (cfiCond57) R7 load(1, XDATA, add(CFA_XSP16, literal(-6)))
          CFI (cfiCond57) ?RET_LOW load(1, XDATA, add(CFA_XSP16, literal(-5)))
          CFI (cfiCond57) ?RET_HIGH load(1, XDATA, add(CFA_XSP16, literal(-4)))
          CFI (cfiCond57) ?BRET_EXT load(1, XDATA, add(CFA_XSP16, literal(-3)))
          CFI (cfiCond57) DPL0 load(1, XDATA, add(CFA_XSP16, literal(-2)))
          CFI (cfiCond57) DPH0 load(1, XDATA, add(CFA_XSP16, literal(-1)))
          CFI (cfiCond57) CFA_SP SP+-4
          CFI (cfiCond57) CFA_XSP16 add(XSP16, 17)
          CFI Block cfiCond58 Using cfiCommon0
          CFI (cfiCond58) Function APSME_IsLinkKeyValid
          CFI (cfiCond58) Conditional ??CrossCallReturnLabel_149, ??CrossCallReturnLabel_141
          CFI (cfiCond58) R6 load(1, XDATA, add(CFA_XSP16, literal(-15)))
          CFI (cfiCond58) VB load(1, XDATA, add(CFA_XSP16, literal(-14)))
          CFI (cfiCond58) V0 load(1, XDATA, add(CFA_XSP16, literal(-13)))
          CFI (cfiCond58) V1 load(1, XDATA, add(CFA_XSP16, literal(-12)))
          CFI (cfiCond58) V2 load(1, XDATA, add(CFA_XSP16, literal(-11)))
          CFI (cfiCond58) V3 load(1, XDATA, add(CFA_XSP16, literal(-10)))
          CFI (cfiCond58) V4 load(1, XDATA, add(CFA_XSP16, literal(-9)))
          CFI (cfiCond58) V5 load(1, XDATA, add(CFA_XSP16, literal(-8)))
          CFI (cfiCond58) V6 load(1, XDATA, add(CFA_XSP16, literal(-7)))
          CFI (cfiCond58) R7 load(1, XDATA, add(CFA_XSP16, literal(-6)))
          CFI (cfiCond58) ?RET_LOW load(1, XDATA, add(CFA_XSP16, literal(-5)))
          CFI (cfiCond58) ?RET_HIGH load(1, XDATA, add(CFA_XSP16, literal(-4)))
          CFI (cfiCond58) ?BRET_EXT load(1, XDATA, add(CFA_XSP16, literal(-3)))
          CFI (cfiCond58) DPL0 load(1, XDATA, add(CFA_XSP16, literal(-2)))
          CFI (cfiCond58) DPH0 load(1, XDATA, add(CFA_XSP16, literal(-1)))
          CFI (cfiCond58) CFA_SP SP+-4
          CFI (cfiCond58) CFA_XSP16 add(XSP16, 33)
          CFI Block cfiCond59 Using cfiCommon0
          CFI (cfiCond59) Function APSME_KeyFwdToChild
          CFI (cfiCond59) Conditional ??CrossCallReturnLabel_149, ??CrossCallReturnLabel_142
          CFI (cfiCond59) R6 load(1, XDATA, add(CFA_XSP16, literal(-10)))
          CFI (cfiCond59) VB load(1, XDATA, add(CFA_XSP16, literal(-9)))
          CFI (cfiCond59) V0 load(1, XDATA, add(CFA_XSP16, literal(-8)))
          CFI (cfiCond59) V1 load(1, XDATA, add(CFA_XSP16, literal(-7)))
          CFI (cfiCond59) R7 load(1, XDATA, add(CFA_XSP16, literal(-6)))
          CFI (cfiCond59) ?RET_LOW load(1, XDATA, add(CFA_XSP16, literal(-5)))
          CFI (cfiCond59) ?RET_HIGH load(1, XDATA, add(CFA_XSP16, literal(-4)))
          CFI (cfiCond59) ?BRET_EXT load(1, XDATA, add(CFA_XSP16, literal(-3)))
          CFI (cfiCond59) DPL0 load(1, XDATA, add(CFA_XSP16, literal(-2)))
          CFI (cfiCond59) DPH0 load(1, XDATA, add(CFA_XSP16, literal(-1)))
          CFI (cfiCond59) CFA_SP SP+-4
          CFI (cfiCond59) CFA_XSP16 add(XSP16, 10)
          CFI Block cfiCond60 Using cfiCommon0
          CFI (cfiCond60) Function ZDSecMgrAddLinkKey
          CFI (cfiCond60) Conditional ??CrossCallReturnLabel_149, ??CrossCallReturnLabel_143
          CFI (cfiCond60) R6 load(1, XDATA, add(CFA_XSP16, literal(-10)))
          CFI (cfiCond60) VB load(1, XDATA, add(CFA_XSP16, literal(-9)))
          CFI (cfiCond60) V0 load(1, XDATA, add(CFA_XSP16, literal(-8)))
          CFI (cfiCond60) V1 load(1, XDATA, add(CFA_XSP16, literal(-7)))
          CFI (cfiCond60) R7 load(1, XDATA, add(CFA_XSP16, literal(-6)))
          CFI (cfiCond60) ?RET_LOW load(1, XDATA, add(CFA_XSP16, literal(-5)))
          CFI (cfiCond60) ?RET_HIGH load(1, XDATA, add(CFA_XSP16, literal(-4)))
          CFI (cfiCond60) ?BRET_EXT load(1, XDATA, add(CFA_XSP16, literal(-3)))
          CFI (cfiCond60) DPL0 load(1, XDATA, add(CFA_XSP16, literal(-2)))
          CFI (cfiCond60) DPH0 load(1, XDATA, add(CFA_XSP16, literal(-1)))
          CFI (cfiCond60) CFA_SP SP+-4
          CFI (cfiCond60) CFA_XSP16 add(XSP16, 14)
          CFI Block cfiPicker61 Using cfiCommon1
          CFI (cfiPicker61) NoFunction
          CFI (cfiPicker61) Picker
        MOVX      A,@DPTR
        MOV       R0,A
        INC       DPTR
        MOVX      A,@DPTR
        MOV       R1,A
        MOV       A,R0
        RET
          CFI EndBlock cfiCond48
          CFI EndBlock cfiCond49
          CFI EndBlock cfiCond50
          CFI EndBlock cfiCond51
          CFI EndBlock cfiCond52
          CFI EndBlock cfiCond53
          CFI EndBlock cfiCond54
          CFI EndBlock cfiCond55
          CFI EndBlock cfiCond56
          CFI EndBlock cfiCond57
          CFI EndBlock cfiCond58
          CFI EndBlock cfiCond59
          CFI EndBlock cfiCond60
          CFI EndBlock cfiPicker61
//  511 
//  512 /******************************************************************************
//  513  * @fn          ZDSecMgrEntryLookupExt
//  514  *
//  515  * @brief       Lookup entry index using specified EXT address.
//  516  *
//  517  * @param       extAddr - [in] EXT address
//  518  * @param       entry   - [out] valid entry
//  519  *
//  520  * @return      ZStatus_t
//  521  */

        RSEG BANKED_CODE:HUGECODE:NOROOT(0)
//  522 ZStatus_t ZDSecMgrEntryLookupExt( uint8* extAddr, ZDSecMgrEntry_t** entry )
ZDSecMgrEntryLookupExt:
          CFI Block cfiBlock62 Using cfiCommon0
          CFI Function ZDSecMgrEntryLookupExt
        CODE
//  523 {
        FUNCALL ZDSecMgrEntryLookupExt, ZDSecMgrExtAddrLookup
        LOCFRAME ISTACK, 0, STACK
        LOCFRAME PSTACK, 0, STACK
        LOCFRAME XSTACK, 11, STACK
        LOCFRAME IOVERLAY, 0, STATIC
        LOCFRAME DOVERLAY, 0, STATIC
        ARGFRAME ISTACK, 0, STACK
        ARGFRAME PSTACK, 0, STACK
        ARGFRAME XSTACK, 11, STACK
        ARGFRAME IOVERLAY, 0, STATIC
        ARGFRAME DOVERLAY, 0, STATIC
        FUNCALL ZDSecMgrEntryLookupExt, ZDSecMgrEntryLookupAMI
        LOCFRAME ISTACK, 0, STACK
        LOCFRAME PSTACK, 0, STACK
        LOCFRAME XSTACK, 11, STACK
        LOCFRAME IOVERLAY, 0, STATIC
        LOCFRAME DOVERLAY, 0, STATIC
        ARGFRAME ISTACK, 0, STACK
        ARGFRAME PSTACK, 0, STACK
        ARGFRAME XSTACK, 11, STACK
        ARGFRAME IOVERLAY, 0, STATIC
        ARGFRAME DOVERLAY, 0, STATIC
        REQUIRE ?V0
        MOV       A,#-0x9
        LCALL     ?BANKED_ENTER_XDATA
          CFI DPH0 load(1, XDATA, add(CFA_XSP16, literal(-1)))
          CFI DPL0 load(1, XDATA, add(CFA_XSP16, literal(-2)))
          CFI ?BRET_EXT load(1, XDATA, add(CFA_XSP16, literal(-3)))
          CFI ?RET_HIGH load(1, XDATA, add(CFA_XSP16, literal(-4)))
          CFI ?RET_LOW load(1, XDATA, add(CFA_XSP16, literal(-5)))
          CFI R7 load(1, XDATA, add(CFA_XSP16, literal(-6)))
          CFI V0 load(1, XDATA, add(CFA_XSP16, literal(-7)))
          CFI VB load(1, XDATA, add(CFA_XSP16, literal(-8)))
          CFI R6 load(1, XDATA, add(CFA_XSP16, literal(-9)))
          CFI CFA_SP SP+0
          CFI CFA_XSP16 add(XSP16, 9)
        ; Saved register size: 9
        ; Auto size: 2
        MOV       A,#-0x2
        LCALL     ?ALLOC_XSTACK8
          CFI CFA_XSP16 add(XSP16, 11)
        MOV       A,R4
        MOV       R6,A
        MOV       A,R5
        MOV       R7,A
//  524   ZStatus_t status;
//  525   uint16    ami;
//  526 
//  527   // initialize results
//  528   *entry = NULL;
        MOV       DPL,R4
        MOV       DPH,A
        CLR       A
        MOVX      @DPTR,A
        INC       DPTR
        MOVX      @DPTR,A
//  529   status = ZNwkUnknownDevice;
        MOV       ?V0,#-0x38
//  530 
//  531   // lookup address index
//  532   if ( ZDSecMgrExtAddrLookup( extAddr, &ami ) == ZSuccess )
        ; Setup parameters for call to function ZDSecMgrExtAddrLookup
        MOV       R4,?XSP + 0
        MOV       R5,?XSP + 1
        LCALL     `??ZDSecMgrExtAddrLookup::?relay`; Banked call to: ZDSecMgrExtAddrLookup
        MOV       A,R1
        JNZ       ??ZDSecMgrEntryLookupExt_0
//  533   {
//  534     status = ZDSecMgrEntryLookupAMI( ami, entry );
        ; Setup parameters for call to function ZDSecMgrEntryLookupAMI
        MOV       A,R6
        MOV       R4,A
        MOV       A,R7
        MOV       R5,A
        MOV       DPL,?XSP + 0
        MOV       DPH,?XSP + 1
        LCALL     ?Subroutine35 & 0xFFFF
//  535   }
??CrossCallReturnLabel_34:
        MOV       A,R1
        MOV       ?V0,A
//  536 
//  537   return status;
??ZDSecMgrEntryLookupExt_0:
        MOV       R1,?V0
        LJMP      ?Subroutine7 & 0xFFFF
//  538 }
          CFI EndBlock cfiBlock62
//  539 
//  540 /******************************************************************************
//  541  * @fn          ZDSecMgrEntryLookupExtGetIndex
//  542  *
//  543  * @brief       Lookup entry index using specified EXT address.
//  544  *
//  545  * @param       extAddr - [in] EXT address
//  546  * @param       entryIndex - [out] valid index to the entry table
//  547  *
//  548  * @return      ZStatus_t
//  549  */

        RSEG BANKED_CODE:HUGECODE:NOROOT(0)
//  550 ZStatus_t ZDSecMgrEntryLookupExtGetIndex( uint8* extAddr, ZDSecMgrEntry_t** entry, uint16* entryIndex )
ZDSecMgrEntryLookupExtGetIndex:
          CFI Block cfiBlock63 Using cfiCommon0
          CFI Function ZDSecMgrEntryLookupExtGetIndex
        CODE
//  551 {
        FUNCALL ZDSecMgrEntryLookupExtGetIndex, ZDSecMgrExtAddrLookup
        LOCFRAME ISTACK, 0, STACK
        LOCFRAME PSTACK, 0, STACK
        LOCFRAME XSTACK, 11, STACK
        LOCFRAME IOVERLAY, 0, STATIC
        LOCFRAME DOVERLAY, 0, STATIC
        ARGFRAME ISTACK, 0, STACK
        ARGFRAME PSTACK, 0, STACK
        ARGFRAME XSTACK, 11, STACK
        ARGFRAME IOVERLAY, 0, STATIC
        ARGFRAME DOVERLAY, 0, STATIC
        MOV       A,#-0x9
        LCALL     ?BANKED_ENTER_XDATA
          CFI DPH0 load(1, XDATA, add(CFA_XSP16, literal(-1)))
          CFI DPL0 load(1, XDATA, add(CFA_XSP16, literal(-2)))
          CFI ?BRET_EXT load(1, XDATA, add(CFA_XSP16, literal(-3)))
          CFI ?RET_HIGH load(1, XDATA, add(CFA_XSP16, literal(-4)))
          CFI ?RET_LOW load(1, XDATA, add(CFA_XSP16, literal(-5)))
          CFI R7 load(1, XDATA, add(CFA_XSP16, literal(-6)))
          CFI V0 load(1, XDATA, add(CFA_XSP16, literal(-7)))
          CFI VB load(1, XDATA, add(CFA_XSP16, literal(-8)))
          CFI R6 load(1, XDATA, add(CFA_XSP16, literal(-9)))
          CFI CFA_SP SP+0
          CFI CFA_XSP16 add(XSP16, 9)
        ; Saved register size: 9
        ; Auto size: 2
        MOV       A,#-0x2
        LCALL     ?ALLOC_XSTACK8
          CFI CFA_XSP16 add(XSP16, 11)
        MOV       A,R4
        MOV       R6,A
        MOV       A,R5
        MOV       R7,A
//  552   uint16 ami;
//  553   uint16 index;
//  554 
//  555   // lookup address index
//  556   if ( ZDSecMgrExtAddrLookup( extAddr, &ami ) == ZSuccess )
        ; Setup parameters for call to function ZDSecMgrExtAddrLookup
        MOV       R4,?XSP + 0
        MOV       R5,?XSP + 1
        LCALL     `??ZDSecMgrExtAddrLookup::?relay`; Banked call to: ZDSecMgrExtAddrLookup
        MOV       A,R1
        JNZ       ??ZDSecMgrEntryLookupExtGetIndex_0
//  557   {
//  558     // verify data is available
//  559     if ( ZDSecMgrEntries != NULL )
        LCALL     ?Subroutine25 & 0xFFFF
??CrossCallReturnLabel_145:
        JZ        ??ZDSecMgrEntryLookupExtGetIndex_0
//  560     {
//  561       for ( index = 0; index < ZDSECMGR_ENTRY_MAX ; index++ )
        MOV       R0,#0x0
        MOV       R1,#0x0
//  562       {
//  563         if ( ZDSecMgrEntries[index].ami == ami )
??ZDSecMgrEntryLookupExtGetIndex_1:
        LCALL     ?Subroutine33 & 0xFFFF
??CrossCallReturnLabel_29:
        LCALL     ?Subroutine34 & 0xFFFF
??CrossCallReturnLabel_31:
        MOV       DPL,?XSP + 0
        MOV       DPH,?XSP + 1
        MOVX      A,@DPTR
        XRL       A,R4
        JNZ       ??ZDSecMgrEntryLookupExtGetIndex_2
        INC       DPTR
        MOVX      A,@DPTR
        XRL       A,R5
??ZDSecMgrEntryLookupExtGetIndex_2:
        JNZ       ??ZDSecMgrEntryLookupExtGetIndex_3
//  564         {
//  565           // return successful results
//  566           *entry = &ZDSecMgrEntries[index];
        LCALL     ?Subroutine22 & 0xFFFF
//  567           *entryIndex = index;
??CrossCallReturnLabel_111:
        MOV       A,#0xb
        LCALL     ?XSTACK_DISP0_8
        LCALL     ??Subroutine71_0 & 0xFFFF
//  568 
//  569           // break from loop
//  570           return ZSuccess;
//  571         }
//  572       }
??CrossCallReturnLabel_130:
        LCALL     ??Subroutine55_0 & 0xFFFF
??CrossCallReturnLabel_56:
        SJMP      ??ZDSecMgrEntryLookupExtGetIndex_4
??ZDSecMgrEntryLookupExtGetIndex_3:
        INC       R0
        MOV       A,R0
        JNZ       ??ZDSecMgrEntryLookupExtGetIndex_5
        INC       R1
??ZDSecMgrEntryLookupExtGetIndex_5:
        LCALL     ?Subroutine39 & 0xFFFF
//  573     }
//  574   }
??CrossCallReturnLabel_62:
        JC        ??ZDSecMgrEntryLookupExtGetIndex_1
//  575 
//  576   return ZNwkUnknownDevice;
??ZDSecMgrEntryLookupExtGetIndex_0:
        MOV       R1,#-0x38
??ZDSecMgrEntryLookupExtGetIndex_4:
        LJMP      ?Subroutine7 & 0xFFFF
//  577 }
          CFI EndBlock cfiBlock63

        RSEG BANKED_CODE:HUGECODE:NOROOT(0)
?Subroutine33:
          CFI Block cfiCond64 Using cfiCommon0
          CFI Function ZDSecMgrEntryInit
          CFI Conditional ??CrossCallReturnLabel_28
          CFI DPL0 Frame(CFA_SP, 4)
          CFI DPH0 Frame(CFA_SP, 5)
          CFI CFA_SP SP+-7
          CFI Block cfiCond65 Using cfiCommon0
          CFI (cfiCond65) Function ZDSecMgrEntryLookupExtGetIndex
          CFI (cfiCond65) Conditional ??CrossCallReturnLabel_29
          CFI (cfiCond65) R6 load(1, XDATA, add(CFA_XSP16, literal(-9)))
          CFI (cfiCond65) VB load(1, XDATA, add(CFA_XSP16, literal(-8)))
          CFI (cfiCond65) V0 load(1, XDATA, add(CFA_XSP16, literal(-7)))
          CFI (cfiCond65) R7 load(1, XDATA, add(CFA_XSP16, literal(-6)))
          CFI (cfiCond65) ?RET_LOW load(1, XDATA, add(CFA_XSP16, literal(-5)))
          CFI (cfiCond65) ?RET_HIGH load(1, XDATA, add(CFA_XSP16, literal(-4)))
          CFI (cfiCond65) ?BRET_EXT load(1, XDATA, add(CFA_XSP16, literal(-3)))
          CFI (cfiCond65) DPL0 load(1, XDATA, add(CFA_XSP16, literal(-2)))
          CFI (cfiCond65) DPH0 load(1, XDATA, add(CFA_XSP16, literal(-1)))
          CFI (cfiCond65) CFA_SP SP+-2
          CFI (cfiCond65) CFA_XSP16 add(XSP16, 11)
          CFI Block cfiPicker66 Using cfiCommon1
          CFI (cfiPicker66) NoFunction
          CFI (cfiPicker66) Picker
        LCALL     ?Subroutine54 & 0xFFFF
??CrossCallReturnLabel_52:
        MOV       DPL,R2
        MOV       DPH,A
        RET
          CFI EndBlock cfiCond64
          CFI EndBlock cfiCond65
          CFI EndBlock cfiPicker66

        RSEG BANKED_CODE:HUGECODE:NOROOT(0)
?Subroutine54:
          CFI Block cfiCond67 Using cfiCommon0
          CFI Function ZDSecMgrEntryLookup
          CFI Conditional ??CrossCallReturnLabel_51
          CFI R6 load(1, XDATA, add(CFA_XSP16, literal(-9)))
          CFI VB load(1, XDATA, add(CFA_XSP16, literal(-8)))
          CFI V0 load(1, XDATA, add(CFA_XSP16, literal(-7)))
          CFI R7 load(1, XDATA, add(CFA_XSP16, literal(-6)))
          CFI ?RET_LOW load(1, XDATA, add(CFA_XSP16, literal(-5)))
          CFI ?RET_HIGH load(1, XDATA, add(CFA_XSP16, literal(-4)))
          CFI ?BRET_EXT load(1, XDATA, add(CFA_XSP16, literal(-3)))
          CFI DPL0 load(1, XDATA, add(CFA_XSP16, literal(-2)))
          CFI DPH0 load(1, XDATA, add(CFA_XSP16, literal(-1)))
          CFI CFA_SP SP+-2
          CFI CFA_XSP16 add(XSP16, 22)
          CFI Block cfiCond68 Using cfiCommon0
          CFI (cfiCond68) Function ZDSecMgrEntryInit
          CFI (cfiCond68) Conditional ??CrossCallReturnLabel_52, ??CrossCallReturnLabel_28
          CFI (cfiCond68) DPL0 Frame(CFA_SP, 4)
          CFI (cfiCond68) DPH0 Frame(CFA_SP, 5)
          CFI (cfiCond68) CFA_SP SP+-9
          CFI Block cfiCond69 Using cfiCommon0
          CFI (cfiCond69) Function ZDSecMgrEntryLookupExtGetIndex
          CFI (cfiCond69) Conditional ??CrossCallReturnLabel_52, ??CrossCallReturnLabel_29
          CFI (cfiCond69) R6 load(1, XDATA, add(CFA_XSP16, literal(-9)))
          CFI (cfiCond69) VB load(1, XDATA, add(CFA_XSP16, literal(-8)))
          CFI (cfiCond69) V0 load(1, XDATA, add(CFA_XSP16, literal(-7)))
          CFI (cfiCond69) R7 load(1, XDATA, add(CFA_XSP16, literal(-6)))
          CFI (cfiCond69) ?RET_LOW load(1, XDATA, add(CFA_XSP16, literal(-5)))
          CFI (cfiCond69) ?RET_HIGH load(1, XDATA, add(CFA_XSP16, literal(-4)))
          CFI (cfiCond69) ?BRET_EXT load(1, XDATA, add(CFA_XSP16, literal(-3)))
          CFI (cfiCond69) DPL0 load(1, XDATA, add(CFA_XSP16, literal(-2)))
          CFI (cfiCond69) DPH0 load(1, XDATA, add(CFA_XSP16, literal(-1)))
          CFI (cfiCond69) CFA_SP SP+-4
          CFI (cfiCond69) CFA_XSP16 add(XSP16, 11)
          CFI Block cfiPicker70 Using cfiCommon1
          CFI (cfiPicker70) NoFunction
          CFI (cfiPicker70) Picker
        MOV       A,R0
        MOV       R2,A
        MOV       A,R1
        MOV       R3,A
        MOV       A,R2
        MOV       B,#0x5
        MUL       AB
        MOV       R2,A
        MOV       R4,B
        MOV       B,#0x5
        MOV       A,R3
        MUL       AB
        ADD       A,R4
        MOV       R3,A
        MOV       DPTR,#ZDSecMgrEntries
        MOVX      A,@DPTR
        ADD       A,R2
        MOV       R2,A
        INC       DPTR
        MOVX      A,@DPTR
        ADDC      A,R3
        MOV       R3,A
        RET
          CFI EndBlock cfiCond67
          CFI EndBlock cfiCond68
          CFI EndBlock cfiCond69
          CFI EndBlock cfiPicker70
//  578 
//  579 /******************************************************************************
//  580  * @fn          ZDSecMgrEntryLookupAMIGetIndex
//  581  *
//  582  * @brief       Lookup entry using specified address index
//  583  *
//  584  * @param       ami   - [in] Address Manager index
//  585  * @param       entryIndex - [out] valid index to the entry table
//  586  *
//  587  * @return      ZStatus_t
//  588  */

        RSEG BANKED_CODE:HUGECODE:NOROOT(0)
//  589 ZStatus_t ZDSecMgrEntryLookupAMIGetIndex( uint16 ami, uint16* entryIndex )
ZDSecMgrEntryLookupAMIGetIndex:
          CFI Block cfiBlock71 Using cfiCommon0
          CFI Function ZDSecMgrEntryLookupAMIGetIndex
        CODE
//  590 {
        REQUIRE ?V0
        MOV       A,#-0x9
        LCALL     ?BANKED_ENTER_XDATA
          CFI DPH0 load(1, XDATA, add(CFA_XSP16, literal(-1)))
          CFI DPL0 load(1, XDATA, add(CFA_XSP16, literal(-2)))
          CFI ?BRET_EXT load(1, XDATA, add(CFA_XSP16, literal(-3)))
          CFI ?RET_HIGH load(1, XDATA, add(CFA_XSP16, literal(-4)))
          CFI ?RET_LOW load(1, XDATA, add(CFA_XSP16, literal(-5)))
          CFI R7 load(1, XDATA, add(CFA_XSP16, literal(-6)))
          CFI V0 load(1, XDATA, add(CFA_XSP16, literal(-7)))
          CFI VB load(1, XDATA, add(CFA_XSP16, literal(-8)))
          CFI R6 load(1, XDATA, add(CFA_XSP16, literal(-9)))
          CFI CFA_SP SP+0
          CFI CFA_XSP16 add(XSP16, 9)
        ; Saved register size: 9
        ; Auto size: 0
//  591   uint16 index;
//  592 
//  593   // verify data is available
//  594   if ( ZDSecMgrEntries != NULL )
        LCALL     ?Subroutine25 & 0xFFFF
??CrossCallReturnLabel_146:
        JZ        ??ZDSecMgrEntryLookupAMIGetIndex_0
//  595   {
//  596     for ( index = 0; index < ZDSECMGR_ENTRY_MAX ; index++ )
        MOV       R0,#0x0
        MOV       R1,#0x0
//  597     {
//  598       if ( ZDSecMgrEntries[index].ami == ami )
??ZDSecMgrEntryLookupAMIGetIndex_1:
        LCALL     ?Subroutine41 & 0xFFFF
??CrossCallReturnLabel_44:
        MOV       ?V0,A
        INC       DPTR
        MOVX      A,@DPTR
        ADDC      A,R7
        MOV       DPL,?V0
        MOV       DPH,A
        MOVX      A,@DPTR
        XRL       A,R2
        JNZ       ??ZDSecMgrEntryLookupAMIGetIndex_2
        INC       DPTR
        MOVX      A,@DPTR
        XRL       A,R3
??ZDSecMgrEntryLookupAMIGetIndex_2:
        JNZ       ??ZDSecMgrEntryLookupAMIGetIndex_3
//  599       {
//  600         // return successful results
//  601         *entryIndex = index;
        MOV       DPL,R4
        MOV       DPH,R5
        LCALL     ??Subroutine55_0 & 0xFFFF
//  602 
//  603         // break from loop
//  604         return ZSuccess;
//  605       }
//  606     }
??CrossCallReturnLabel_57:
        SJMP      ??ZDSecMgrEntryLookupAMIGetIndex_4
??ZDSecMgrEntryLookupAMIGetIndex_3:
        INC       R0
        MOV       A,R0
        JNZ       ??ZDSecMgrEntryLookupAMIGetIndex_5
        INC       R1
??ZDSecMgrEntryLookupAMIGetIndex_5:
        LCALL     ?Subroutine39 & 0xFFFF
//  607   }
??CrossCallReturnLabel_63:
        JC        ??ZDSecMgrEntryLookupAMIGetIndex_1
//  608 
//  609   return ZNwkUnknownDevice;
??ZDSecMgrEntryLookupAMIGetIndex_0:
        MOV       R1,#-0x38
??ZDSecMgrEntryLookupAMIGetIndex_4:
        LJMP      ??Subroutine67_0 & 0xFFFF
//  610 }
          CFI EndBlock cfiBlock71

        RSEG BANKED_CODE:HUGECODE:NOROOT(0)
?Subroutine41:
          CFI Block cfiCond72 Using cfiCommon0
          CFI Function ZDSecMgrEntryLookupAMI
          CFI Conditional ??CrossCallReturnLabel_43
          CFI R6 load(1, XDATA, add(CFA_XSP16, literal(-9)))
          CFI VB load(1, XDATA, add(CFA_XSP16, literal(-8)))
          CFI V0 load(1, XDATA, add(CFA_XSP16, literal(-7)))
          CFI R7 load(1, XDATA, add(CFA_XSP16, literal(-6)))
          CFI ?RET_LOW load(1, XDATA, add(CFA_XSP16, literal(-5)))
          CFI ?RET_HIGH load(1, XDATA, add(CFA_XSP16, literal(-4)))
          CFI ?BRET_EXT load(1, XDATA, add(CFA_XSP16, literal(-3)))
          CFI DPL0 load(1, XDATA, add(CFA_XSP16, literal(-2)))
          CFI DPH0 load(1, XDATA, add(CFA_XSP16, literal(-1)))
          CFI CFA_SP SP+-2
          CFI CFA_XSP16 add(XSP16, 9)
          CFI Block cfiCond73 Using cfiCommon0
          CFI (cfiCond73) Function ZDSecMgrEntryLookupAMIGetIndex
          CFI (cfiCond73) Conditional ??CrossCallReturnLabel_44
          CFI (cfiCond73) R6 load(1, XDATA, add(CFA_XSP16, literal(-9)))
          CFI (cfiCond73) VB load(1, XDATA, add(CFA_XSP16, literal(-8)))
          CFI (cfiCond73) V0 load(1, XDATA, add(CFA_XSP16, literal(-7)))
          CFI (cfiCond73) R7 load(1, XDATA, add(CFA_XSP16, literal(-6)))
          CFI (cfiCond73) ?RET_LOW load(1, XDATA, add(CFA_XSP16, literal(-5)))
          CFI (cfiCond73) ?RET_HIGH load(1, XDATA, add(CFA_XSP16, literal(-4)))
          CFI (cfiCond73) ?BRET_EXT load(1, XDATA, add(CFA_XSP16, literal(-3)))
          CFI (cfiCond73) DPL0 load(1, XDATA, add(CFA_XSP16, literal(-2)))
          CFI (cfiCond73) DPH0 load(1, XDATA, add(CFA_XSP16, literal(-1)))
          CFI (cfiCond73) CFA_SP SP+-2
          CFI (cfiCond73) CFA_XSP16 add(XSP16, 9)
          CFI Block cfiPicker74 Using cfiCommon1
          CFI (cfiPicker74) NoFunction
          CFI (cfiPicker74) Picker
        MOV       A,R0
        MOV       R6,A
        MOV       A,R1
        MOV       R7,A
        MOV       A,R6
        MOV       B,#0x5
        MUL       AB
        MOV       R6,A
        MOV       ?V0,B
        MOV       B,#0x5
        MOV       A,R7
        MUL       AB
        ADD       A,?V0
        MOV       R7,A
        MOV       DPTR,#ZDSecMgrEntries
        MOVX      A,@DPTR
        ADD       A,R6
        RET
          CFI EndBlock cfiCond72
          CFI EndBlock cfiCond73
          CFI EndBlock cfiPicker74
//  611 
//  612 /******************************************************************************
//  613  * @fn          ZDSecMgrEntryFree
//  614  *
//  615  * @brief       Free entry.
//  616  *
//  617  * @param       entry - [in] valid entry
//  618  *
//  619  * @return      ZStatus_t
//  620  */

        RSEG BANKED_CODE:HUGECODE:NOROOT(0)
//  621 void ZDSecMgrEntryFree( ZDSecMgrEntry_t* entry )
ZDSecMgrEntryFree:
          CFI Block cfiBlock75 Using cfiCommon0
          CFI Function ZDSecMgrEntryFree
        CODE
//  622 {
        FUNCALL ZDSecMgrEntryFree, osal_mem_alloc
        LOCFRAME ISTACK, 0, STACK
        LOCFRAME PSTACK, 0, STACK
        LOCFRAME XSTACK, 14, STACK
        LOCFRAME IOVERLAY, 0, STATIC
        LOCFRAME DOVERLAY, 0, STATIC
        ARGFRAME ISTACK, 0, STACK
        ARGFRAME PSTACK, 0, STACK
        ARGFRAME XSTACK, 14, STACK
        ARGFRAME IOVERLAY, 0, STATIC
        ARGFRAME DOVERLAY, 0, STATIC
        FUNCALL ZDSecMgrEntryFree, osal_memset
        LOCFRAME ISTACK, 0, STACK
        LOCFRAME PSTACK, 0, STACK
        LOCFRAME XSTACK, 14, STACK
        LOCFRAME IOVERLAY, 0, STATIC
        LOCFRAME DOVERLAY, 0, STATIC
        ARGFRAME ISTACK, 0, STACK
        ARGFRAME PSTACK, 0, STACK
        ARGFRAME XSTACK, 14, STACK
        ARGFRAME IOVERLAY, 0, STATIC
        ARGFRAME DOVERLAY, 0, STATIC
        FUNCALL ZDSecMgrEntryFree, osal_nv_write
        LOCFRAME ISTACK, 0, STACK
        LOCFRAME PSTACK, 0, STACK
        LOCFRAME XSTACK, 18, STACK
        LOCFRAME IOVERLAY, 0, STATIC
        LOCFRAME DOVERLAY, 0, STATIC
        ARGFRAME ISTACK, 0, STACK
        ARGFRAME PSTACK, 0, STACK
        ARGFRAME XSTACK, 18, STACK
        ARGFRAME IOVERLAY, 0, STATIC
        ARGFRAME DOVERLAY, 0, STATIC
        FUNCALL ZDSecMgrEntryFree, osal_mem_free
        LOCFRAME ISTACK, 0, STACK
        LOCFRAME PSTACK, 0, STACK
        LOCFRAME XSTACK, 14, STACK
        LOCFRAME IOVERLAY, 0, STATIC
        LOCFRAME DOVERLAY, 0, STATIC
        ARGFRAME ISTACK, 0, STACK
        ARGFRAME PSTACK, 0, STACK
        ARGFRAME XSTACK, 14, STACK
        ARGFRAME IOVERLAY, 0, STATIC
        ARGFRAME DOVERLAY, 0, STATIC
        REQUIRE ?V0
        REQUIRE ?V1
        REQUIRE ?V2
        REQUIRE ?V3
        REQUIRE ?V4
        REQUIRE ?V5
        MOV       A,#-0xe
        LCALL     ?BANKED_ENTER_XDATA
          CFI DPH0 load(1, XDATA, add(CFA_XSP16, literal(-1)))
          CFI DPL0 load(1, XDATA, add(CFA_XSP16, literal(-2)))
          CFI ?BRET_EXT load(1, XDATA, add(CFA_XSP16, literal(-3)))
          CFI ?RET_HIGH load(1, XDATA, add(CFA_XSP16, literal(-4)))
          CFI ?RET_LOW load(1, XDATA, add(CFA_XSP16, literal(-5)))
          CFI R7 load(1, XDATA, add(CFA_XSP16, literal(-6)))
          CFI V5 load(1, XDATA, add(CFA_XSP16, literal(-7)))
          CFI V4 load(1, XDATA, add(CFA_XSP16, literal(-8)))
          CFI V3 load(1, XDATA, add(CFA_XSP16, literal(-9)))
          CFI V2 load(1, XDATA, add(CFA_XSP16, literal(-10)))
          CFI V1 load(1, XDATA, add(CFA_XSP16, literal(-11)))
          CFI V0 load(1, XDATA, add(CFA_XSP16, literal(-12)))
          CFI VB load(1, XDATA, add(CFA_XSP16, literal(-13)))
          CFI R6 load(1, XDATA, add(CFA_XSP16, literal(-14)))
          CFI CFA_SP SP+0
          CFI CFA_XSP16 add(XSP16, 14)
        ; Saved register size: 14
        ; Auto size: 0
        MOV       A,R2
        MOV       R6,A
        MOV       A,R3
        MOV       R7,A
//  623   APSME_LinkKeyData_t   *pApsLinkKey = NULL;
//  624 
//  625 #if defined ( NV_RESTORE )
//  626   ZStatus_t status;
//  627   uint16 entryIndex;
//  628 
//  629   status = ZDSecMgrEntryLookupAMIGetIndex( entry->ami, &entryIndex );
//  630 #endif
//  631 
//  632   pApsLinkKey = (APSME_LinkKeyData_t *)osal_mem_alloc(sizeof(APSME_LinkKeyData_t));
        ; Setup parameters for call to function osal_mem_alloc
        LCALL     ?Subroutine38 & 0xFFFF
//  633 
//  634   if (pApsLinkKey != NULL)
??CrossCallReturnLabel_38:
        JZ        ??ZDSecMgrEntryFree_0
//  635   {
//  636     osal_memset( pApsLinkKey, 0x00, sizeof(APSME_LinkKeyData_t) );
        ; Setup parameters for call to function osal_memset
        MOV       R4,#0x18
        MOV       R5,#0x0
        MOV       R1,#0x0
        LCALL     `??osal_memset::?relay`; Banked call to: osal_memset
//  637 
//  638     // Clear the APS Link key in NV
//  639     osal_nv_write( entry->keyNvId, 0,
//  640                         sizeof(APSME_LinkKeyData_t), pApsLinkKey);
        MOV       A,R6
        ADD       A,#0x2
        MOV       R0,A
        CLR       A
        ADDC      A,R7
        MOV       ?V0,R0
        MOV       ?V1,A
        ; Setup parameters for call to function osal_nv_write
        MOV       R0,#?V2
        LCALL     ?PUSH_XSTACK_I_TWO
          CFI CFA_XSP16 add(XSP16, 16)
        MOV       ?V4,#0x18
        MOV       ?V5,#0x0
        MOV       R0,#?V4
        LCALL     ?PUSH_XSTACK_I_TWO
          CFI CFA_XSP16 add(XSP16, 18)
        MOV       R4,#0x0
        MOV       R5,#0x0
        LCALL     ?Subroutine37 & 0xFFFF
??CrossCallReturnLabel_72:
        LCALL     ??Subroutine82_0 & 0xFFFF
??CrossCallReturnLabel_192:
        LCALL     ?DEALLOC_XSTACK8
          CFI CFA_XSP16 add(XSP16, 14)
//  641 
//  642     // set entry to invalid Key
//  643     entry->keyNvId = SEC_NO_KEY_NV_ID;
        MOV       DPL,?V0
        MOV       DPH,?V1
        CLR       A
        MOVX      @DPTR,A
        INC       DPTR
        MOVX      @DPTR,A
//  644 
//  645     osal_mem_free(pApsLinkKey);
        ; Setup parameters for call to function osal_mem_free
        MOV       R2,?V2
        MOV       R3,?V3
        LCALL     `??osal_mem_free::?relay`; Banked call to: osal_mem_free
//  646   }
//  647 
//  648   // marking the entry as INVALID_NODE_ADDR
//  649   entry->ami = INVALID_NODE_ADDR;
??ZDSecMgrEntryFree_0:
        MOV       DPL,R6
        MOV       DPH,R7
        MOV       A,#-0x2
        MOVX      @DPTR,A
        INC       DPTR
        INC       A
        MOVX      @DPTR,A
//  650 
//  651   // set to default value
//  652   entry->authenticateOption = ZDSecMgr_Not_Authenticated;
        MOV       DPL,R6
        MOV       DPH,R7
        INC       DPTR
        INC       DPTR
        INC       DPTR
        INC       DPTR
        CLR       A
        MOVX      @DPTR,A
//  653 
//  654 #if defined ( NV_RESTORE )
//  655   if ( status == ZSuccess )
//  656   {
//  657     ZDSecMgrUpdateNV(entryIndex);
//  658   }
//  659 #endif
//  660 }
          CFI EndBlock cfiBlock75
        REQUIRE ?Subroutine2
        ; // Fall through to label ?Subroutine2

        RSEG BANKED_CODE:HUGECODE:NOROOT(0)
?Subroutine2:
          CFI Block cfiBlock76 Using cfiCommon0
          CFI NoFunction
          CFI CFA_SP SP+0
          CFI CFA_XSP16 add(XSP16, 14)
          CFI VB load(1, XDATA, add(CFA_XSP16, literal(-13)))
          CFI DPL0 load(1, XDATA, add(CFA_XSP16, literal(-2)))
          CFI DPH0 load(1, XDATA, add(CFA_XSP16, literal(-1)))
          CFI R6 load(1, XDATA, add(CFA_XSP16, literal(-14)))
          CFI R7 load(1, XDATA, add(CFA_XSP16, literal(-6)))
          CFI V0 load(1, XDATA, add(CFA_XSP16, literal(-12)))
          CFI V1 load(1, XDATA, add(CFA_XSP16, literal(-11)))
          CFI V2 load(1, XDATA, add(CFA_XSP16, literal(-10)))
          CFI V3 load(1, XDATA, add(CFA_XSP16, literal(-9)))
          CFI V4 load(1, XDATA, add(CFA_XSP16, literal(-8)))
          CFI V5 load(1, XDATA, add(CFA_XSP16, literal(-7)))
          CFI ?BRET_EXT load(1, XDATA, add(CFA_XSP16, literal(-3)))
          CFI ?RET_HIGH load(1, XDATA, add(CFA_XSP16, literal(-4)))
          CFI ?RET_LOW load(1, XDATA, add(CFA_XSP16, literal(-5)))
        MOV       R7,#0x6
        LJMP      ?BANKED_LEAVE_XDATA
          CFI EndBlock cfiBlock76
//  661 
//  662 /******************************************************************************
//  663  * @fn          ZDSecMgrEntryNew
//  664  *
//  665  * @brief       Get a new entry.
//  666  *
//  667  * @param       entry - [out] valid entry
//  668  *
//  669  * @return      ZStatus_t
//  670  */

        RSEG BANKED_CODE:HUGECODE:NOROOT(0)
//  671 ZStatus_t ZDSecMgrEntryNew( ZDSecMgrEntry_t** entry )
ZDSecMgrEntryNew:
          CFI Block cfiBlock77 Using cfiCommon0
          CFI Function ZDSecMgrEntryNew
        CODE
//  672 {
        REQUIRE ?V0
        MOV       A,#-0x9
        LCALL     ?BANKED_ENTER_XDATA
          CFI DPH0 load(1, XDATA, add(CFA_XSP16, literal(-1)))
          CFI DPL0 load(1, XDATA, add(CFA_XSP16, literal(-2)))
          CFI ?BRET_EXT load(1, XDATA, add(CFA_XSP16, literal(-3)))
          CFI ?RET_HIGH load(1, XDATA, add(CFA_XSP16, literal(-4)))
          CFI ?RET_LOW load(1, XDATA, add(CFA_XSP16, literal(-5)))
          CFI R7 load(1, XDATA, add(CFA_XSP16, literal(-6)))
          CFI V0 load(1, XDATA, add(CFA_XSP16, literal(-7)))
          CFI VB load(1, XDATA, add(CFA_XSP16, literal(-8)))
          CFI R6 load(1, XDATA, add(CFA_XSP16, literal(-9)))
          CFI CFA_SP SP+0
          CFI CFA_XSP16 add(XSP16, 9)
        ; Saved register size: 9
        ; Auto size: 0
//  673   uint16 index;
//  674 
//  675   // initialize results
//  676   *entry = NULL;
        MOV       DPL,R2
        MOV       DPH,R3
        LCALL     ?Subroutine11 & 0xFFFF
//  677 
//  678   // verify data is available
//  679   if ( ZDSecMgrEntries != NULL )
??CrossCallReturnLabel_2:
        JZ        ??ZDSecMgrEntryNew_0
//  680   {
//  681     // find available entry
//  682     for ( index = 0; index < ZDSECMGR_ENTRY_MAX ; index++ )
        MOV       R4,#0x0
        MOV       R5,#0x0
//  683     {
//  684       if ( ZDSecMgrEntries[index].ami == INVALID_NODE_ADDR )
??ZDSecMgrEntryNew_1:
        MOV       A,R4
        MOV       R0,A
        MOV       A,R5
        MOV       R1,A
        MOV       A,R0
        MOV       B,#0x5
        MUL       AB
        MOV       R0,A
        MOV       R6,B
        MOV       B,#0x5
        MOV       A,R1
        MUL       AB
        ADD       A,R6
        MOV       R1,A
        MOV       DPTR,#ZDSecMgrEntries
        MOVX      A,@DPTR
        ADD       A,R0
        MOV       R6,A
        INC       DPTR
        MOVX      A,@DPTR
        ADDC      A,R1
        MOV       R7,A
        MOV       DPL,R6
        MOV       DPH,A
        MOVX      A,@DPTR
        XRL       A,#0xfe
        JNZ       ??ZDSecMgrEntryNew_2
        INC       DPTR
        MOVX      A,@DPTR
        CPL       A
??ZDSecMgrEntryNew_2:
        JNZ       ??ZDSecMgrEntryNew_3
//  685       {
//  686         // return successful result
//  687         *entry = &ZDSecMgrEntries[index];
        MOV       DPL,R2
        MOV       DPH,R3
        MOV       A,R6
        MOVX      @DPTR,A
        INC       DPTR
        MOV       A,R7
        MOVX      @DPTR,A
//  688 
//  689         // Set the authentication option to default
//  690         ZDSecMgrEntries[index].authenticateOption = ZDSecMgr_Not_Authenticated;
        MOV       DPTR,#ZDSecMgrEntries
        MOVX      A,@DPTR
        ADD       A,R0
        MOV       R2,A
        INC       DPTR
        MOVX      A,@DPTR
        ADDC      A,R1
        MOV       DPL,R2
        MOV       DPH,A
        INC       DPTR
        INC       DPTR
        INC       DPTR
        INC       DPTR
        CLR       A
        MOVX      @DPTR,A
//  691 
//  692         // break from loop
//  693         return ZSuccess;
        MOV       R1,A
        SJMP      ??ZDSecMgrEntryNew_4
//  694       }
//  695     }
??ZDSecMgrEntryNew_3:
        INC       R4
        MOV       A,R4
        JNZ       ??ZDSecMgrEntryNew_5
        INC       R5
??ZDSecMgrEntryNew_5:
        CLR       C
        SUBB      A,#0x3
        MOV       A,R5
        SUBB      A,#0x0
        JC        ??ZDSecMgrEntryNew_1
//  696   }
//  697 
//  698   return ZNwkUnknownDevice;
??ZDSecMgrEntryNew_0:
        MOV       R1,#-0x38
??ZDSecMgrEntryNew_4:
        LJMP      ??Subroutine67_0 & 0xFFFF
//  699 }
          CFI EndBlock cfiBlock77
//  700 
//  701 /******************************************************************************
//  702  * @fn          ZDSecMgrAppKeyGet
//  703  *
//  704  * @brief       get an APP key - option APP(MASTER or LINK) key
//  705  *
//  706  * @param       initNwkAddr - [in] NWK address of initiator device
//  707  * @param       initExtAddr - [in] EXT address of initiator device
//  708  * @param       partNwkAddr - [in] NWK address of partner device
//  709  * @param       partExtAddr - [in] EXT address of partner device
//  710  * @param       key         - [out] APP(MASTER or LINK) key
//  711  * @param       keyType     - [out] APP(MASTER or LINK) key type
//  712  *
//  713  * @return      ZStatus_t
//  714  */

        RSEG XDATA_I:XDATA:NOROOT(0)
//  715 uint8 ZDSecMgrAppKeyType = KEY_TYPE_APP_LINK;    // Set the default key type
ZDSecMgrAppKeyType:
        DATA8
        DS 1
        REQUIRE `?<Initializer for ZDSecMgrAppKeyType>`
        REQUIRE __INIT_XDATA_I
//  716                                                  // to KEY_TYPE_APP_LINK since
//  717                                                  // only specific requirement
//  718                                                  // right now comes from SE profile
//  719 

        RSEG BANKED_CODE:HUGECODE:NOROOT(0)
//  720 ZStatus_t ZDSecMgrAppKeyGet( uint16  initNwkAddr,
ZDSecMgrAppKeyGet:
          CFI Block cfiBlock78 Using cfiCommon0
          CFI Function ZDSecMgrAppKeyGet
        CODE
//  721                              uint8*  initExtAddr,
//  722                              uint16  partNwkAddr,
//  723                              uint8*  partExtAddr,
//  724                              uint8** key,
//  725                              uint8*  keyType )
//  726 {
        FUNCALL ZDSecMgrAppKeyGet, SSP_GetTrueRand
        LOCFRAME ISTACK, 2, STACK
        LOCFRAME PSTACK, 0, STACK
        LOCFRAME XSTACK, 0, STACK
        LOCFRAME IOVERLAY, 0, STATIC
        LOCFRAME DOVERLAY, 0, STATIC
        ARGFRAME ISTACK, 2, STACK
        ARGFRAME PSTACK, 0, STACK
        ARGFRAME XSTACK, 0, STACK
        ARGFRAME IOVERLAY, 0, STATIC
        ARGFRAME DOVERLAY, 0, STATIC
        PUSH      DPL
          CFI DPL0 Frame(CFA_SP, 4)
          CFI CFA_SP SP+-4
        PUSH      DPH
          CFI DPH0 Frame(CFA_SP, 5)
          CFI CFA_SP SP+-5
        ; Saved register size: 2
        ; Auto size: 0
//  727   // Intentionally unreferenced parameters
//  728   (void)initNwkAddr;
//  729   (void)initExtAddr;
//  730   (void)partNwkAddr;
//  731   (void)partExtAddr;
//  732 
//  733   //---------------------------------------------------------------------------
//  734   // note:
//  735   // should use a robust mechanism to generate keys, for example
//  736   // combine EXT addresses and call a hash function
//  737   //---------------------------------------------------------------------------
//  738   SSP_GetTrueRand( SEC_KEY_LEN, *key );
        ; Setup parameters for call to function SSP_GetTrueRand
        MOV       A,#0x4
        LCALL     ?XSTACK_DISP0_8
        LCALL     ??Subroutine70_0 & 0xFFFF
??CrossCallReturnLabel_123:
        LCALL     ??Subroutine57_0 & 0xFFFF
??CrossCallReturnLabel_64:
        MOV       R1,#0x10
        LCALL     `??SSP_GetTrueRand::?relay`; Banked call to: SSP_GetTrueRand
//  739 
//  740   *keyType = ZDSecMgrAppKeyType;
        MOV       DPTR,#ZDSecMgrAppKeyType
        MOVX      A,@DPTR
        PUSH      A
          CFI CFA_SP SP+-6
        MOV       A,#0x6
        LCALL     ?XSTACK_DISP0_8
        LCALL     ??Subroutine70_0 & 0xFFFF
??CrossCallReturnLabel_124:
        POP       A
          CFI EndBlock cfiBlock78
        REQUIRE ?Subroutine10
        ; // Fall through to label ?Subroutine10
//  741 
//  742   return ZSuccess;
//  743 }

        RSEG BANKED_CODE:HUGECODE:NOROOT(0)
?Subroutine10:
          CFI Block cfiBlock79 Using cfiCommon0
          CFI NoFunction
          CFI CFA_SP SP+-5
          CFI DPL0 Frame(CFA_SP, 4)
          CFI DPH0 Frame(CFA_SP, 5)
        MOVX      @DPTR,A
        MOV       R1,#0x0
        LJMP      ??Subroutine59_0 & 0xFFFF
          CFI EndBlock cfiBlock79
//  744 
//  745 /******************************************************************************
//  746  * @fn          ZDSecMgrAppKeyReq
//  747  *
//  748  * @brief       Process request for APP key between two devices.
//  749  *
//  750  * @param       device - [in] ZDO_RequestKeyInd_t, request info
//  751  *
//  752  * @return      none
//  753  */

        RSEG BANKED_CODE:HUGECODE:NOROOT(0)
//  754 void ZDSecMgrAppKeyReq( ZDO_RequestKeyInd_t* ind )
ZDSecMgrAppKeyReq:
          CFI Block cfiBlock80 Using cfiCommon0
          CFI Function ZDSecMgrAppKeyReq
        CODE
//  755 {
        FUNCALL ZDSecMgrAppKeyReq, APSME_LookupNwkAddr
        LOCFRAME ISTACK, 0, STACK
        LOCFRAME PSTACK, 0, STACK
        LOCFRAME XSTACK, 51, STACK
        LOCFRAME IOVERLAY, 0, STATIC
        LOCFRAME DOVERLAY, 0, STATIC
        ARGFRAME ISTACK, 0, STACK
        ARGFRAME PSTACK, 0, STACK
        ARGFRAME XSTACK, 51, STACK
        ARGFRAME IOVERLAY, 0, STATIC
        ARGFRAME DOVERLAY, 0, STATIC
        FUNCALL ZDSecMgrAppKeyReq, APSME_LookupExtAddr
        LOCFRAME ISTACK, 0, STACK
        LOCFRAME PSTACK, 0, STACK
        LOCFRAME XSTACK, 51, STACK
        LOCFRAME IOVERLAY, 0, STATIC
        LOCFRAME DOVERLAY, 0, STATIC
        ARGFRAME ISTACK, 0, STACK
        ARGFRAME PSTACK, 0, STACK
        ARGFRAME XSTACK, 51, STACK
        ARGFRAME IOVERLAY, 0, STATIC
        ARGFRAME DOVERLAY, 0, STATIC
        FUNCALL ZDSecMgrAppKeyReq, ZDSecMgrAppKeyGet
        LOCFRAME ISTACK, 0, STACK
        LOCFRAME PSTACK, 0, STACK
        LOCFRAME XSTACK, 59, STACK
        LOCFRAME IOVERLAY, 0, STATIC
        LOCFRAME DOVERLAY, 0, STATIC
        ARGFRAME ISTACK, 0, STACK
        ARGFRAME PSTACK, 0, STACK
        ARGFRAME XSTACK, 59, STACK
        ARGFRAME IOVERLAY, 0, STATIC
        ARGFRAME DOVERLAY, 0, STATIC
        FUNCALL ZDSecMgrAppKeyReq, APSME_TransportKeyReq
        LOCFRAME ISTACK, 0, STACK
        LOCFRAME PSTACK, 0, STACK
        LOCFRAME XSTACK, 51, STACK
        LOCFRAME IOVERLAY, 0, STATIC
        LOCFRAME DOVERLAY, 0, STATIC
        ARGFRAME ISTACK, 0, STACK
        ARGFRAME PSTACK, 0, STACK
        ARGFRAME XSTACK, 51, STACK
        ARGFRAME IOVERLAY, 0, STATIC
        ARGFRAME DOVERLAY, 0, STATIC
        FUNCALL ZDSecMgrAppKeyReq, APSME_TransportKeyReq
        LOCFRAME ISTACK, 0, STACK
        LOCFRAME PSTACK, 0, STACK
        LOCFRAME XSTACK, 51, STACK
        LOCFRAME IOVERLAY, 0, STATIC
        LOCFRAME DOVERLAY, 0, STATIC
        ARGFRAME ISTACK, 0, STACK
        ARGFRAME PSTACK, 0, STACK
        ARGFRAME XSTACK, 51, STACK
        ARGFRAME IOVERLAY, 0, STATIC
        ARGFRAME DOVERLAY, 0, STATIC
        FUNCALL ZDSecMgrAppKeyReq, osal_memset
        LOCFRAME ISTACK, 0, STACK
        LOCFRAME PSTACK, 0, STACK
        LOCFRAME XSTACK, 51, STACK
        LOCFRAME IOVERLAY, 0, STATIC
        LOCFRAME DOVERLAY, 0, STATIC
        ARGFRAME ISTACK, 0, STACK
        ARGFRAME PSTACK, 0, STACK
        ARGFRAME XSTACK, 51, STACK
        ARGFRAME IOVERLAY, 0, STATIC
        ARGFRAME DOVERLAY, 0, STATIC
        REQUIRE ?V0
        REQUIRE ?V1
        REQUIRE ?V2
        REQUIRE ?V3
        MOV       A,#-0xc
        LCALL     ?BANKED_ENTER_XDATA
          CFI DPH0 load(1, XDATA, add(CFA_XSP16, literal(-1)))
          CFI DPL0 load(1, XDATA, add(CFA_XSP16, literal(-2)))
          CFI ?BRET_EXT load(1, XDATA, add(CFA_XSP16, literal(-3)))
          CFI ?RET_HIGH load(1, XDATA, add(CFA_XSP16, literal(-4)))
          CFI ?RET_LOW load(1, XDATA, add(CFA_XSP16, literal(-5)))
          CFI R7 load(1, XDATA, add(CFA_XSP16, literal(-6)))
          CFI V3 load(1, XDATA, add(CFA_XSP16, literal(-7)))
          CFI V2 load(1, XDATA, add(CFA_XSP16, literal(-8)))
          CFI V1 load(1, XDATA, add(CFA_XSP16, literal(-9)))
          CFI V0 load(1, XDATA, add(CFA_XSP16, literal(-10)))
          CFI VB load(1, XDATA, add(CFA_XSP16, literal(-11)))
          CFI R6 load(1, XDATA, add(CFA_XSP16, literal(-12)))
          CFI CFA_SP SP+0
          CFI CFA_XSP16 add(XSP16, 12)
        ; Saved register size: 12
        ; Auto size: 39
        MOV       A,#-0x27
        LCALL     ?ALLOC_XSTACK8
          CFI CFA_XSP16 add(XSP16, 51)
        MOV       A,R2
        MOV       R6,A
        MOV       A,R3
        MOV       R7,A
//  756   APSME_TransportKeyReq_t req;
//  757   uint8                   initExtAddr[Z_EXTADDR_LEN];
//  758   uint16                  partNwkAddr;
//  759   uint8                   key[SEC_KEY_LEN];
//  760 
//  761 
//  762   // validate initiator and partner
//  763   if ( ( APSME_LookupNwkAddr( ind->partExtAddr, &partNwkAddr ) == TRUE ) &&
//  764        ( APSME_LookupExtAddr( ind->srcAddr, initExtAddr ) == TRUE      )   )
        MOV       A,R2
        ADD       A,#0x5
        MOV       ?V0,A
        CLR       A
        ADDC      A,R7
        MOV       ?V1,A
        ; Setup parameters for call to function APSME_LookupNwkAddr
        MOV       R4,?XSP + 0
        MOV       R5,?XSP + 1
        MOV       R2,?V0
        MOV       R3,A
        LCALL     `??APSME_LookupNwkAddr::?relay`; Banked call to: APSME_LookupNwkAddr
        MOV       A,R1
        XRL       A,#0x1
        JZ        $+5
        LJMP      ??ZDSecMgrAppKeyReq_0 & 0xFFFF
        MOV       A,R6
        ADD       A,#0x2
        CLR       A
        ADDC      A,R7
        MOV       R1,A
        INC       R6
        INC       R6
        MOV       R7,A
        ; Setup parameters for call to function APSME_LookupExtAddr
        MOV       A,#0xf
        LCALL     ?XSTACK_DISP102_8
        MOV       DPL,R6
        MOV       DPH,R1
        LCALL     ??Subroutine57_0 & 0xFFFF
??CrossCallReturnLabel_65:
        LCALL     `??APSME_LookupExtAddr::?relay`; Banked call to: APSME_LookupExtAddr
        MOV       A,R1
        XRL       A,#0x1
        JZ        $+5
        LJMP      ??ZDSecMgrAppKeyReq_0 & 0xFFFF
//  765   {
//  766     // point the key to some memory
//  767     req.key = key;
        MOV       A,#0x17
        LCALL     ?XSTACK_DISP100_8
        MOV       A,#0x6
        LCALL     ?XSTACK_DISP0_8
        LCALL     ??Subroutine61_0 & 0xFFFF
//  768 
//  769     // get an APP key - option APP (MASTER or LINK) key
//  770     if ( ZDSecMgrAppKeyGet( ind->srcAddr,
//  771                             initExtAddr,
//  772                             partNwkAddr,
//  773                             ind->partExtAddr,
//  774                             &req.key,
//  775                             &req.keyType ) == ZSuccess )
??CrossCallReturnLabel_83:
        ; Setup parameters for call to function ZDSecMgrAppKeyGet
        MOV       A,#0x4
        LCALL     ?XSTACK_DISP0_8
        MOV       ?V2,DPL
        MOV       ?V3,DPH
        MOV       R0,#?V2
        LCALL     ?PUSH_XSTACK_I_TWO
          CFI CFA_XSP16 add(XSP16, 53)
        MOV       A,#0x8
        LCALL     ?XSTACK_DISP0_8
        MOV       ?V2,DPL
        MOV       ?V3,DPH
        MOV       R0,#?V2
        LCALL     ?PUSH_XSTACK_I_TWO
          CFI CFA_XSP16 add(XSP16, 55)
        MOV       R0,#?V0
        LCALL     ?PUSH_XSTACK_I_TWO
          CFI CFA_XSP16 add(XSP16, 57)
        MOV       A,#0x6
        LCALL     ?XSTACK_DISP0_8
        LCALL     ?PUSH_XSTACK8_X_TWO
          CFI CFA_XSP16 add(XSP16, 59)
        MOV       A,#0x17
        LCALL     ?XSTACK_DISP102_8
        MOV       DPL,R6
        MOV       DPH,R7
        LCALL     ??Subroutine57_0 & 0xFFFF
??CrossCallReturnLabel_66:
        LCALL     `??ZDSecMgrAppKeyGet::?relay`; Banked call to: ZDSecMgrAppKeyGet
        MOV       A,#0x8
        LCALL     ?DEALLOC_XSTACK8
          CFI CFA_XSP16 add(XSP16, 51)
        MOV       A,R1
        JNZ       ??ZDSecMgrAppKeyReq_0
//  776     {
//  777       // always secure
//  778       req.nwkSecure = TRUE;
        MOV       A,#0xc
        LCALL     ?XSTACK_DISP0_8
        MOV       A,#0x1
        MOVX      @DPTR,A
//  779       req.apsSecure = TRUE;
        MOV       A,#0xb
        LCALL     ?XSTACK_DISP0_8
        MOV       A,#0x1
        MOVX      @DPTR,A
//  780       req.tunnel    = NULL;
        MOV       A,#0xd
        LCALL     ?XSTACK_DISP0_8
        CLR       A
        MOVX      @DPTR,A
        INC       DPTR
        MOVX      @DPTR,A
//  781 
//  782       // send key to initiator device
//  783       req.dstAddr   = ind->srcAddr;
        LCALL     ?Subroutine28 & 0xFFFF
??CrossCallReturnLabel_81:
        LCALL     ?XSTACK_DISP0_8
        LCALL     ??Subroutine61_0 & 0xFFFF
//  784       req.extAddr   = ind->partExtAddr;
??CrossCallReturnLabel_84:
        MOV       A,#0x8
        LCALL     ?XSTACK_DISP0_8
        MOV       A,?V0
        MOVX      @DPTR,A
        INC       DPTR
        MOV       A,?V1
        MOVX      @DPTR,A
//  785       req.initiator = TRUE;
        MOV       A,#0xa
        LCALL     ?XSTACK_DISP0_8
        MOV       A,#0x1
        MOVX      @DPTR,A
//  786       APSME_TransportKeyReq( &req );
        ; Setup parameters for call to function APSME_TransportKeyReq
        INC       A
        LCALL     ?XSTACK_DISP101_8
        LCALL     `??APSME_TransportKeyReq::?relay`; Banked call to: APSME_TransportKeyReq
//  787 
//  788       // send key to partner device
//  789       req.dstAddr   = partNwkAddr;
        MOV       DPL,?XSP + 0
        MOV       DPH,?XSP + 1
        LCALL     ??Subroutine58_0 & 0xFFFF
??CrossCallReturnLabel_79:
        LCALL     ?XSTACK_DISP0_8
        LCALL     ??Subroutine61_0 & 0xFFFF
//  790       req.extAddr   = initExtAddr;
??CrossCallReturnLabel_85:
        MOV       A,#0xf
        LCALL     ?XSTACK_DISP100_8
        MOV       A,#0x8
        LCALL     ?XSTACK_DISP0_8
        LCALL     ??Subroutine61_0 & 0xFFFF
//  791       req.initiator = FALSE;
??CrossCallReturnLabel_86:
        MOV       A,#0xa
        LCALL     ?XSTACK_DISP0_8
        CLR       A
        MOVX      @DPTR,A
//  792 
//  793       APSME_TransportKeyReq( &req );
        ; Setup parameters for call to function APSME_TransportKeyReq
        MOV       A,#0x2
        LCALL     ?XSTACK_DISP101_8
        LCALL     `??APSME_TransportKeyReq::?relay`; Banked call to: APSME_TransportKeyReq
//  794 
//  795       // clear copy of key in RAM
//  796       osal_memset( key, 0x00, SEC_KEY_LEN);
        ; Setup parameters for call to function osal_memset
        MOV       R4,#0x10
        MOV       R5,#0x0
        MOV       R1,#0x0
        MOV       A,#0x17
        LCALL     ?XSTACK_DISP101_8
        LCALL     `??osal_memset::?relay`; Banked call to: osal_memset
//  797 
//  798     }
//  799   }
//  800 }
??ZDSecMgrAppKeyReq_0:
        MOV       A,#0x27
        LJMP      ?Subroutine3 & 0xFFFF
          CFI EndBlock cfiBlock80
//  801 
//  802 /******************************************************************************
//  803  * @fn          ZDSecMgrSendNwkKey
//  804  *
//  805  * @brief       Send NWK key to device joining network.
//  806  *
//  807  * @param       device - [in] ZDSecMgrDevice_t, device info
//  808  *
//  809  * @return      ZStatus_t
//  810  */

        RSEG BANKED_CODE:HUGECODE:NOROOT(0)
//  811 ZStatus_t ZDSecMgrSendNwkKey( ZDSecMgrDevice_t* device )
ZDSecMgrSendNwkKey:
          CFI Block cfiBlock81 Using cfiCommon0
          CFI Function ZDSecMgrSendNwkKey
        CODE
//  812 {
        FUNCALL ZDSecMgrSendNwkKey, NLME_ReadNwkKeyInfo
        LOCFRAME ISTACK, 0, STACK
        LOCFRAME PSTACK, 0, STACK
        LOCFRAME XSTACK, 44, STACK
        LOCFRAME IOVERLAY, 0, STATIC
        LOCFRAME DOVERLAY, 0, STATIC
        ARGFRAME ISTACK, 0, STACK
        ARGFRAME PSTACK, 0, STACK
        ARGFRAME XSTACK, 44, STACK
        ARGFRAME IOVERLAY, 0, STATIC
        ARGFRAME DOVERLAY, 0, STATIC
        FUNCALL ZDSecMgrSendNwkKey, osal_memset
        LOCFRAME ISTACK, 0, STACK
        LOCFRAME PSTACK, 0, STACK
        LOCFRAME XSTACK, 40, STACK
        LOCFRAME IOVERLAY, 0, STATIC
        LOCFRAME DOVERLAY, 0, STATIC
        ARGFRAME ISTACK, 0, STACK
        ARGFRAME PSTACK, 0, STACK
        ARGFRAME XSTACK, 40, STACK
        ARGFRAME IOVERLAY, 0, STATIC
        ARGFRAME DOVERLAY, 0, STATIC
        FUNCALL ZDSecMgrSendNwkKey, NLME_GetShortAddr
        LOCFRAME ISTACK, 0, STACK
        LOCFRAME PSTACK, 0, STACK
        LOCFRAME XSTACK, 40, STACK
        LOCFRAME IOVERLAY, 0, STATIC
        LOCFRAME DOVERLAY, 0, STATIC
        ARGFRAME ISTACK, 0, STACK
        ARGFRAME PSTACK, 0, STACK
        ARGFRAME XSTACK, 40, STACK
        ARGFRAME IOVERLAY, 0, STATIC
        ARGFRAME DOVERLAY, 0, STATIC
        FUNCALL ZDSecMgrSendNwkKey, NLME_GetShortAddr
        LOCFRAME ISTACK, 0, STACK
        LOCFRAME PSTACK, 0, STACK
        LOCFRAME XSTACK, 40, STACK
        LOCFRAME IOVERLAY, 0, STATIC
        LOCFRAME DOVERLAY, 0, STATIC
        ARGFRAME ISTACK, 0, STACK
        ARGFRAME PSTACK, 0, STACK
        ARGFRAME XSTACK, 40, STACK
        ARGFRAME IOVERLAY, 0, STATIC
        ARGFRAME DOVERLAY, 0, STATIC
        FUNCALL ZDSecMgrSendNwkKey, APSME_TransportKeyReq
        LOCFRAME ISTACK, 0, STACK
        LOCFRAME PSTACK, 0, STACK
        LOCFRAME XSTACK, 40, STACK
        LOCFRAME IOVERLAY, 0, STATIC
        LOCFRAME DOVERLAY, 0, STATIC
        ARGFRAME ISTACK, 0, STACK
        ARGFRAME PSTACK, 0, STACK
        ARGFRAME XSTACK, 40, STACK
        ARGFRAME IOVERLAY, 0, STATIC
        ARGFRAME DOVERLAY, 0, STATIC
        FUNCALL ZDSecMgrSendNwkKey, osal_memset
        LOCFRAME ISTACK, 0, STACK
        LOCFRAME PSTACK, 0, STACK
        LOCFRAME XSTACK, 40, STACK
        LOCFRAME IOVERLAY, 0, STATIC
        LOCFRAME DOVERLAY, 0, STATIC
        ARGFRAME ISTACK, 0, STACK
        ARGFRAME PSTACK, 0, STACK
        ARGFRAME XSTACK, 40, STACK
        ARGFRAME IOVERLAY, 0, STATIC
        ARGFRAME DOVERLAY, 0, STATIC
        REQUIRE ?V0
        REQUIRE ?V1
        MOV       A,#-0xa
        LCALL     ?BANKED_ENTER_XDATA
          CFI DPH0 load(1, XDATA, add(CFA_XSP16, literal(-1)))
          CFI DPL0 load(1, XDATA, add(CFA_XSP16, literal(-2)))
          CFI ?BRET_EXT load(1, XDATA, add(CFA_XSP16, literal(-3)))
          CFI ?RET_HIGH load(1, XDATA, add(CFA_XSP16, literal(-4)))
          CFI ?RET_LOW load(1, XDATA, add(CFA_XSP16, literal(-5)))
          CFI R7 load(1, XDATA, add(CFA_XSP16, literal(-6)))
          CFI V1 load(1, XDATA, add(CFA_XSP16, literal(-7)))
          CFI V0 load(1, XDATA, add(CFA_XSP16, literal(-8)))
          CFI VB load(1, XDATA, add(CFA_XSP16, literal(-9)))
          CFI R6 load(1, XDATA, add(CFA_XSP16, literal(-10)))
          CFI CFA_SP SP+0
          CFI CFA_XSP16 add(XSP16, 10)
        ; Saved register size: 10
        ; Auto size: 30
        MOV       A,#-0x1e
        LCALL     ?ALLOC_XSTACK8
          CFI CFA_XSP16 add(XSP16, 40)
        MOV       A,R2
        MOV       R6,A
        MOV       A,R3
        MOV       R7,A
//  813   ZStatus_t status;
//  814   APSME_TransportKeyReq_t req;
//  815   APSDE_FrameTunnel_t tunnel;
//  816   nwkKeyDesc tmpKey;
//  817 
//  818   req.dstAddr   = device->nwkAddr;
        MOV       DPL,R2
        MOV       DPH,A
        LCALL     ??Subroutine77_0 & 0xFFFF
??CrossCallReturnLabel_158:
        MOV       DPL,?XSP + 0
        MOV       DPH,?XSP + 1
        MOV       A,R0
        MOVX      @DPTR,A
        INC       DPTR
        MOV       A,R1
        LCALL     ?Subroutine19 & 0xFFFF
//  819   req.extAddr   = device->extAddr;
??CrossCallReturnLabel_14:
        LCALL     ?Subroutine30 & 0xFFFF
??CrossCallReturnLabel_162:
        MOV       A,#0x6
        LCALL     ?XSTACK_DISP0_8
        LCALL     ?Subroutine18 & 0xFFFF
//  820 
//  821   req.keyType   = KEY_TYPE_NWK;
??CrossCallReturnLabel_11:
        LCALL     ?XSTACK_DISP0_8
        MOV       A,#0x1
        MOVX      @DPTR,A
//  822 
//  823   // get the Active Key into a local variable
//  824   if ( NLME_ReadNwkKeyInfo( 0, sizeof(tmpKey), &tmpKey,
//  825                            ZCD_NV_NWK_ACTIVE_KEY_INFO ) != SUCCESS )
        ; Setup parameters for call to function NLME_ReadNwkKeyInfo
        MOV       ?V0,#0x3a
        MOV       ?V1,#0x0
        MOV       R0,#?V0
        LCALL     ?PUSH_XSTACK_I_TWO
          CFI CFA_XSP16 add(XSP16, 42)
        MOV       A,#0xf
        LCALL     ?XSTACK_DISP100_8
        MOV       ?V0,R0
        MOV       ?V1,R1
        MOV       R0,#?V0
        LCALL     ?PUSH_XSTACK_I_TWO
          CFI CFA_XSP16 add(XSP16, 44)
        MOV       R4,#0x11
        MOV       R5,#0x0
        MOV       R2,#0x0
        MOV       R3,#0x0
        LCALL     `??NLME_ReadNwkKeyInfo::?relay`; Banked call to: NLME_ReadNwkKeyInfo
        MOV       A,#0x4
        LCALL     ?DEALLOC_XSTACK8
          CFI CFA_XSP16 add(XSP16, 40)
        MOV       A,R1
        JZ        ??ZDSecMgrSendNwkKey_0
//  826   {
//  827     // set key data to all 0s if NV read fails
//  828     osal_memset(&tmpKey, 0x00, sizeof(tmpKey));
        ; Setup parameters for call to function osal_memset
        MOV       R4,#0x11
        MOV       R5,#0x0
        MOV       R1,#0x0
        MOV       A,#0xd
        LCALL     ?XSTACK_DISP101_8
        LCALL     `??osal_memset::?relay`; Banked call to: osal_memset
//  829   }
//  830 
//  831   if ( ZG_CHECK_SECURITY_MODE == ZG_SECURITY_SE_STANDARD )
//  832   {
//  833     // set values
//  834     req.keySeqNum = tmpKey.keySeqNum;
//  835     req.key       = tmpKey.key;
//  836 
//  837     //devtag.pro.security.todo - make sure that if there is no link key the NWK
//  838     //key isn't used to secure the frame at the APS layer -- since the receiving
//  839     //device may not have a NWK key yet
//  840     req.apsSecure = TRUE;
//  841 
//  842     // check if using secure hop to parent
//  843     if ( device->parentAddr == NLME_GetShortAddr() )
//  844     {
//  845       req.nwkSecure = FALSE;
//  846       req.tunnel    = NULL;
//  847     }
//  848     else
//  849     {
//  850       req.nwkSecure   = TRUE;
//  851       req.tunnel      = &tunnel;
//  852       req.tunnel->tna = device->parentAddr;
//  853       req.tunnel->dea = device->extAddr;
//  854     }
//  855   }
//  856   else
//  857   {
//  858     // default values
//  859     //devtag.0604.verify
//  860     req.nwkSecure = TRUE;
??ZDSecMgrSendNwkKey_0:
        MOV       A,#0xa
        LCALL     ?XSTACK_DISP0_8
        MOV       A,#0x1
        MOVX      @DPTR,A
//  861     req.apsSecure = FALSE;
        MOV       A,#0x9
        LCALL     ?XSTACK_DISP0_8
        CLR       A
        MOVX      @DPTR,A
//  862     req.tunnel    = NULL;
        MOV       A,#0xb
        LCALL     ?XSTACK_DISP0_8
        CLR       A
        MOVX      @DPTR,A
        INC       DPTR
        MOVX      @DPTR,A
//  863 
//  864     if ( device->parentAddr != NLME_GetShortAddr() )
        ; Setup parameters for call to function NLME_GetShortAddr
        LCALL     `??NLME_GetShortAddr::?relay`; Banked call to: NLME_GetShortAddr
        MOV       A,R6
        ADD       A,#0x4
        LCALL     ?Subroutine44 & 0xFFFF
??CrossCallReturnLabel_47:
        LCALL     ??Subroutine77_0 & 0xFFFF
??CrossCallReturnLabel_159:
        MOV       A,R2
        XRL       A,R0
        JNZ       ??ZDSecMgrSendNwkKey_1
        MOV       A,R3
        XRL       A,R1
??ZDSecMgrSendNwkKey_1:
        JZ        ??CrossCallReturnLabel_94
//  865     {
//  866       req.dstAddr = device->parentAddr;
        LCALL     ??Subroutine60_0 & 0xFFFF
//  867     }
//  868 
//  869     // send the real key
//  870     if ( zgPreConfigKeys == FALSE )
??CrossCallReturnLabel_94:
        MOV       DPTR,#zgPreConfigKeys
        MOVX      A,@DPTR
        JNZ       ??ZDSecMgrSendNwkKey_2
//  871     {
//  872       req.keySeqNum = tmpKey.keySeqNum;
        MOV       A,#0xd
        LCALL     ?XSTACK_DISP0_8
        MOVX      A,@DPTR
        PUSH      A
          CFI CFA_SP SP+-1
        MOV       A,#0x3
        LCALL     ?XSTACK_DISP0_8
        POP       A
          CFI CFA_SP SP+0
        MOVX      @DPTR,A
//  873       req.key       = tmpKey.key;
        MOV       A,#0xe
        LCALL     ?XSTACK_DISP0_8
        MOV       R0,DPL
        MOV       R1,DPH
        MOV       A,#0x4
        LCALL     ?XSTACK_DISP0_8
        LCALL     ?Subroutine23 & 0xFFFF
//  874 
//  875       // check if using secure hop to to parent
//  876       if ( device->parentAddr == NLME_GetShortAddr() )
??CrossCallReturnLabel_19:
        MOV       ?V0,R2
        MOV       ?V1,R3
        MOV       R0,?V0
        MOV       R1,?V1
        MOV       DPL,R6
        MOV       DPH,R7
        MOVX      A,@DPTR
        XRL       A,R0
        JNZ       ??ZDSecMgrSendNwkKey_3
        INC       DPTR
        MOVX      A,@DPTR
        XRL       A,R1
??ZDSecMgrSendNwkKey_3:
        JNZ       ??ZDSecMgrSendNwkKey_4
//  877       {
//  878         req.nwkSecure = FALSE;
        MOV       A,#0xa
        SJMP      ??ZDSecMgrSendNwkKey_5
//  879       }
//  880     }
//  881     else
//  882     {
//  883       // this is to send the all zero key when the NWK key has been preconfigured
//  884       req.key       = NULL;
??ZDSecMgrSendNwkKey_2:
        MOV       A,#0x4
        LCALL     ?XSTACK_DISP0_8
        CLR       A
        MOVX      @DPTR,A
        INC       DPTR
        MOVX      @DPTR,A
//  885       req.keySeqNum = 0;
        MOV       A,#0x3
??ZDSecMgrSendNwkKey_5:
        LCALL     ?XSTACK_DISP0_8
        CLR       A
        MOVX      @DPTR,A
//  886     }
//  887   }
//  888 
//  889   status = APSME_TransportKeyReq( &req );
??ZDSecMgrSendNwkKey_4:
        ; Setup parameters for call to function APSME_TransportKeyReq
        MOV       R2,?XSP + 0
        MOV       R3,?XSP + 1
        LCALL     `??APSME_TransportKeyReq::?relay`; Banked call to: APSME_TransportKeyReq
        MOV       A,R1
        MOV       R6,A
//  890 
//  891   // clear copy of key in RAM before return
//  892   osal_memset( &tmpKey, 0x00, sizeof(nwkKeyDesc) );
        ; Setup parameters for call to function osal_memset
        MOV       R4,#0x11
        MOV       R5,#0x0
        MOV       R1,#0x0
        MOV       A,#0xd
        LCALL     ?XSTACK_DISP101_8
        LCALL     `??osal_memset::?relay`; Banked call to: osal_memset
//  893 
//  894   return status;
        MOV       A,R6
        MOV       R1,A
        MOV       A,#0x1e
        LJMP      ??Subroutine63_0 & 0xFFFF
//  895 }
          CFI EndBlock cfiBlock81

        RSEG BANKED_CODE:HUGECODE:NOROOT(0)
?Subroutine19:
          CFI Block cfiCond82 Using cfiCommon0
          CFI Function ZDSecMgrEntryInit
          CFI Conditional ??CrossCallReturnLabel_13
          CFI DPL0 Frame(CFA_SP, 4)
          CFI DPH0 Frame(CFA_SP, 5)
          CFI CFA_SP SP+-7
          CFI Block cfiCond83 Using cfiCommon0
          CFI (cfiCond83) Function ZDSecMgrSendNwkKey
          CFI (cfiCond83) Conditional ??CrossCallReturnLabel_14
          CFI (cfiCond83) R6 load(1, XDATA, add(CFA_XSP16, literal(-10)))
          CFI (cfiCond83) VB load(1, XDATA, add(CFA_XSP16, literal(-9)))
          CFI (cfiCond83) V0 load(1, XDATA, add(CFA_XSP16, literal(-8)))
          CFI (cfiCond83) V1 load(1, XDATA, add(CFA_XSP16, literal(-7)))
          CFI (cfiCond83) R7 load(1, XDATA, add(CFA_XSP16, literal(-6)))
          CFI (cfiCond83) ?RET_LOW load(1, XDATA, add(CFA_XSP16, literal(-5)))
          CFI (cfiCond83) ?RET_HIGH load(1, XDATA, add(CFA_XSP16, literal(-4)))
          CFI (cfiCond83) ?BRET_EXT load(1, XDATA, add(CFA_XSP16, literal(-3)))
          CFI (cfiCond83) DPL0 load(1, XDATA, add(CFA_XSP16, literal(-2)))
          CFI (cfiCond83) DPH0 load(1, XDATA, add(CFA_XSP16, literal(-1)))
          CFI (cfiCond83) CFA_SP SP+-2
          CFI (cfiCond83) CFA_XSP16 add(XSP16, 40)
          CFI Block cfiCond84 Using cfiCommon0
          CFI (cfiCond84) Function ZDSecMgrDeviceJoinFwd
          CFI (cfiCond84) Conditional ??CrossCallReturnLabel_15
          CFI (cfiCond84) R6 load(1, XDATA, add(CFA_XSP16, literal(-10)))
          CFI (cfiCond84) VB load(1, XDATA, add(CFA_XSP16, literal(-9)))
          CFI (cfiCond84) V0 load(1, XDATA, add(CFA_XSP16, literal(-8)))
          CFI (cfiCond84) V1 load(1, XDATA, add(CFA_XSP16, literal(-7)))
          CFI (cfiCond84) R7 load(1, XDATA, add(CFA_XSP16, literal(-6)))
          CFI (cfiCond84) ?RET_LOW load(1, XDATA, add(CFA_XSP16, literal(-5)))
          CFI (cfiCond84) ?RET_HIGH load(1, XDATA, add(CFA_XSP16, literal(-4)))
          CFI (cfiCond84) ?BRET_EXT load(1, XDATA, add(CFA_XSP16, literal(-3)))
          CFI (cfiCond84) DPL0 load(1, XDATA, add(CFA_XSP16, literal(-2)))
          CFI (cfiCond84) DPH0 load(1, XDATA, add(CFA_XSP16, literal(-1)))
          CFI (cfiCond84) CFA_SP SP+-2
          CFI (cfiCond84) CFA_XSP16 add(XSP16, 18)
          CFI Block cfiCond85 Using cfiCommon0
          CFI (cfiCond85) Function ZDSecMgrDeviceJoinFwd
          CFI (cfiCond85) Conditional ??CrossCallReturnLabel_16
          CFI (cfiCond85) R6 load(1, XDATA, add(CFA_XSP16, literal(-10)))
          CFI (cfiCond85) VB load(1, XDATA, add(CFA_XSP16, literal(-9)))
          CFI (cfiCond85) V0 load(1, XDATA, add(CFA_XSP16, literal(-8)))
          CFI (cfiCond85) V1 load(1, XDATA, add(CFA_XSP16, literal(-7)))
          CFI (cfiCond85) R7 load(1, XDATA, add(CFA_XSP16, literal(-6)))
          CFI (cfiCond85) ?RET_LOW load(1, XDATA, add(CFA_XSP16, literal(-5)))
          CFI (cfiCond85) ?RET_HIGH load(1, XDATA, add(CFA_XSP16, literal(-4)))
          CFI (cfiCond85) ?BRET_EXT load(1, XDATA, add(CFA_XSP16, literal(-3)))
          CFI (cfiCond85) DPL0 load(1, XDATA, add(CFA_XSP16, literal(-2)))
          CFI (cfiCond85) DPH0 load(1, XDATA, add(CFA_XSP16, literal(-1)))
          CFI (cfiCond85) CFA_SP SP+-2
          CFI (cfiCond85) CFA_XSP16 add(XSP16, 18)
          CFI Block cfiPicker86 Using cfiCommon1
          CFI (cfiPicker86) NoFunction
          CFI (cfiPicker86) Picker
        MOVX      @DPTR,A
        ; Setup parameters for call to function AssocGetWithShort
        MOV       DPL,R2
        MOV       DPH,R3
        RET
          CFI EndBlock cfiCond82
          CFI EndBlock cfiCond83
          CFI EndBlock cfiCond84
          CFI EndBlock cfiCond85
          CFI EndBlock cfiPicker86

        RSEG BANKED_CODE:HUGECODE:NOROOT(0)
?Subroutine18:
          CFI Block cfiCond87 Using cfiCommon0
          CFI Function ZDSecMgrAddrClear
          CFI Conditional ??CrossCallReturnLabel_10
          CFI R6 load(1, XDATA, add(CFA_XSP16, literal(-9)))
          CFI VB load(1, XDATA, add(CFA_XSP16, literal(-8)))
          CFI V0 load(1, XDATA, add(CFA_XSP16, literal(-7)))
          CFI R7 load(1, XDATA, add(CFA_XSP16, literal(-6)))
          CFI ?RET_LOW load(1, XDATA, add(CFA_XSP16, literal(-5)))
          CFI ?RET_HIGH load(1, XDATA, add(CFA_XSP16, literal(-4)))
          CFI ?BRET_EXT load(1, XDATA, add(CFA_XSP16, literal(-3)))
          CFI DPL0 load(1, XDATA, add(CFA_XSP16, literal(-2)))
          CFI DPH0 load(1, XDATA, add(CFA_XSP16, literal(-1)))
          CFI CFA_SP SP+-2
          CFI CFA_XSP16 add(XSP16, 24)
          CFI Block cfiCond88 Using cfiCommon0
          CFI (cfiCond88) Function ZDSecMgrSendNwkKey
          CFI (cfiCond88) Conditional ??CrossCallReturnLabel_11
          CFI (cfiCond88) R6 load(1, XDATA, add(CFA_XSP16, literal(-10)))
          CFI (cfiCond88) VB load(1, XDATA, add(CFA_XSP16, literal(-9)))
          CFI (cfiCond88) V0 load(1, XDATA, add(CFA_XSP16, literal(-8)))
          CFI (cfiCond88) V1 load(1, XDATA, add(CFA_XSP16, literal(-7)))
          CFI (cfiCond88) R7 load(1, XDATA, add(CFA_XSP16, literal(-6)))
          CFI (cfiCond88) ?RET_LOW load(1, XDATA, add(CFA_XSP16, literal(-5)))
          CFI (cfiCond88) ?RET_HIGH load(1, XDATA, add(CFA_XSP16, literal(-4)))
          CFI (cfiCond88) ?BRET_EXT load(1, XDATA, add(CFA_XSP16, literal(-3)))
          CFI (cfiCond88) DPL0 load(1, XDATA, add(CFA_XSP16, literal(-2)))
          CFI (cfiCond88) DPH0 load(1, XDATA, add(CFA_XSP16, literal(-1)))
          CFI (cfiCond88) CFA_SP SP+-2
          CFI (cfiCond88) CFA_XSP16 add(XSP16, 40)
          CFI Block cfiCond89 Using cfiCommon0
          CFI (cfiCond89) Function ZDSecMgrDeviceJoin
          CFI (cfiCond89) Conditional ??CrossCallReturnLabel_12
          CFI (cfiCond89) R6 load(1, XDATA, add(CFA_XSP16, literal(-16)))
          CFI (cfiCond89) VB load(1, XDATA, add(CFA_XSP16, literal(-15)))
          CFI (cfiCond89) V0 load(1, XDATA, add(CFA_XSP16, literal(-14)))
          CFI (cfiCond89) V1 load(1, XDATA, add(CFA_XSP16, literal(-13)))
          CFI (cfiCond89) V2 load(1, XDATA, add(CFA_XSP16, literal(-12)))
          CFI (cfiCond89) V3 load(1, XDATA, add(CFA_XSP16, literal(-11)))
          CFI (cfiCond89) V4 load(1, XDATA, add(CFA_XSP16, literal(-10)))
          CFI (cfiCond89) V5 load(1, XDATA, add(CFA_XSP16, literal(-9)))
          CFI (cfiCond89) V6 load(1, XDATA, add(CFA_XSP16, literal(-8)))
          CFI (cfiCond89) V7 load(1, XDATA, add(CFA_XSP16, literal(-7)))
          CFI (cfiCond89) R7 load(1, XDATA, add(CFA_XSP16, literal(-6)))
          CFI (cfiCond89) ?RET_LOW load(1, XDATA, add(CFA_XSP16, literal(-5)))
          CFI (cfiCond89) ?RET_HIGH load(1, XDATA, add(CFA_XSP16, literal(-4)))
          CFI (cfiCond89) ?BRET_EXT load(1, XDATA, add(CFA_XSP16, literal(-3)))
          CFI (cfiCond89) DPL0 load(1, XDATA, add(CFA_XSP16, literal(-2)))
          CFI (cfiCond89) DPH0 load(1, XDATA, add(CFA_XSP16, literal(-1)))
          CFI (cfiCond89) CFA_SP SP+-2
          CFI (cfiCond89) CFA_XSP16 add(XSP16, 30)
          CFI Block cfiPicker90 Using cfiCommon1
          CFI (cfiPicker90) NoFunction
          CFI (cfiPicker90) Picker
        LCALL     ?Subroutine48 & 0xFFFF
??CrossCallReturnLabel_99:
        ; Setup parameters for call to function AddrMgrEntryRelease
        ; Setup parameters for indirect call
        MOV       A,#0x2
        RET
          CFI EndBlock cfiCond87
          CFI EndBlock cfiCond88
          CFI EndBlock cfiCond89
          CFI EndBlock cfiPicker90
//  896 
//  897 /******************************************************************************
//  898  * @fn          ZDSecMgrDeviceRemoveByExtAddr
//  899  *
//  900  * @brief       Remove device entry by its ext address.
//  901  *
//  902  * @param       pAddr - pointer to the extended address
//  903  *
//  904  * @return      ZStatus_t
//  905  */

        RSEG BANKED_CODE:HUGECODE:NOROOT(0)
//  906 ZStatus_t ZDSecMgrDeviceRemoveByExtAddr( uint8 *pAddr )
ZDSecMgrDeviceRemoveByExtAddr:
          CFI Block cfiBlock91 Using cfiCommon0
          CFI Function ZDSecMgrDeviceRemoveByExtAddr
        CODE
//  907 {
        FUNCALL ZDSecMgrDeviceRemoveByExtAddr, ZDSecMgrEntryLookupExt
        LOCFRAME ISTACK, 0, STACK
        LOCFRAME PSTACK, 0, STACK
        LOCFRAME XSTACK, 11, STACK
        LOCFRAME IOVERLAY, 0, STATIC
        LOCFRAME DOVERLAY, 0, STATIC
        ARGFRAME ISTACK, 0, STACK
        ARGFRAME PSTACK, 0, STACK
        ARGFRAME XSTACK, 11, STACK
        ARGFRAME IOVERLAY, 0, STATIC
        ARGFRAME DOVERLAY, 0, STATIC
        FUNCALL ZDSecMgrDeviceRemoveByExtAddr, ZDSecMgrEntryFree
        LOCFRAME ISTACK, 0, STACK
        LOCFRAME PSTACK, 0, STACK
        LOCFRAME XSTACK, 11, STACK
        LOCFRAME IOVERLAY, 0, STATIC
        LOCFRAME DOVERLAY, 0, STATIC
        ARGFRAME ISTACK, 0, STACK
        ARGFRAME PSTACK, 0, STACK
        ARGFRAME XSTACK, 11, STACK
        ARGFRAME IOVERLAY, 0, STATIC
        ARGFRAME DOVERLAY, 0, STATIC
        MOV       A,#-0x9
        LCALL     ?BANKED_ENTER_XDATA
          CFI DPH0 load(1, XDATA, add(CFA_XSP16, literal(-1)))
          CFI DPL0 load(1, XDATA, add(CFA_XSP16, literal(-2)))
          CFI ?BRET_EXT load(1, XDATA, add(CFA_XSP16, literal(-3)))
          CFI ?RET_HIGH load(1, XDATA, add(CFA_XSP16, literal(-4)))
          CFI ?RET_LOW load(1, XDATA, add(CFA_XSP16, literal(-5)))
          CFI R7 load(1, XDATA, add(CFA_XSP16, literal(-6)))
          CFI V0 load(1, XDATA, add(CFA_XSP16, literal(-7)))
          CFI VB load(1, XDATA, add(CFA_XSP16, literal(-8)))
          CFI R6 load(1, XDATA, add(CFA_XSP16, literal(-9)))
          CFI CFA_SP SP+0
          CFI CFA_XSP16 add(XSP16, 9)
        ; Saved register size: 9
        ; Auto size: 2
        MOV       A,#-0x2
        LCALL     ?ALLOC_XSTACK8
          CFI CFA_XSP16 add(XSP16, 11)
//  908   ZDSecMgrEntry_t *pEntry;
//  909   uint8           retValue;
//  910 
//  911   retValue = (uint8)ZDSecMgrEntryLookupExt( pAddr, &pEntry );
        ; Setup parameters for call to function ZDSecMgrEntryLookupExt
        MOV       R4,?XSP + 0
        MOV       R5,?XSP + 1
        LCALL     `??ZDSecMgrEntryLookupExt::?relay`; Banked call to: ZDSecMgrEntryLookupExt
        MOV       A,R1
        MOV       R6,A
//  912 
//  913   if( retValue == ZSuccess )
        JNZ       ??ZDSecMgrDeviceRemoveByExtAddr_0
//  914   {
//  915     // remove device from entry data
//  916     ZDSecMgrEntryFree( pEntry );
        ; Setup parameters for call to function ZDSecMgrEntryFree
        MOV       DPL,?XSP + 0
        MOV       DPH,?XSP + 1
        LCALL     ??Subroutine57_0 & 0xFFFF
//  917   }
??CrossCallReturnLabel_67:
        LCALL     `??ZDSecMgrEntryFree::?relay`; Banked call to: ZDSecMgrEntryFree
//  918 
//  919   return retValue;
??ZDSecMgrDeviceRemoveByExtAddr_0:
        MOV       A,R6
        MOV       R1,A
          CFI EndBlock cfiBlock91
        REQUIRE ?Subroutine7
        ; // Fall through to label ?Subroutine7
//  920 }

        RSEG BANKED_CODE:HUGECODE:NOROOT(0)
?Subroutine7:
          CFI Block cfiBlock92 Using cfiCommon0
          CFI NoFunction
          CFI CFA_SP SP+0
          CFI CFA_XSP16 add(XSP16, 11)
          CFI VB load(1, XDATA, add(CFA_XSP16, literal(-8)))
          CFI DPL0 load(1, XDATA, add(CFA_XSP16, literal(-2)))
          CFI DPH0 load(1, XDATA, add(CFA_XSP16, literal(-1)))
          CFI R6 load(1, XDATA, add(CFA_XSP16, literal(-9)))
          CFI R7 load(1, XDATA, add(CFA_XSP16, literal(-6)))
          CFI V0 load(1, XDATA, add(CFA_XSP16, literal(-7)))
          CFI ?BRET_EXT load(1, XDATA, add(CFA_XSP16, literal(-3)))
          CFI ?RET_HIGH load(1, XDATA, add(CFA_XSP16, literal(-4)))
          CFI ?RET_LOW load(1, XDATA, add(CFA_XSP16, literal(-5)))
        MOV       A,#0x2
        LJMP      ??Subroutine66_0 & 0xFFFF
          CFI EndBlock cfiBlock92
//  921 
//  922 /******************************************************************************
//  923  * @fn          ZDSecMgrDeviceRemove
//  924  *
//  925  * @brief       Remove device from network.
//  926  *
//  927  * @param       device - [in] ZDSecMgrDevice_t, device info
//  928  *
//  929  * @return      none
//  930  */

        RSEG BANKED_CODE:HUGECODE:NOROOT(0)
//  931 void ZDSecMgrDeviceRemove( ZDSecMgrDevice_t* device )
ZDSecMgrDeviceRemove:
          CFI Block cfiBlock93 Using cfiCommon0
          CFI Function ZDSecMgrDeviceRemove
        CODE
//  932 {
        FUNCALL ZDSecMgrDeviceRemove, NLME_GetShortAddr
        LOCFRAME ISTACK, 0, STACK
        LOCFRAME PSTACK, 0, STACK
        LOCFRAME XSTACK, 20, STACK
        LOCFRAME IOVERLAY, 0, STATIC
        LOCFRAME DOVERLAY, 0, STATIC
        ARGFRAME ISTACK, 0, STACK
        ARGFRAME PSTACK, 0, STACK
        ARGFRAME XSTACK, 20, STACK
        ARGFRAME IOVERLAY, 0, STATIC
        ARGFRAME DOVERLAY, 0, STATIC
        FUNCALL ZDSecMgrDeviceRemove, AssocGetWithExt
        LOCFRAME ISTACK, 0, STACK
        LOCFRAME PSTACK, 0, STACK
        LOCFRAME XSTACK, 20, STACK
        LOCFRAME IOVERLAY, 0, STATIC
        LOCFRAME DOVERLAY, 0, STATIC
        ARGFRAME ISTACK, 0, STACK
        ARGFRAME PSTACK, 0, STACK
        ARGFRAME XSTACK, 20, STACK
        ARGFRAME IOVERLAY, 0, STATIC
        ARGFRAME DOVERLAY, 0, STATIC
        FUNCALL ZDSecMgrDeviceRemove, NLME_LeaveReq
        LOCFRAME ISTACK, 0, STACK
        LOCFRAME PSTACK, 0, STACK
        LOCFRAME XSTACK, 20, STACK
        LOCFRAME IOVERLAY, 0, STATIC
        LOCFRAME DOVERLAY, 0, STATIC
        ARGFRAME ISTACK, 0, STACK
        ARGFRAME PSTACK, 0, STACK
        ARGFRAME XSTACK, 20, STACK
        ARGFRAME IOVERLAY, 0, STATIC
        ARGFRAME DOVERLAY, 0, STATIC
        FUNCALL ZDSecMgrDeviceRemove, NLME_GetShortAddr
        LOCFRAME ISTACK, 0, STACK
        LOCFRAME PSTACK, 0, STACK
        LOCFRAME XSTACK, 20, STACK
        LOCFRAME IOVERLAY, 0, STATIC
        LOCFRAME DOVERLAY, 0, STATIC
        ARGFRAME ISTACK, 0, STACK
        ARGFRAME PSTACK, 0, STACK
        ARGFRAME XSTACK, 20, STACK
        ARGFRAME IOVERLAY, 0, STATIC
        ARGFRAME DOVERLAY, 0, STATIC
        FUNCALL ZDSecMgrDeviceRemove, NLME_LeaveReq
        LOCFRAME ISTACK, 0, STACK
        LOCFRAME PSTACK, 0, STACK
        LOCFRAME XSTACK, 20, STACK
        LOCFRAME IOVERLAY, 0, STATIC
        LOCFRAME DOVERLAY, 0, STATIC
        ARGFRAME ISTACK, 0, STACK
        ARGFRAME PSTACK, 0, STACK
        ARGFRAME XSTACK, 20, STACK
        ARGFRAME IOVERLAY, 0, STATIC
        ARGFRAME DOVERLAY, 0, STATIC
        FUNCALL ZDSecMgrDeviceRemove, APSME_RemoveDeviceReq
        LOCFRAME ISTACK, 0, STACK
        LOCFRAME PSTACK, 0, STACK
        LOCFRAME XSTACK, 20, STACK
        LOCFRAME IOVERLAY, 0, STATIC
        LOCFRAME DOVERLAY, 0, STATIC
        ARGFRAME ISTACK, 0, STACK
        ARGFRAME PSTACK, 0, STACK
        ARGFRAME XSTACK, 20, STACK
        ARGFRAME IOVERLAY, 0, STATIC
        ARGFRAME DOVERLAY, 0, STATIC
        REQUIRE ?V0
        REQUIRE ?V1
        MOV       A,#-0xa
        LCALL     ?BANKED_ENTER_XDATA
          CFI DPH0 load(1, XDATA, add(CFA_XSP16, literal(-1)))
          CFI DPL0 load(1, XDATA, add(CFA_XSP16, literal(-2)))
          CFI ?BRET_EXT load(1, XDATA, add(CFA_XSP16, literal(-3)))
          CFI ?RET_HIGH load(1, XDATA, add(CFA_XSP16, literal(-4)))
          CFI ?RET_LOW load(1, XDATA, add(CFA_XSP16, literal(-5)))
          CFI R7 load(1, XDATA, add(CFA_XSP16, literal(-6)))
          CFI V1 load(1, XDATA, add(CFA_XSP16, literal(-7)))
          CFI V0 load(1, XDATA, add(CFA_XSP16, literal(-8)))
          CFI VB load(1, XDATA, add(CFA_XSP16, literal(-9)))
          CFI R6 load(1, XDATA, add(CFA_XSP16, literal(-10)))
          CFI CFA_SP SP+0
          CFI CFA_XSP16 add(XSP16, 10)
        ; Saved register size: 10
        ; Auto size: 10
        MOV       A,#-0xa
        LCALL     ?ALLOC_XSTACK8
          CFI CFA_XSP16 add(XSP16, 20)
        MOV       A,R2
        MOV       R6,A
        MOV       A,R3
        MOV       R7,A
//  933   APSME_RemoveDeviceReq_t remDevReq;
//  934   NLME_LeaveReq_t         leaveReq;
//  935   associated_devices_t*   assoc;
//  936 
//  937   // check if parent, remove the device
//  938   if ( device->parentAddr == NLME_GetShortAddr() )
        ; Setup parameters for call to function NLME_GetShortAddr
        LCALL     `??NLME_GetShortAddr::?relay`; Banked call to: NLME_GetShortAddr
        MOV       ?V0,R2
        MOV       ?V1,R3
        MOV       DPL,R6
        MOV       DPH,R7
        INC       DPTR
        INC       DPTR
        INC       DPTR
        INC       DPTR
        LCALL     ??Subroutine57_0 & 0xFFFF
??CrossCallReturnLabel_68:
        MOV       A,R6
        ADD       A,#0x2
        MOV       R0,A
        CLR       A
        ADDC      A,R7
        MOV       R1,A
        MOV       A,?V0
        XRL       A,R2
        JNZ       ??ZDSecMgrDeviceRemove_0
        MOV       A,?V1
        XRL       A,R3
??ZDSecMgrDeviceRemove_0:
        JNZ       ??ZDSecMgrDeviceRemove_1
//  939   {
//  940     // this is the parent of the device
//  941     leaveReq.extAddr        = device->extAddr;
        MOV       DPL,R0
        MOV       DPH,R1
        LCALL     ??Subroutine57_0 & 0xFFFF
??CrossCallReturnLabel_69:
        LCALL     ?Subroutine16 & 0xFFFF
//  942     leaveReq.removeChildren = FALSE;
??CrossCallReturnLabel_119:
        LCALL     ?XSTACK_DISP0_8
        CLR       A
        MOVX      @DPTR,A
//  943     leaveReq.rejoin         = FALSE;
        MOV       A,#0x3
        LCALL     ?XSTACK_DISP0_8
        CLR       A
        MOVX      @DPTR,A
//  944 
//  945     // find child association
//  946     assoc = AssocGetWithExt( device->extAddr );
        ; Setup parameters for call to function AssocGetWithExt
        MOV       DPL,R0
        MOV       DPH,R1
        LCALL     ?Subroutine36 & 0xFFFF
??CrossCallReturnLabel_36:
        MOV       ?V1,R3
        MOV       R1,?V1
//  947 
//  948     if ( ( assoc != NULL                            ) &&
//  949          ( assoc->nodeRelation >= CHILD_RFD         ) &&
//  950          ( assoc->nodeRelation <= CHILD_FFD_RX_IDLE )    )
        MOV       A,R2
        ORL       A,R1
        JZ        ??ZDSecMgrDeviceRemove_2
        MOV       DPL,R2
        MOV       DPH,R3
        INC       DPTR
        INC       DPTR
        INC       DPTR
        INC       DPTR
        MOVX      A,@DPTR
        JZ        ??ZDSecMgrDeviceRemove_2
        CLR       C
        SUBB      A,#0x5
        JNC       ??ZDSecMgrDeviceRemove_2
//  951     {
//  952       // check if associated device is authenticated
//  953       if ( assoc->devStatus & DEV_SEC_AUTH_STATUS )
        MOV       DPL,R2
        MOV       DPH,R3
        INC       DPTR
        INC       DPTR
        INC       DPTR
        INC       DPTR
        INC       DPTR
        MOVX      A,@DPTR
        MOV       C,0xE0 /* A   */.3
        MOV       A,#0x4
        JC        ??ZDSecMgrDeviceRemove_3
//  954       {
//  955         leaveReq.silent = FALSE;
//  956       }
//  957       else
//  958       {
//  959         leaveReq.silent = TRUE;
        LCALL     ?XSTACK_DISP0_8
        MOV       A,#0x1
        SJMP      ??ZDSecMgrDeviceRemove_4
//  960       }
//  961 
//  962       NLME_LeaveReq( &leaveReq );
//  963     }
//  964     else if ( device->nwkAddr == NLME_GetShortAddr() )
??ZDSecMgrDeviceRemove_2:
        ; Setup parameters for call to function NLME_GetShortAddr
        LCALL     `??NLME_GetShortAddr::?relay`; Banked call to: NLME_GetShortAddr
        MOV       ?V0,R2
        MOV       ?V1,R3
        MOV       R0,?V0
        MOV       R1,?V1
        MOV       DPL,R6
        MOV       DPH,R7
        MOVX      A,@DPTR
        XRL       A,R0
        JNZ       ??ZDSecMgrDeviceRemove_5
        INC       DPTR
        MOVX      A,@DPTR
        XRL       A,R1
??ZDSecMgrDeviceRemove_5:
        JNZ       ??ZDSecMgrDeviceRemove_6
//  965     {
//  966       // this is when ZC wants that ZR removes itself from the network
//  967       leaveReq.extAddr = NULL;
        MOV       DPL,?XSP + 0
        MOV       DPH,?XSP + 1
        CLR       A
        MOVX      @DPTR,A
        INC       DPTR
        MOVX      @DPTR,A
//  968       leaveReq.silent = FALSE;
        MOV       A,#0x4
??ZDSecMgrDeviceRemove_3:
        LCALL     ?XSTACK_DISP0_8
        CLR       A
//  969 
//  970       NLME_LeaveReq( &leaveReq );
//  971     }
//  972   }
??ZDSecMgrDeviceRemove_4:
        LCALL     ??Subroutine68_0 & 0xFFFF
??CrossCallReturnLabel_114:
        LCALL     `??NLME_LeaveReq::?relay`; Banked call to: NLME_LeaveReq
        SJMP      ??ZDSecMgrDeviceRemove_6
//  973   else
//  974   {
//  975     // this is not the parent of the device
//  976     remDevReq.parentAddr   = device->parentAddr;
??ZDSecMgrDeviceRemove_1:
        MOV       A,#0x5
        LCALL     ?XSTACK_DISP0_8
        LCALL     ??Subroutine62_0 & 0xFFFF
//  977     remDevReq.childExtAddr = device->extAddr;
??CrossCallReturnLabel_106:
        MOV       DPL,R0
        MOV       DPH,R1
        LCALL     ??Subroutine77_0 & 0xFFFF
??CrossCallReturnLabel_160:
        MOV       A,#0x7
        LCALL     ?XSTACK_DISP0_8
        LCALL     ??Subroutine61_0 & 0xFFFF
//  978 
//  979 #if defined ( APP_TP2_TEST_MODE )
//  980     if ( guTxApsSecON == TRUE )
//  981     {
//  982       remDevReq.apsSecure = TRUE;
//  983     }
//  984     else
//  985     {
//  986       remDevReq.apsSecure = FALSE;
//  987     }
//  988 
//  989     APSME_RemoveDeviceReq( &remDevReq );
//  990 
//  991 #else
//  992     if ( ZG_CHECK_SECURITY_MODE == ZG_SECURITY_SE_STANDARD )
//  993     {
//  994       // For ZG_GLOBAL_LINK_KEY the message has to be sent twice, one
//  995       // APS un-encrypted and one APS encrypted, to make sure that it can interoperate
//  996       // with legacy Coordinator devices which can only handle one or the other.
//  997       if ( zgApsLinkKeyType == ZG_GLOBAL_LINK_KEY )
//  998       {
//  999         remDevReq.apsSecure = FALSE;
// 1000 
// 1001         APSME_RemoveDeviceReq( &remDevReq );
// 1002       }
// 1003 
// 1004       remDevReq.apsSecure = TRUE;
// 1005 
// 1006       APSME_RemoveDeviceReq( &remDevReq );
// 1007     }
// 1008     else
// 1009     {
// 1010       remDevReq.apsSecure = FALSE;
??CrossCallReturnLabel_87:
        MOV       A,#0x9
        LCALL     ?XSTACK_DISP0_8
        CLR       A
        MOVX      @DPTR,A
// 1011 
// 1012       APSME_RemoveDeviceReq( &remDevReq );
        ; Setup parameters for call to function APSME_RemoveDeviceReq
        MOV       A,#0x5
        LCALL     ?XSTACK_DISP101_8
        LCALL     `??APSME_RemoveDeviceReq::?relay`; Banked call to: APSME_RemoveDeviceReq
// 1013     }
// 1014 #endif
// 1015   }
// 1016 }
??ZDSecMgrDeviceRemove_6:
        MOV       A,#0xa
        LJMP      ??Subroutine63_0 & 0xFFFF
          CFI EndBlock cfiBlock93

        RSEG BANKED_CODE:HUGECODE:NOROOT(0)
?Subroutine37:
          CFI Block cfiCond94 Using cfiCommon0
          CFI Function ZDSecMgrEntryFree
          CFI Conditional ??CrossCallReturnLabel_72
          CFI R6 load(1, XDATA, add(CFA_XSP16, literal(-14)))
          CFI VB load(1, XDATA, add(CFA_XSP16, literal(-13)))
          CFI V0 load(1, XDATA, add(CFA_XSP16, literal(-12)))
          CFI V1 load(1, XDATA, add(CFA_XSP16, literal(-11)))
          CFI V2 load(1, XDATA, add(CFA_XSP16, literal(-10)))
          CFI V3 load(1, XDATA, add(CFA_XSP16, literal(-9)))
          CFI V4 load(1, XDATA, add(CFA_XSP16, literal(-8)))
          CFI V5 load(1, XDATA, add(CFA_XSP16, literal(-7)))
          CFI R7 load(1, XDATA, add(CFA_XSP16, literal(-6)))
          CFI ?RET_LOW load(1, XDATA, add(CFA_XSP16, literal(-5)))
          CFI ?RET_HIGH load(1, XDATA, add(CFA_XSP16, literal(-4)))
          CFI ?BRET_EXT load(1, XDATA, add(CFA_XSP16, literal(-3)))
          CFI DPL0 load(1, XDATA, add(CFA_XSP16, literal(-2)))
          CFI DPH0 load(1, XDATA, add(CFA_XSP16, literal(-1)))
          CFI CFA_SP SP+-2
          CFI CFA_XSP16 add(XSP16, 18)
          CFI Block cfiCond95 Using cfiCommon0
          CFI (cfiCond95) Function ZDSecMgrDeviceJoin
          CFI (cfiCond95) Conditional ??CrossCallReturnLabel_73
          CFI (cfiCond95) R6 load(1, XDATA, add(CFA_XSP16, literal(-16)))
          CFI (cfiCond95) VB load(1, XDATA, add(CFA_XSP16, literal(-15)))
          CFI (cfiCond95) V0 load(1, XDATA, add(CFA_XSP16, literal(-14)))
          CFI (cfiCond95) V1 load(1, XDATA, add(CFA_XSP16, literal(-13)))
          CFI (cfiCond95) V2 load(1, XDATA, add(CFA_XSP16, literal(-12)))
          CFI (cfiCond95) V3 load(1, XDATA, add(CFA_XSP16, literal(-11)))
          CFI (cfiCond95) V4 load(1, XDATA, add(CFA_XSP16, literal(-10)))
          CFI (cfiCond95) V5 load(1, XDATA, add(CFA_XSP16, literal(-9)))
          CFI (cfiCond95) V6 load(1, XDATA, add(CFA_XSP16, literal(-8)))
          CFI (cfiCond95) V7 load(1, XDATA, add(CFA_XSP16, literal(-7)))
          CFI (cfiCond95) R7 load(1, XDATA, add(CFA_XSP16, literal(-6)))
          CFI (cfiCond95) ?RET_LOW load(1, XDATA, add(CFA_XSP16, literal(-5)))
          CFI (cfiCond95) ?RET_HIGH load(1, XDATA, add(CFA_XSP16, literal(-4)))
          CFI (cfiCond95) ?BRET_EXT load(1, XDATA, add(CFA_XSP16, literal(-3)))
          CFI (cfiCond95) DPL0 load(1, XDATA, add(CFA_XSP16, literal(-2)))
          CFI (cfiCond95) DPH0 load(1, XDATA, add(CFA_XSP16, literal(-1)))
          CFI (cfiCond95) CFA_SP SP+-2
          CFI (cfiCond95) CFA_XSP16 add(XSP16, 30)
          CFI Block cfiPicker96 Using cfiCommon1
          CFI (cfiPicker96) NoFunction
          CFI (cfiPicker96) Picker
        MOV       DPL,?V0
        MOV       DPH,?V1
          CFI EndBlock cfiCond94
          CFI EndBlock cfiCond95
          CFI EndBlock cfiPicker96
        REQUIRE ??Subroutine57_0
        ; // Fall through to label ??Subroutine57_0

        RSEG BANKED_CODE:HUGECODE:NOROOT(0)
??Subroutine57_0:
          CFI Block cfiCond97 Using cfiCommon0
          CFI Function ZDSecMgrAppKeyGet
          CFI Conditional ??CrossCallReturnLabel_64
          CFI DPL0 Frame(CFA_SP, 4)
          CFI DPH0 Frame(CFA_SP, 5)
          CFI CFA_SP SP+-7
          CFI Block cfiCond98 Using cfiCommon0
          CFI (cfiCond98) Function ZDSecMgrAppKeyReq
          CFI (cfiCond98) Conditional ??CrossCallReturnLabel_65
          CFI (cfiCond98) R6 load(1, XDATA, add(CFA_XSP16, literal(-12)))
          CFI (cfiCond98) VB load(1, XDATA, add(CFA_XSP16, literal(-11)))
          CFI (cfiCond98) V0 load(1, XDATA, add(CFA_XSP16, literal(-10)))
          CFI (cfiCond98) V1 load(1, XDATA, add(CFA_XSP16, literal(-9)))
          CFI (cfiCond98) V2 load(1, XDATA, add(CFA_XSP16, literal(-8)))
          CFI (cfiCond98) V3 load(1, XDATA, add(CFA_XSP16, literal(-7)))
          CFI (cfiCond98) R7 load(1, XDATA, add(CFA_XSP16, literal(-6)))
          CFI (cfiCond98) ?RET_LOW load(1, XDATA, add(CFA_XSP16, literal(-5)))
          CFI (cfiCond98) ?RET_HIGH load(1, XDATA, add(CFA_XSP16, literal(-4)))
          CFI (cfiCond98) ?BRET_EXT load(1, XDATA, add(CFA_XSP16, literal(-3)))
          CFI (cfiCond98) DPL0 load(1, XDATA, add(CFA_XSP16, literal(-2)))
          CFI (cfiCond98) DPH0 load(1, XDATA, add(CFA_XSP16, literal(-1)))
          CFI (cfiCond98) CFA_SP SP+-2
          CFI (cfiCond98) CFA_XSP16 add(XSP16, 51)
          CFI Block cfiCond99 Using cfiCommon0
          CFI (cfiCond99) Function ZDSecMgrAppKeyReq
          CFI (cfiCond99) Conditional ??CrossCallReturnLabel_66
          CFI (cfiCond99) R6 load(1, XDATA, add(CFA_XSP16, literal(-12)))
          CFI (cfiCond99) VB load(1, XDATA, add(CFA_XSP16, literal(-11)))
          CFI (cfiCond99) V0 load(1, XDATA, add(CFA_XSP16, literal(-10)))
          CFI (cfiCond99) V1 load(1, XDATA, add(CFA_XSP16, literal(-9)))
          CFI (cfiCond99) V2 load(1, XDATA, add(CFA_XSP16, literal(-8)))
          CFI (cfiCond99) V3 load(1, XDATA, add(CFA_XSP16, literal(-7)))
          CFI (cfiCond99) R7 load(1, XDATA, add(CFA_XSP16, literal(-6)))
          CFI (cfiCond99) ?RET_LOW load(1, XDATA, add(CFA_XSP16, literal(-5)))
          CFI (cfiCond99) ?RET_HIGH load(1, XDATA, add(CFA_XSP16, literal(-4)))
          CFI (cfiCond99) ?BRET_EXT load(1, XDATA, add(CFA_XSP16, literal(-3)))
          CFI (cfiCond99) DPL0 load(1, XDATA, add(CFA_XSP16, literal(-2)))
          CFI (cfiCond99) DPH0 load(1, XDATA, add(CFA_XSP16, literal(-1)))
          CFI (cfiCond99) CFA_SP SP+-2
          CFI (cfiCond99) CFA_XSP16 add(XSP16, 59)
          CFI Block cfiCond100 Using cfiCommon0
          CFI (cfiCond100) Function ZDSecMgrDeviceRemoveByExtAddr
          CFI (cfiCond100) Conditional ??CrossCallReturnLabel_67
          CFI (cfiCond100) R6 load(1, XDATA, add(CFA_XSP16, literal(-9)))
          CFI (cfiCond100) VB load(1, XDATA, add(CFA_XSP16, literal(-8)))
          CFI (cfiCond100) V0 load(1, XDATA, add(CFA_XSP16, literal(-7)))
          CFI (cfiCond100) R7 load(1, XDATA, add(CFA_XSP16, literal(-6)))
          CFI (cfiCond100) ?RET_LOW load(1, XDATA, add(CFA_XSP16, literal(-5)))
          CFI (cfiCond100) ?RET_HIGH load(1, XDATA, add(CFA_XSP16, literal(-4)))
          CFI (cfiCond100) ?BRET_EXT load(1, XDATA, add(CFA_XSP16, literal(-3)))
          CFI (cfiCond100) DPL0 load(1, XDATA, add(CFA_XSP16, literal(-2)))
          CFI (cfiCond100) DPH0 load(1, XDATA, add(CFA_XSP16, literal(-1)))
          CFI (cfiCond100) CFA_SP SP+-2
          CFI (cfiCond100) CFA_XSP16 add(XSP16, 11)
          CFI Block cfiCond101 Using cfiCommon0
          CFI (cfiCond101) Function ZDSecMgrDeviceRemove
          CFI (cfiCond101) Conditional ??CrossCallReturnLabel_68
          CFI (cfiCond101) R6 load(1, XDATA, add(CFA_XSP16, literal(-10)))
          CFI (cfiCond101) VB load(1, XDATA, add(CFA_XSP16, literal(-9)))
          CFI (cfiCond101) V0 load(1, XDATA, add(CFA_XSP16, literal(-8)))
          CFI (cfiCond101) V1 load(1, XDATA, add(CFA_XSP16, literal(-7)))
          CFI (cfiCond101) R7 load(1, XDATA, add(CFA_XSP16, literal(-6)))
          CFI (cfiCond101) ?RET_LOW load(1, XDATA, add(CFA_XSP16, literal(-5)))
          CFI (cfiCond101) ?RET_HIGH load(1, XDATA, add(CFA_XSP16, literal(-4)))
          CFI (cfiCond101) ?BRET_EXT load(1, XDATA, add(CFA_XSP16, literal(-3)))
          CFI (cfiCond101) DPL0 load(1, XDATA, add(CFA_XSP16, literal(-2)))
          CFI (cfiCond101) DPH0 load(1, XDATA, add(CFA_XSP16, literal(-1)))
          CFI (cfiCond101) CFA_SP SP+-2
          CFI (cfiCond101) CFA_XSP16 add(XSP16, 20)
          CFI Block cfiCond102 Using cfiCommon0
          CFI (cfiCond102) Function ZDSecMgrDeviceRemove
          CFI (cfiCond102) Conditional ??CrossCallReturnLabel_69
          CFI (cfiCond102) R6 load(1, XDATA, add(CFA_XSP16, literal(-10)))
          CFI (cfiCond102) VB load(1, XDATA, add(CFA_XSP16, literal(-9)))
          CFI (cfiCond102) V0 load(1, XDATA, add(CFA_XSP16, literal(-8)))
          CFI (cfiCond102) V1 load(1, XDATA, add(CFA_XSP16, literal(-7)))
          CFI (cfiCond102) R7 load(1, XDATA, add(CFA_XSP16, literal(-6)))
          CFI (cfiCond102) ?RET_LOW load(1, XDATA, add(CFA_XSP16, literal(-5)))
          CFI (cfiCond102) ?RET_HIGH load(1, XDATA, add(CFA_XSP16, literal(-4)))
          CFI (cfiCond102) ?BRET_EXT load(1, XDATA, add(CFA_XSP16, literal(-3)))
          CFI (cfiCond102) DPL0 load(1, XDATA, add(CFA_XSP16, literal(-2)))
          CFI (cfiCond102) DPH0 load(1, XDATA, add(CFA_XSP16, literal(-1)))
          CFI (cfiCond102) CFA_SP SP+-2
          CFI (cfiCond102) CFA_XSP16 add(XSP16, 20)
          CFI Block cfiCond103 Using cfiCommon0
          CFI (cfiCond103) Function ZDSecMgrDeviceJoin
          CFI (cfiCond103) Conditional ??CrossCallReturnLabel_70
          CFI (cfiCond103) R6 load(1, XDATA, add(CFA_XSP16, literal(-16)))
          CFI (cfiCond103) VB load(1, XDATA, add(CFA_XSP16, literal(-15)))
          CFI (cfiCond103) V0 load(1, XDATA, add(CFA_XSP16, literal(-14)))
          CFI (cfiCond103) V1 load(1, XDATA, add(CFA_XSP16, literal(-13)))
          CFI (cfiCond103) V2 load(1, XDATA, add(CFA_XSP16, literal(-12)))
          CFI (cfiCond103) V3 load(1, XDATA, add(CFA_XSP16, literal(-11)))
          CFI (cfiCond103) V4 load(1, XDATA, add(CFA_XSP16, literal(-10)))
          CFI (cfiCond103) V5 load(1, XDATA, add(CFA_XSP16, literal(-9)))
          CFI (cfiCond103) V6 load(1, XDATA, add(CFA_XSP16, literal(-8)))
          CFI (cfiCond103) V7 load(1, XDATA, add(CFA_XSP16, literal(-7)))
          CFI (cfiCond103) R7 load(1, XDATA, add(CFA_XSP16, literal(-6)))
          CFI (cfiCond103) ?RET_LOW load(1, XDATA, add(CFA_XSP16, literal(-5)))
          CFI (cfiCond103) ?RET_HIGH load(1, XDATA, add(CFA_XSP16, literal(-4)))
          CFI (cfiCond103) ?BRET_EXT load(1, XDATA, add(CFA_XSP16, literal(-3)))
          CFI (cfiCond103) DPL0 load(1, XDATA, add(CFA_XSP16, literal(-2)))
          CFI (cfiCond103) DPH0 load(1, XDATA, add(CFA_XSP16, literal(-1)))
          CFI (cfiCond103) CFA_SP SP+-2
          CFI (cfiCond103) CFA_XSP16 add(XSP16, 32)
          CFI Block cfiCond104 Using cfiCommon0
          CFI (cfiCond104) Function APSME_IsLinkKeyValid
          CFI (cfiCond104) Conditional ??CrossCallReturnLabel_71
          CFI (cfiCond104) R6 load(1, XDATA, add(CFA_XSP16, literal(-15)))
          CFI (cfiCond104) VB load(1, XDATA, add(CFA_XSP16, literal(-14)))
          CFI (cfiCond104) V0 load(1, XDATA, add(CFA_XSP16, literal(-13)))
          CFI (cfiCond104) V1 load(1, XDATA, add(CFA_XSP16, literal(-12)))
          CFI (cfiCond104) V2 load(1, XDATA, add(CFA_XSP16, literal(-11)))
          CFI (cfiCond104) V3 load(1, XDATA, add(CFA_XSP16, literal(-10)))
          CFI (cfiCond104) V4 load(1, XDATA, add(CFA_XSP16, literal(-9)))
          CFI (cfiCond104) V5 load(1, XDATA, add(CFA_XSP16, literal(-8)))
          CFI (cfiCond104) V6 load(1, XDATA, add(CFA_XSP16, literal(-7)))
          CFI (cfiCond104) R7 load(1, XDATA, add(CFA_XSP16, literal(-6)))
          CFI (cfiCond104) ?RET_LOW load(1, XDATA, add(CFA_XSP16, literal(-5)))
          CFI (cfiCond104) ?RET_HIGH load(1, XDATA, add(CFA_XSP16, literal(-4)))
          CFI (cfiCond104) ?BRET_EXT load(1, XDATA, add(CFA_XSP16, literal(-3)))
          CFI (cfiCond104) DPL0 load(1, XDATA, add(CFA_XSP16, literal(-2)))
          CFI (cfiCond104) DPH0 load(1, XDATA, add(CFA_XSP16, literal(-1)))
          CFI (cfiCond104) CFA_SP SP+-2
          CFI (cfiCond104) CFA_XSP16 add(XSP16, 37)
          CFI Block cfiCond105 Using cfiCommon0
          CFI (cfiCond105) Function ZDSecMgrEntryFree
          CFI (cfiCond105) Conditional ??CrossCallReturnLabel_72
          CFI (cfiCond105) R6 load(1, XDATA, add(CFA_XSP16, literal(-14)))
          CFI (cfiCond105) VB load(1, XDATA, add(CFA_XSP16, literal(-13)))
          CFI (cfiCond105) V0 load(1, XDATA, add(CFA_XSP16, literal(-12)))
          CFI (cfiCond105) V1 load(1, XDATA, add(CFA_XSP16, literal(-11)))
          CFI (cfiCond105) V2 load(1, XDATA, add(CFA_XSP16, literal(-10)))
          CFI (cfiCond105) V3 load(1, XDATA, add(CFA_XSP16, literal(-9)))
          CFI (cfiCond105) V4 load(1, XDATA, add(CFA_XSP16, literal(-8)))
          CFI (cfiCond105) V5 load(1, XDATA, add(CFA_XSP16, literal(-7)))
          CFI (cfiCond105) R7 load(1, XDATA, add(CFA_XSP16, literal(-6)))
          CFI (cfiCond105) ?RET_LOW load(1, XDATA, add(CFA_XSP16, literal(-5)))
          CFI (cfiCond105) ?RET_HIGH load(1, XDATA, add(CFA_XSP16, literal(-4)))
          CFI (cfiCond105) ?BRET_EXT load(1, XDATA, add(CFA_XSP16, literal(-3)))
          CFI (cfiCond105) DPL0 load(1, XDATA, add(CFA_XSP16, literal(-2)))
          CFI (cfiCond105) DPH0 load(1, XDATA, add(CFA_XSP16, literal(-1)))
          CFI (cfiCond105) CFA_SP SP+-2
          CFI (cfiCond105) CFA_XSP16 add(XSP16, 18)
          CFI Block cfiCond106 Using cfiCommon0
          CFI (cfiCond106) Function ZDSecMgrDeviceJoin
          CFI (cfiCond106) Conditional ??CrossCallReturnLabel_73
          CFI (cfiCond106) R6 load(1, XDATA, add(CFA_XSP16, literal(-16)))
          CFI (cfiCond106) VB load(1, XDATA, add(CFA_XSP16, literal(-15)))
          CFI (cfiCond106) V0 load(1, XDATA, add(CFA_XSP16, literal(-14)))
          CFI (cfiCond106) V1 load(1, XDATA, add(CFA_XSP16, literal(-13)))
          CFI (cfiCond106) V2 load(1, XDATA, add(CFA_XSP16, literal(-12)))
          CFI (cfiCond106) V3 load(1, XDATA, add(CFA_XSP16, literal(-11)))
          CFI (cfiCond106) V4 load(1, XDATA, add(CFA_XSP16, literal(-10)))
          CFI (cfiCond106) V5 load(1, XDATA, add(CFA_XSP16, literal(-9)))
          CFI (cfiCond106) V6 load(1, XDATA, add(CFA_XSP16, literal(-8)))
          CFI (cfiCond106) V7 load(1, XDATA, add(CFA_XSP16, literal(-7)))
          CFI (cfiCond106) R7 load(1, XDATA, add(CFA_XSP16, literal(-6)))
          CFI (cfiCond106) ?RET_LOW load(1, XDATA, add(CFA_XSP16, literal(-5)))
          CFI (cfiCond106) ?RET_HIGH load(1, XDATA, add(CFA_XSP16, literal(-4)))
          CFI (cfiCond106) ?BRET_EXT load(1, XDATA, add(CFA_XSP16, literal(-3)))
          CFI (cfiCond106) DPL0 load(1, XDATA, add(CFA_XSP16, literal(-2)))
          CFI (cfiCond106) DPH0 load(1, XDATA, add(CFA_XSP16, literal(-1)))
          CFI (cfiCond106) CFA_SP SP+-2
          CFI (cfiCond106) CFA_XSP16 add(XSP16, 30)
          CFI Block cfiPicker107 Using cfiCommon1
          CFI (cfiPicker107) NoFunction
          CFI (cfiPicker107) Picker
        LCALL     ?Subroutine49 & 0xFFFF
??CrossCallReturnLabel_78:
        RET
          CFI EndBlock cfiCond97
          CFI EndBlock cfiCond98
          CFI EndBlock cfiCond99
          CFI EndBlock cfiCond100
          CFI EndBlock cfiCond101
          CFI EndBlock cfiCond102
          CFI EndBlock cfiCond103
          CFI EndBlock cfiCond104
          CFI EndBlock cfiCond105
          CFI EndBlock cfiCond106
          CFI EndBlock cfiPicker107
// 1017 
// 1018 /******************************************************************************
// 1019  * @fn          ZDSecMgrDeviceValidateRM (RESIDENTIAL MODE)
// 1020  *
// 1021  * @brief       Decide whether device is allowed.
// 1022  *
// 1023  * @param       device - [in] ZDSecMgrDevice_t, device info
// 1024  *
// 1025  * @return      ZStatus_t
// 1026  */

        RSEG BANKED_CODE:HUGECODE:NOROOT(0)
// 1027 ZStatus_t ZDSecMgrDeviceValidateRM( ZDSecMgrDevice_t* device )
ZDSecMgrDeviceValidateRM:
          CFI Block cfiBlock108 Using cfiCommon0
          CFI Function ZDSecMgrDeviceValidateRM
        CODE
// 1028 {
        PUSH      DPL
          CFI DPL0 Frame(CFA_SP, 4)
          CFI CFA_SP SP+-4
        PUSH      DPH
          CFI DPH0 Frame(CFA_SP, 5)
          CFI CFA_SP SP+-5
        ; Saved register size: 2
        ; Auto size: 0
// 1029   ZStatus_t status;
// 1030 
// 1031   status = ZSuccess;
        MOV       R1,#0x0
// 1032 
// 1033   (void)device;  // Intentionally unreferenced parameter
// 1034 
// 1035   // For test purpose, turning off the zgSecurePermitJoin flag will force
// 1036   // the trust center to reject any newly joining devices by sending
// 1037   // Remove-device to the parents.
// 1038   if ( zgSecurePermitJoin == FALSE )
        MOV       DPTR,#zgSecurePermitJoin
        MOVX      A,@DPTR
        JNZ       ??ZDSecMgrDeviceValidateRM_0
// 1039   {
// 1040     status = ZNwkUnknownDevice;
        MOV       R1,#-0x38
// 1041   }
// 1042 
// 1043 
// 1044 
// 1045 #if 0  // Taken out because the following functionality is only used for test
// 1046        // purpose. A more efficient (above) way is used. It can be put
// 1047        // back in if customers request for a white/black list feature.
// 1048        // ZDSecMgrStoredDeviceList[] is defined in ZDSecMgr.c
// 1049 
// 1050   // The following code processes the device black list (stored device list)
// 1051   // If the joining device is not part of the forbidden device list
// 1052   // Return ZSuccess. Otherwise, return ZNwkUnknownDevice. The trust center
// 1053   // will send Remove-device and ban the device from joining.
// 1054 
// 1055   uint8     index;
// 1056   uint8*    restricted;
// 1057 
// 1058   // Look through the stored device list - used for restricted devices
// 1059   for ( index = 0; index < ZDSECMGR_STORED_DEVICES; index++ )
// 1060   {
// 1061     restricted = ZDSecMgrStoredDeviceList[index];
// 1062 
// 1063     if ( AddrMgrExtAddrEqual( restricted, device->extAddr )  == TRUE )
// 1064     {
// 1065       // return as unknown device in regards to validation
// 1066       status = ZNwkUnknownDevice;
// 1067 
// 1068       // break from loop
// 1069       index = ZDSECMGR_STORED_DEVICES;
// 1070     }
// 1071   }
// 1072 
// 1073 #endif
// 1074 
// 1075   return status;
??ZDSecMgrDeviceValidateRM_0:
        LJMP      ??Subroutine59_0 & 0xFFFF
// 1076 }
          CFI EndBlock cfiBlock108
// 1077 
// 1078 /******************************************************************************
// 1079  * @fn          ZDSecMgrDeviceValidate
// 1080  *
// 1081  * @brief       Decide whether device is allowed.
// 1082  *
// 1083  * @param       device - [in] ZDSecMgrDevice_t, device info
// 1084  *
// 1085  * @return      ZStatus_t
// 1086  */

        RSEG BANKED_CODE:HUGECODE:NOROOT(0)
// 1087 ZStatus_t ZDSecMgrDeviceValidate( ZDSecMgrDevice_t* device )
ZDSecMgrDeviceValidate:
          CFI Block cfiBlock109 Using cfiCommon0
          CFI Function ZDSecMgrDeviceValidate
        CODE
// 1088 {
        FUNCALL ZDSecMgrDeviceValidate, ZDSecMgrDeviceValidateRM
        LOCFRAME ISTACK, 2, STACK
        LOCFRAME PSTACK, 0, STACK
        LOCFRAME XSTACK, 0, STACK
        LOCFRAME IOVERLAY, 0, STATIC
        LOCFRAME DOVERLAY, 0, STATIC
        ARGFRAME ISTACK, 2, STACK
        ARGFRAME PSTACK, 0, STACK
        ARGFRAME XSTACK, 0, STACK
        ARGFRAME IOVERLAY, 0, STATIC
        ARGFRAME DOVERLAY, 0, STATIC
        PUSH      DPL
          CFI DPL0 Frame(CFA_SP, 4)
          CFI CFA_SP SP+-4
        PUSH      DPH
          CFI DPH0 Frame(CFA_SP, 5)
          CFI CFA_SP SP+-5
        ; Saved register size: 2
        ; Auto size: 0
// 1089   ZStatus_t status;
// 1090 
// 1091   if ( ZDSecMgrPermitJoiningEnabled == TRUE )
        MOV       DPTR,#ZDSecMgrPermitJoiningEnabled
        MOVX      A,@DPTR
        XRL       A,#0x1
        JNZ       ??ZDSecMgrDeviceValidate_0
// 1092   {
// 1093     status = ZDSecMgrDeviceValidateRM( device );
        ; Setup parameters for call to function ZDSecMgrDeviceValidateRM
        LCALL     `??ZDSecMgrDeviceValidateRM::?relay`; Banked call to: ZDSecMgrDeviceValidateRM
        MOV       A,R1
        MOV       R1,A
        SJMP      ??ZDSecMgrDeviceValidate_1
// 1094   }
// 1095   else
// 1096   {
// 1097     status = ZNwkUnknownDevice;
??ZDSecMgrDeviceValidate_0:
        MOV       R1,#-0x38
// 1098   }
// 1099 
// 1100   return status;
??ZDSecMgrDeviceValidate_1:
        LJMP      ??Subroutine59_0 & 0xFFFF
// 1101 }
          CFI EndBlock cfiBlock109
// 1102 
// 1103 /******************************************************************************
// 1104  * @fn          ZDSecMgrDeviceJoin
// 1105  *
// 1106  * @brief       Try to join this device.
// 1107  *
// 1108  * @param       device - [in] ZDSecMgrDevice_t, device info
// 1109  *
// 1110  * @return      ZStatus_t
// 1111  */

        RSEG BANKED_CODE:HUGECODE:NOROOT(0)
// 1112 ZStatus_t ZDSecMgrDeviceJoin( ZDSecMgrDevice_t* device )
ZDSecMgrDeviceJoin:
          CFI Block cfiBlock110 Using cfiCommon0
          CFI Function ZDSecMgrDeviceJoin
        CODE
// 1113 {
        FUNCALL ZDSecMgrDeviceJoin, ZDSecMgrDeviceValidate
        LOCFRAME ISTACK, 0, STACK
        LOCFRAME PSTACK, 0, STACK
        LOCFRAME XSTACK, 30, STACK
        LOCFRAME IOVERLAY, 0, STATIC
        LOCFRAME DOVERLAY, 0, STATIC
        ARGFRAME ISTACK, 0, STACK
        ARGFRAME PSTACK, 0, STACK
        ARGFRAME XSTACK, 30, STACK
        ARGFRAME IOVERLAY, 0, STATIC
        ARGFRAME DOVERLAY, 0, STATIC
        FUNCALL ZDSecMgrDeviceJoin, ZDSecMgrAddrStore
        LOCFRAME ISTACK, 0, STACK
        LOCFRAME PSTACK, 0, STACK
        LOCFRAME XSTACK, 32, STACK
        LOCFRAME IOVERLAY, 0, STATIC
        LOCFRAME DOVERLAY, 0, STATIC
        ARGFRAME ISTACK, 0, STACK
        ARGFRAME PSTACK, 0, STACK
        ARGFRAME XSTACK, 32, STACK
        ARGFRAME IOVERLAY, 0, STATIC
        ARGFRAME DOVERLAY, 0, STATIC
        FUNCALL ZDSecMgrDeviceJoin, ZDSecMgrSendNwkKey
        LOCFRAME ISTACK, 0, STACK
        LOCFRAME PSTACK, 0, STACK
        LOCFRAME XSTACK, 30, STACK
        LOCFRAME IOVERLAY, 0, STATIC
        LOCFRAME DOVERLAY, 0, STATIC
        ARGFRAME ISTACK, 0, STACK
        ARGFRAME PSTACK, 0, STACK
        ARGFRAME XSTACK, 30, STACK
        ARGFRAME IOVERLAY, 0, STATIC
        ARGFRAME DOVERLAY, 0, STATIC
        FUNCALL ZDSecMgrDeviceJoin, ZDSecMgrAddrClear
        LOCFRAME ISTACK, 0, STACK
        LOCFRAME PSTACK, 0, STACK
        LOCFRAME XSTACK, 30, STACK
        LOCFRAME IOVERLAY, 0, STATIC
        LOCFRAME DOVERLAY, 0, STATIC
        ARGFRAME ISTACK, 0, STACK
        ARGFRAME PSTACK, 0, STACK
        ARGFRAME XSTACK, 30, STACK
        ARGFRAME IOVERLAY, 0, STATIC
        ARGFRAME DOVERLAY, 0, STATIC
        FUNCALL ZDSecMgrDeviceJoin, ZDSecMgrDeviceRemove
        LOCFRAME ISTACK, 0, STACK
        LOCFRAME PSTACK, 0, STACK
        LOCFRAME XSTACK, 30, STACK
        LOCFRAME IOVERLAY, 0, STATIC
        LOCFRAME DOVERLAY, 0, STATIC
        ARGFRAME ISTACK, 0, STACK
        ARGFRAME PSTACK, 0, STACK
        ARGFRAME XSTACK, 30, STACK
        ARGFRAME IOVERLAY, 0, STATIC
        ARGFRAME DOVERLAY, 0, STATIC
        FUNCALL ZDSecMgrDeviceJoin, osal_memcpy
        LOCFRAME ISTACK, 0, STACK
        LOCFRAME PSTACK, 0, STACK
        LOCFRAME XSTACK, 33, STACK
        LOCFRAME IOVERLAY, 0, STATIC
        LOCFRAME DOVERLAY, 0, STATIC
        ARGFRAME ISTACK, 0, STACK
        ARGFRAME PSTACK, 0, STACK
        ARGFRAME XSTACK, 33, STACK
        ARGFRAME IOVERLAY, 0, STATIC
        ARGFRAME DOVERLAY, 0, STATIC
        REQUIRE ?V0
        REQUIRE ?V1
        REQUIRE ?V2
        REQUIRE ?V3
        REQUIRE ?V4
        REQUIRE ?V6
        REQUIRE ?V7
        MOV       A,#-0x10
        LCALL     ?BANKED_ENTER_XDATA
          CFI DPH0 load(1, XDATA, add(CFA_XSP16, literal(-1)))
          CFI DPL0 load(1, XDATA, add(CFA_XSP16, literal(-2)))
          CFI ?BRET_EXT load(1, XDATA, add(CFA_XSP16, literal(-3)))
          CFI ?RET_HIGH load(1, XDATA, add(CFA_XSP16, literal(-4)))
          CFI ?RET_LOW load(1, XDATA, add(CFA_XSP16, literal(-5)))
          CFI R7 load(1, XDATA, add(CFA_XSP16, literal(-6)))
          CFI V7 load(1, XDATA, add(CFA_XSP16, literal(-7)))
